                                      1 ;--------------------------------------------------------
                                      2 ; File Created by SDCC : free open source ANSI-C Compiler
                                      3 ; Version 4.2.0 #13081 (Linux)
                                      4 ;--------------------------------------------------------
                                      5 	.module USBHost
                                      6 	.optsdcc -mmcs51 --model-large
                                      7 	
                                      8 ;--------------------------------------------------------
                                      9 ; Public variables in this module
                                     10 ;--------------------------------------------------------
                                     11 	.globl _GetHIDReport
                                     12 	.globl _SetHIDIdleRequest
                                     13 	.globl _SetupSetUsbConfig
                                     14 	.globl _GetDeviceStringRequest
                                     15 	.globl _SetUSBAddressRequest
                                     16 	.globl _GetInterfaceDescriptorRequest
                                     17 	.globl _GetConfigurationDescriptorRequest
                                     18 	.globl _GetDeviceDescriptorRequest
                                     19 	.globl _flash_led
                                     20 	.globl _memset
                                     21 	.globl _delay
                                     22 	.globl _delayUs
                                     23 	.globl _UIF_BUS_RST
                                     24 	.globl _UIF_DETECT
                                     25 	.globl _UIF_TRANSFER
                                     26 	.globl _UIF_SUSPEND
                                     27 	.globl _UIF_HST_SOF
                                     28 	.globl _UIF_FIFO_OV
                                     29 	.globl _U_SIE_FREE
                                     30 	.globl _U_TOG_OK
                                     31 	.globl _U_IS_NAK
                                     32 	.globl _S0_R_FIFO0
                                     33 	.globl _S0_R_FIFO1
                                     34 	.globl _S0_T_FIFO
                                     35 	.globl _S0_FREE
                                     36 	.globl _S0_IF_BYTE
                                     37 	.globl _S0_IF_FIRST
                                     38 	.globl _S0_IF_OV
                                     39 	.globl _S0_FST_ACT
                                     40 	.globl _CP_RL2
                                     41 	.globl _C_T2
                                     42 	.globl _TR2
                                     43 	.globl _EXEN2
                                     44 	.globl _TCLK
                                     45 	.globl _RCLK
                                     46 	.globl _EXF2
                                     47 	.globl _CAP1F
                                     48 	.globl _TF2
                                     49 	.globl _RI
                                     50 	.globl _TI
                                     51 	.globl _RB8
                                     52 	.globl _TB8
                                     53 	.globl _REN
                                     54 	.globl _SM2
                                     55 	.globl _SM1
                                     56 	.globl _SM0
                                     57 	.globl _IT0
                                     58 	.globl _IE0
                                     59 	.globl _IT1
                                     60 	.globl _IE1
                                     61 	.globl _TR0
                                     62 	.globl _TF0
                                     63 	.globl _TR1
                                     64 	.globl _TF1
                                     65 	.globl _RXD1_
                                     66 	.globl _LED2
                                     67 	.globl _CAP3_
                                     68 	.globl _PWM3_
                                     69 	.globl _PWM1_
                                     70 	.globl _TXD1_
                                     71 	.globl _TNOW_
                                     72 	.globl _LED3
                                     73 	.globl _PWM2_
                                     74 	.globl _SCS_
                                     75 	.globl _SCK_
                                     76 	.globl _RXD
                                     77 	.globl _TXD
                                     78 	.globl _INT0
                                     79 	.globl _LED0
                                     80 	.globl _INT1
                                     81 	.globl _LED1
                                     82 	.globl _T0
                                     83 	.globl _XCS0
                                     84 	.globl _LEDC
                                     85 	.globl _T1
                                     86 	.globl _DA6
                                     87 	.globl _WR
                                     88 	.globl _RD
                                     89 	.globl _MOSI1
                                     90 	.globl _MISO1
                                     91 	.globl _SCK1
                                     92 	.globl _PWM1
                                     93 	.globl _CAP2_
                                     94 	.globl _T2EX_
                                     95 	.globl _PWM2
                                     96 	.globl _TNOW
                                     97 	.globl _RXD1
                                     98 	.globl _DA7
                                     99 	.globl _TXD1
                                    100 	.globl _CAP1
                                    101 	.globl _T2
                                    102 	.globl _CAP2
                                    103 	.globl _T2EX
                                    104 	.globl _CAP3
                                    105 	.globl _PWM3
                                    106 	.globl _SCS
                                    107 	.globl _MOSI
                                    108 	.globl _MISO
                                    109 	.globl _SCK
                                    110 	.globl _AIN0
                                    111 	.globl _AIN1
                                    112 	.globl _AIN2
                                    113 	.globl _AIN3
                                    114 	.globl _AIN4
                                    115 	.globl _AIN5
                                    116 	.globl _AIN6
                                    117 	.globl _AIN7
                                    118 	.globl _UDTR
                                    119 	.globl _URTS
                                    120 	.globl _RXD_
                                    121 	.globl _TXD_
                                    122 	.globl _UCTS
                                    123 	.globl _UDSR
                                    124 	.globl _URI
                                    125 	.globl _UDCD
                                    126 	.globl _IE_SPI0
                                    127 	.globl _IE_TMR3
                                    128 	.globl _IE_USB
                                    129 	.globl _IE_ADC
                                    130 	.globl _IE_UART1
                                    131 	.globl _IE_PWM1
                                    132 	.globl _IE_GPIO
                                    133 	.globl _IE_WDOG
                                    134 	.globl _PX0
                                    135 	.globl _PT0
                                    136 	.globl _PX1
                                    137 	.globl _PT1
                                    138 	.globl _PS
                                    139 	.globl _PT2
                                    140 	.globl _PL_FLAG
                                    141 	.globl _PH_FLAG
                                    142 	.globl _EX0
                                    143 	.globl _ET0
                                    144 	.globl _EX1
                                    145 	.globl _ET1
                                    146 	.globl _ES
                                    147 	.globl _ET2
                                    148 	.globl _E_DIS
                                    149 	.globl _EA
                                    150 	.globl _P
                                    151 	.globl _F1
                                    152 	.globl _OV
                                    153 	.globl _RS0
                                    154 	.globl _RS1
                                    155 	.globl _F0
                                    156 	.globl _AC
                                    157 	.globl _CY
                                    158 	.globl _USB_DMA_AH
                                    159 	.globl _USB_DMA_AL
                                    160 	.globl _USB_DMA
                                    161 	.globl _UHUB1_CTRL
                                    162 	.globl _UDEV_CTRL
                                    163 	.globl _USB_DEV_AD
                                    164 	.globl _USB_CTRL
                                    165 	.globl _USB_INT_EN
                                    166 	.globl _UEP4_T_LEN
                                    167 	.globl _UEP4_CTRL
                                    168 	.globl _UEP0_T_LEN
                                    169 	.globl _UEP0_CTRL
                                    170 	.globl _USB_HUB_ST
                                    171 	.globl _USB_MIS_ST
                                    172 	.globl _USB_INT_ST
                                    173 	.globl _USB_INT_FG
                                    174 	.globl _UEP3_T_LEN
                                    175 	.globl _UEP3_CTRL
                                    176 	.globl _UEP2_T_LEN
                                    177 	.globl _UEP2_CTRL
                                    178 	.globl _UEP1_T_LEN
                                    179 	.globl _UEP1_CTRL
                                    180 	.globl _USB_RX_LEN
                                    181 	.globl _ADC_EX_SW
                                    182 	.globl _ADC_SETUP
                                    183 	.globl _ADC_FIFO_H
                                    184 	.globl _ADC_FIFO_L
                                    185 	.globl _ADC_FIFO
                                    186 	.globl _ADC_CHANN
                                    187 	.globl _ADC_CTRL
                                    188 	.globl _ADC_STAT
                                    189 	.globl _ADC_CK_SE
                                    190 	.globl _ADC_DMA_CN
                                    191 	.globl _ADC_DMA_AH
                                    192 	.globl _ADC_DMA_AL
                                    193 	.globl _ADC_DMA
                                    194 	.globl _SER1_ADDR
                                    195 	.globl _SER1_MSR
                                    196 	.globl _SER1_LSR
                                    197 	.globl _SER1_MCR
                                    198 	.globl _SER1_LCR
                                    199 	.globl _SER1_IIR
                                    200 	.globl _SER1_IER
                                    201 	.globl _SER1_FIFO
                                    202 	.globl _SPI1_CK_SE
                                    203 	.globl _SPI1_CTRL
                                    204 	.globl _SPI1_DATA
                                    205 	.globl _SPI1_STAT
                                    206 	.globl _SPI0_SETUP
                                    207 	.globl _SPI0_CK_SE
                                    208 	.globl _SPI0_CTRL
                                    209 	.globl _SPI0_DATA
                                    210 	.globl _SPI0_STAT
                                    211 	.globl _PWM_CYCLE
                                    212 	.globl _PWM_CK_SE
                                    213 	.globl _PWM_CTRL
                                    214 	.globl _PWM_DATA
                                    215 	.globl _PWM_DATA2
                                    216 	.globl _T3_FIFO_H
                                    217 	.globl _T3_FIFO_L
                                    218 	.globl _T3_FIFO
                                    219 	.globl _T3_DMA_AH
                                    220 	.globl _T3_DMA_AL
                                    221 	.globl _T3_DMA
                                    222 	.globl _T3_DMA_CN
                                    223 	.globl _T3_CTRL
                                    224 	.globl _T3_STAT
                                    225 	.globl _T3_END_H
                                    226 	.globl _T3_END_L
                                    227 	.globl _T3_END
                                    228 	.globl _T3_COUNT_H
                                    229 	.globl _T3_COUNT_L
                                    230 	.globl _T3_COUNT
                                    231 	.globl _T3_SETUP
                                    232 	.globl _TH2
                                    233 	.globl _TL2
                                    234 	.globl _T2COUNT
                                    235 	.globl _RCAP2H
                                    236 	.globl _RCAP2L
                                    237 	.globl _RCAP2
                                    238 	.globl _T2MOD
                                    239 	.globl _T2CON
                                    240 	.globl _SBUF
                                    241 	.globl _SCON
                                    242 	.globl _TH1
                                    243 	.globl _TH0
                                    244 	.globl _TL1
                                    245 	.globl _TL0
                                    246 	.globl _TMOD
                                    247 	.globl _TCON
                                    248 	.globl _XBUS_SPEED
                                    249 	.globl _XBUS_AUX
                                    250 	.globl _PIN_FUNC
                                    251 	.globl _PORT_CFG
                                    252 	.globl _P5_IN
                                    253 	.globl _P4_PU
                                    254 	.globl _P4_DIR
                                    255 	.globl _P4_IN
                                    256 	.globl _P4_OUT
                                    257 	.globl _P3_PU
                                    258 	.globl _P3_DIR
                                    259 	.globl _P3
                                    260 	.globl _P2_PU
                                    261 	.globl _P2_DIR
                                    262 	.globl _P2
                                    263 	.globl _P1_PU
                                    264 	.globl _P1_DIR
                                    265 	.globl _P1_IE
                                    266 	.globl _P1
                                    267 	.globl _P0_PU
                                    268 	.globl _P0_DIR
                                    269 	.globl _P0
                                    270 	.globl _ROM_CTRL
                                    271 	.globl _ROM_DATA_H
                                    272 	.globl _ROM_DATA_L
                                    273 	.globl _ROM_DATA
                                    274 	.globl _ROM_ADDR_H
                                    275 	.globl _ROM_ADDR_L
                                    276 	.globl _ROM_ADDR
                                    277 	.globl _GPIO_IE
                                    278 	.globl _IP_EX
                                    279 	.globl _IE_EX
                                    280 	.globl _IP
                                    281 	.globl _IE
                                    282 	.globl _WDOG_COUNT
                                    283 	.globl _RESET_KEEP
                                    284 	.globl _WAKE_CTRL
                                    285 	.globl _SLEEP_CTRL
                                    286 	.globl _CLOCK_CFG
                                    287 	.globl _PLL_CFG
                                    288 	.globl _PCON
                                    289 	.globl _GLOBAL_CFG
                                    290 	.globl _SAFE_MOD
                                    291 	.globl _DPH
                                    292 	.globl _DPL
                                    293 	.globl _SP
                                    294 	.globl _B
                                    295 	.globl _ACC
                                    296 	.globl _PSW
                                    297 	.globl _pollHIDdevice_PARM_4
                                    298 	.globl _pollHIDdevice_PARM_3
                                    299 	.globl _pollHIDdevice_PARM_2
                                    300 	.globl _rootHubDevice
                                    301 	.globl _VendorProductID
                                    302 	.globl _HIDdevice
                                    303 	.globl _receiveDataBuffer
                                    304 	.globl _endpoint0Size
                                    305 	.globl _TxBuffer
                                    306 	.globl _RxBuffer
                                    307 	.globl _LED_DMA_XL
                                    308 	.globl _LED_DMA_XH
                                    309 	.globl _LED_DMA_CN
                                    310 	.globl _LED_DMA_AL
                                    311 	.globl _LED_DMA_AH
                                    312 	.globl _LED_CK_SE
                                    313 	.globl _LED_DATA
                                    314 	.globl _LED_CTRL
                                    315 	.globl _LED_STAT
                                    316 	.globl _pUEP3_DMA_L
                                    317 	.globl _pUEP3_DMA_H
                                    318 	.globl _UEP3_DMA_H
                                    319 	.globl _UEP3_DMA_L
                                    320 	.globl _UEP3_DMA
                                    321 	.globl _pUEP2_DMA_L
                                    322 	.globl _pUEP2_DMA_H
                                    323 	.globl _UEP2_DMA_H
                                    324 	.globl _UEP2_DMA_L
                                    325 	.globl _UEP2_DMA
                                    326 	.globl _pUEP1_DMA_L
                                    327 	.globl _pUEP1_DMA_H
                                    328 	.globl _UEP1_DMA_L
                                    329 	.globl _UEP1_DMA_H
                                    330 	.globl _pUEP0_DMA_L
                                    331 	.globl _pUEP0_DMA_H
                                    332 	.globl _UEP0_DMA_L
                                    333 	.globl _UEP0_DMA_H
                                    334 	.globl _UEP2_3_MOD
                                    335 	.globl _UEP4_1_MOD
                                    336 	.globl _pLED_DMA_XL
                                    337 	.globl _pLED_DMA_XH
                                    338 	.globl _pLED_DMA_CN
                                    339 	.globl _pLED_DMA_AL
                                    340 	.globl _pLED_DMA_AH
                                    341 	.globl _pLED_CK_SE
                                    342 	.globl _pLED_DATA
                                    343 	.globl _pLED_CTRL
                                    344 	.globl _pLED_STAT
                                    345 	.globl _pUEP2_3_MOD
                                    346 	.globl _pUEP4_1_MOD
                                    347 	.globl _initUSB_Host
                                    348 	.globl _resetHubDevices
                                    349 	.globl _pollHIDdevice
                                    350 	.globl _checkRootHubConnections
                                    351 ;--------------------------------------------------------
                                    352 ; special function registers
                                    353 ;--------------------------------------------------------
                                    354 	.area RSEG    (ABS,DATA)
      000000                        355 	.org 0x0000
                           0000D0   356 _PSW	=	0x00d0
                           0000E0   357 _ACC	=	0x00e0
                           0000F0   358 _B	=	0x00f0
                           000081   359 _SP	=	0x0081
                           000082   360 _DPL	=	0x0082
                           000083   361 _DPH	=	0x0083
                           0000A1   362 _SAFE_MOD	=	0x00a1
                           0000B1   363 _GLOBAL_CFG	=	0x00b1
                           000087   364 _PCON	=	0x0087
                           0000B2   365 _PLL_CFG	=	0x00b2
                           0000B3   366 _CLOCK_CFG	=	0x00b3
                           0000EA   367 _SLEEP_CTRL	=	0x00ea
                           0000EB   368 _WAKE_CTRL	=	0x00eb
                           0000FE   369 _RESET_KEEP	=	0x00fe
                           0000FF   370 _WDOG_COUNT	=	0x00ff
                           0000A8   371 _IE	=	0x00a8
                           0000B8   372 _IP	=	0x00b8
                           0000E8   373 _IE_EX	=	0x00e8
                           0000E9   374 _IP_EX	=	0x00e9
                           0000CF   375 _GPIO_IE	=	0x00cf
                           008584   376 _ROM_ADDR	=	0x8584
                           000084   377 _ROM_ADDR_L	=	0x0084
                           000085   378 _ROM_ADDR_H	=	0x0085
                           008F8E   379 _ROM_DATA	=	0x8f8e
                           00008E   380 _ROM_DATA_L	=	0x008e
                           00008F   381 _ROM_DATA_H	=	0x008f
                           000086   382 _ROM_CTRL	=	0x0086
                           000080   383 _P0	=	0x0080
                           0000C4   384 _P0_DIR	=	0x00c4
                           0000C5   385 _P0_PU	=	0x00c5
                           000090   386 _P1	=	0x0090
                           0000B9   387 _P1_IE	=	0x00b9
                           0000BA   388 _P1_DIR	=	0x00ba
                           0000BB   389 _P1_PU	=	0x00bb
                           0000A0   390 _P2	=	0x00a0
                           0000BC   391 _P2_DIR	=	0x00bc
                           0000BD   392 _P2_PU	=	0x00bd
                           0000B0   393 _P3	=	0x00b0
                           0000BE   394 _P3_DIR	=	0x00be
                           0000BF   395 _P3_PU	=	0x00bf
                           0000C0   396 _P4_OUT	=	0x00c0
                           0000C1   397 _P4_IN	=	0x00c1
                           0000C2   398 _P4_DIR	=	0x00c2
                           0000C3   399 _P4_PU	=	0x00c3
                           0000C7   400 _P5_IN	=	0x00c7
                           0000C6   401 _PORT_CFG	=	0x00c6
                           0000CE   402 _PIN_FUNC	=	0x00ce
                           0000A2   403 _XBUS_AUX	=	0x00a2
                           0000FD   404 _XBUS_SPEED	=	0x00fd
                           000088   405 _TCON	=	0x0088
                           000089   406 _TMOD	=	0x0089
                           00008A   407 _TL0	=	0x008a
                           00008B   408 _TL1	=	0x008b
                           00008C   409 _TH0	=	0x008c
                           00008D   410 _TH1	=	0x008d
                           000098   411 _SCON	=	0x0098
                           000099   412 _SBUF	=	0x0099
                           0000C8   413 _T2CON	=	0x00c8
                           0000C9   414 _T2MOD	=	0x00c9
                           00CBCA   415 _RCAP2	=	0xcbca
                           0000CA   416 _RCAP2L	=	0x00ca
                           0000CB   417 _RCAP2H	=	0x00cb
                           00CDCC   418 _T2COUNT	=	0xcdcc
                           0000CC   419 _TL2	=	0x00cc
                           0000CD   420 _TH2	=	0x00cd
                           0000A3   421 _T3_SETUP	=	0x00a3
                           00A5A4   422 _T3_COUNT	=	0xa5a4
                           0000A4   423 _T3_COUNT_L	=	0x00a4
                           0000A5   424 _T3_COUNT_H	=	0x00a5
                           00A7A6   425 _T3_END	=	0xa7a6
                           0000A6   426 _T3_END_L	=	0x00a6
                           0000A7   427 _T3_END_H	=	0x00a7
                           0000A9   428 _T3_STAT	=	0x00a9
                           0000AA   429 _T3_CTRL	=	0x00aa
                           0000AB   430 _T3_DMA_CN	=	0x00ab
                           00ADAC   431 _T3_DMA	=	0xadac
                           0000AC   432 _T3_DMA_AL	=	0x00ac
                           0000AD   433 _T3_DMA_AH	=	0x00ad
                           00AFAE   434 _T3_FIFO	=	0xafae
                           0000AE   435 _T3_FIFO_L	=	0x00ae
                           0000AF   436 _T3_FIFO_H	=	0x00af
                           00009B   437 _PWM_DATA2	=	0x009b
                           00009C   438 _PWM_DATA	=	0x009c
                           00009D   439 _PWM_CTRL	=	0x009d
                           00009E   440 _PWM_CK_SE	=	0x009e
                           00009F   441 _PWM_CYCLE	=	0x009f
                           0000F8   442 _SPI0_STAT	=	0x00f8
                           0000F9   443 _SPI0_DATA	=	0x00f9
                           0000FA   444 _SPI0_CTRL	=	0x00fa
                           0000FB   445 _SPI0_CK_SE	=	0x00fb
                           0000FC   446 _SPI0_SETUP	=	0x00fc
                           0000B4   447 _SPI1_STAT	=	0x00b4
                           0000B5   448 _SPI1_DATA	=	0x00b5
                           0000B6   449 _SPI1_CTRL	=	0x00b6
                           0000B7   450 _SPI1_CK_SE	=	0x00b7
                           00009A   451 _SER1_FIFO	=	0x009a
                           000091   452 _SER1_IER	=	0x0091
                           000092   453 _SER1_IIR	=	0x0092
                           000093   454 _SER1_LCR	=	0x0093
                           000094   455 _SER1_MCR	=	0x0094
                           000095   456 _SER1_LSR	=	0x0095
                           000096   457 _SER1_MSR	=	0x0096
                           000097   458 _SER1_ADDR	=	0x0097
                           00EDEC   459 _ADC_DMA	=	0xedec
                           0000EC   460 _ADC_DMA_AL	=	0x00ec
                           0000ED   461 _ADC_DMA_AH	=	0x00ed
                           0000EE   462 _ADC_DMA_CN	=	0x00ee
                           0000EF   463 _ADC_CK_SE	=	0x00ef
                           0000F1   464 _ADC_STAT	=	0x00f1
                           0000F2   465 _ADC_CTRL	=	0x00f2
                           0000F3   466 _ADC_CHANN	=	0x00f3
                           00F5F4   467 _ADC_FIFO	=	0xf5f4
                           0000F4   468 _ADC_FIFO_L	=	0x00f4
                           0000F5   469 _ADC_FIFO_H	=	0x00f5
                           0000F6   470 _ADC_SETUP	=	0x00f6
                           0000F7   471 _ADC_EX_SW	=	0x00f7
                           0000D1   472 _USB_RX_LEN	=	0x00d1
                           0000D2   473 _UEP1_CTRL	=	0x00d2
                           0000D3   474 _UEP1_T_LEN	=	0x00d3
                           0000D4   475 _UEP2_CTRL	=	0x00d4
                           0000D5   476 _UEP2_T_LEN	=	0x00d5
                           0000D6   477 _UEP3_CTRL	=	0x00d6
                           0000D7   478 _UEP3_T_LEN	=	0x00d7
                           0000D8   479 _USB_INT_FG	=	0x00d8
                           0000D9   480 _USB_INT_ST	=	0x00d9
                           0000DA   481 _USB_MIS_ST	=	0x00da
                           0000DB   482 _USB_HUB_ST	=	0x00db
                           0000DC   483 _UEP0_CTRL	=	0x00dc
                           0000DD   484 _UEP0_T_LEN	=	0x00dd
                           0000DE   485 _UEP4_CTRL	=	0x00de
                           0000DF   486 _UEP4_T_LEN	=	0x00df
                           0000E1   487 _USB_INT_EN	=	0x00e1
                           0000E2   488 _USB_CTRL	=	0x00e2
                           0000E3   489 _USB_DEV_AD	=	0x00e3
                           0000E4   490 _UDEV_CTRL	=	0x00e4
                           0000E5   491 _UHUB1_CTRL	=	0x00e5
                           00E7E6   492 _USB_DMA	=	0xe7e6
                           0000E6   493 _USB_DMA_AL	=	0x00e6
                           0000E7   494 _USB_DMA_AH	=	0x00e7
                                    495 ;--------------------------------------------------------
                                    496 ; special function bits
                                    497 ;--------------------------------------------------------
                                    498 	.area RSEG    (ABS,DATA)
      000000                        499 	.org 0x0000
                           0000D7   500 _CY	=	0x00d7
                           0000D6   501 _AC	=	0x00d6
                           0000D5   502 _F0	=	0x00d5
                           0000D4   503 _RS1	=	0x00d4
                           0000D3   504 _RS0	=	0x00d3
                           0000D2   505 _OV	=	0x00d2
                           0000D1   506 _F1	=	0x00d1
                           0000D0   507 _P	=	0x00d0
                           0000AF   508 _EA	=	0x00af
                           0000AE   509 _E_DIS	=	0x00ae
                           0000AD   510 _ET2	=	0x00ad
                           0000AC   511 _ES	=	0x00ac
                           0000AB   512 _ET1	=	0x00ab
                           0000AA   513 _EX1	=	0x00aa
                           0000A9   514 _ET0	=	0x00a9
                           0000A8   515 _EX0	=	0x00a8
                           0000BF   516 _PH_FLAG	=	0x00bf
                           0000BE   517 _PL_FLAG	=	0x00be
                           0000BD   518 _PT2	=	0x00bd
                           0000BC   519 _PS	=	0x00bc
                           0000BB   520 _PT1	=	0x00bb
                           0000BA   521 _PX1	=	0x00ba
                           0000B9   522 _PT0	=	0x00b9
                           0000B8   523 _PX0	=	0x00b8
                           0000EF   524 _IE_WDOG	=	0x00ef
                           0000EE   525 _IE_GPIO	=	0x00ee
                           0000ED   526 _IE_PWM1	=	0x00ed
                           0000EC   527 _IE_UART1	=	0x00ec
                           0000EB   528 _IE_ADC	=	0x00eb
                           0000EA   529 _IE_USB	=	0x00ea
                           0000E9   530 _IE_TMR3	=	0x00e9
                           0000E8   531 _IE_SPI0	=	0x00e8
                           000087   532 _UDCD	=	0x0087
                           000086   533 _URI	=	0x0086
                           000085   534 _UDSR	=	0x0085
                           000084   535 _UCTS	=	0x0084
                           000083   536 _TXD_	=	0x0083
                           000082   537 _RXD_	=	0x0082
                           000081   538 _URTS	=	0x0081
                           000080   539 _UDTR	=	0x0080
                           000097   540 _AIN7	=	0x0097
                           000096   541 _AIN6	=	0x0096
                           000095   542 _AIN5	=	0x0095
                           000094   543 _AIN4	=	0x0094
                           000093   544 _AIN3	=	0x0093
                           000092   545 _AIN2	=	0x0092
                           000091   546 _AIN1	=	0x0091
                           000090   547 _AIN0	=	0x0090
                           000097   548 _SCK	=	0x0097
                           000096   549 _MISO	=	0x0096
                           000095   550 _MOSI	=	0x0095
                           000094   551 _SCS	=	0x0094
                           000092   552 _PWM3	=	0x0092
                           000092   553 _CAP3	=	0x0092
                           000091   554 _T2EX	=	0x0091
                           000091   555 _CAP2	=	0x0091
                           000090   556 _T2	=	0x0090
                           000090   557 _CAP1	=	0x0090
                           0000A7   558 _TXD1	=	0x00a7
                           0000A7   559 _DA7	=	0x00a7
                           0000A6   560 _RXD1	=	0x00a6
                           0000A5   561 _TNOW	=	0x00a5
                           0000A5   562 _PWM2	=	0x00a5
                           0000A5   563 _T2EX_	=	0x00a5
                           0000A5   564 _CAP2_	=	0x00a5
                           0000A4   565 _PWM1	=	0x00a4
                           0000A3   566 _SCK1	=	0x00a3
                           0000A2   567 _MISO1	=	0x00a2
                           0000A1   568 _MOSI1	=	0x00a1
                           0000B7   569 _RD	=	0x00b7
                           0000B6   570 _WR	=	0x00b6
                           0000B5   571 _DA6	=	0x00b5
                           0000B5   572 _T1	=	0x00b5
                           0000B4   573 _LEDC	=	0x00b4
                           0000B4   574 _XCS0	=	0x00b4
                           0000B4   575 _T0	=	0x00b4
                           0000B3   576 _LED1	=	0x00b3
                           0000B3   577 _INT1	=	0x00b3
                           0000B2   578 _LED0	=	0x00b2
                           0000B2   579 _INT0	=	0x00b2
                           0000B1   580 _TXD	=	0x00b1
                           0000B0   581 _RXD	=	0x00b0
                           0000C7   582 _SCK_	=	0x00c7
                           0000C6   583 _SCS_	=	0x00c6
                           0000C5   584 _PWM2_	=	0x00c5
                           0000C4   585 _LED3	=	0x00c4
                           0000C4   586 _TNOW_	=	0x00c4
                           0000C4   587 _TXD1_	=	0x00c4
                           0000C3   588 _PWM1_	=	0x00c3
                           0000C2   589 _PWM3_	=	0x00c2
                           0000C2   590 _CAP3_	=	0x00c2
                           0000C0   591 _LED2	=	0x00c0
                           0000C0   592 _RXD1_	=	0x00c0
                           00008F   593 _TF1	=	0x008f
                           00008E   594 _TR1	=	0x008e
                           00008D   595 _TF0	=	0x008d
                           00008C   596 _TR0	=	0x008c
                           00008B   597 _IE1	=	0x008b
                           00008A   598 _IT1	=	0x008a
                           000089   599 _IE0	=	0x0089
                           000088   600 _IT0	=	0x0088
                           00009F   601 _SM0	=	0x009f
                           00009E   602 _SM1	=	0x009e
                           00009D   603 _SM2	=	0x009d
                           00009C   604 _REN	=	0x009c
                           00009B   605 _TB8	=	0x009b
                           00009A   606 _RB8	=	0x009a
                           000099   607 _TI	=	0x0099
                           000098   608 _RI	=	0x0098
                           0000CF   609 _TF2	=	0x00cf
                           0000CF   610 _CAP1F	=	0x00cf
                           0000CE   611 _EXF2	=	0x00ce
                           0000CD   612 _RCLK	=	0x00cd
                           0000CC   613 _TCLK	=	0x00cc
                           0000CB   614 _EXEN2	=	0x00cb
                           0000CA   615 _TR2	=	0x00ca
                           0000C9   616 _C_T2	=	0x00c9
                           0000C8   617 _CP_RL2	=	0x00c8
                           0000FF   618 _S0_FST_ACT	=	0x00ff
                           0000FE   619 _S0_IF_OV	=	0x00fe
                           0000FD   620 _S0_IF_FIRST	=	0x00fd
                           0000FC   621 _S0_IF_BYTE	=	0x00fc
                           0000FB   622 _S0_FREE	=	0x00fb
                           0000FA   623 _S0_T_FIFO	=	0x00fa
                           0000F9   624 _S0_R_FIFO1	=	0x00f9
                           0000F8   625 _S0_R_FIFO0	=	0x00f8
                           0000DF   626 _U_IS_NAK	=	0x00df
                           0000DE   627 _U_TOG_OK	=	0x00de
                           0000DD   628 _U_SIE_FREE	=	0x00dd
                           0000DC   629 _UIF_FIFO_OV	=	0x00dc
                           0000DB   630 _UIF_HST_SOF	=	0x00db
                           0000DA   631 _UIF_SUSPEND	=	0x00da
                           0000D9   632 _UIF_TRANSFER	=	0x00d9
                           0000D8   633 _UIF_DETECT	=	0x00d8
                           0000D8   634 _UIF_BUS_RST	=	0x00d8
                                    635 ;--------------------------------------------------------
                                    636 ; overlayable register banks
                                    637 ;--------------------------------------------------------
                                    638 	.area REG_BANK_0	(REL,OVR,DATA)
      000000                        639 	.ds 8
                                    640 ;--------------------------------------------------------
                                    641 ; internal ram data
                                    642 ;--------------------------------------------------------
                                    643 	.area DSEG    (DATA)
      000000                        644 _hostTransfer_sloc0_1_0:
      000000                        645 	.ds 2
      000002                        646 _hostTransfer_sloc1_1_0:
      000002                        647 	.ds 1
      000003                        648 _hostTransfer_sloc2_1_0:
      000003                        649 	.ds 1
      000004                        650 _hostCtrlTransfer_sloc0_1_0:
      000004                        651 	.ds 2
      000006                        652 _pollHIDdevice_sloc0_1_0:
      000006                        653 	.ds 3
      000009                        654 _parseHIDDeviceReport_sloc0_1_0:
      000009                        655 	.ds 2
      00000B                        656 _parseHIDDeviceReport_sloc1_1_0:
      00000B                        657 	.ds 2
      00000D                        658 _parseHIDDeviceReport_sloc2_1_0:
      00000D                        659 	.ds 2
      00000F                        660 _parseHIDDeviceReport_sloc3_1_0:
      00000F                        661 	.ds 1
      000010                        662 _parseHIDDeviceReport_sloc4_1_0:
      000010                        663 	.ds 2
      000012                        664 _parseHIDDeviceReport_sloc5_1_0:
      000012                        665 	.ds 2
      000014                        666 _parseHIDDeviceReport_sloc6_1_0:
      000014                        667 	.ds 2
      000016                        668 _parseHIDDeviceReport_sloc7_1_0:
      000016                        669 	.ds 1
      000017                        670 _parseHIDDeviceReport_sloc8_1_0:
      000017                        671 	.ds 4
      00001B                        672 _parseHIDDeviceReport_sloc9_1_0:
      00001B                        673 	.ds 3
      00001E                        674 _parseHIDDeviceReport_sloc10_1_0:
      00001E                        675 	.ds 2
      000020                        676 _initializeRootHubConnection_sloc0_1_0:
      000020                        677 	.ds 2
      000022                        678 _initializeRootHubConnection_sloc1_1_0:
      000022                        679 	.ds 1
      000023                        680 _initializeRootHubConnection_sloc2_1_0:
      000023                        681 	.ds 1
      000024                        682 _initializeRootHubConnection_sloc3_1_0:
      000024                        683 	.ds 1
      000025                        684 _initializeRootHubConnection_sloc4_1_0:
      000025                        685 	.ds 1
      000026                        686 _initializeRootHubConnection_sloc5_1_0:
      000026                        687 	.ds 2
      000028                        688 _initializeRootHubConnection_sloc6_1_0:
      000028                        689 	.ds 2
      00002A                        690 _initializeRootHubConnection_sloc7_1_0:
      00002A                        691 	.ds 1
      00002B                        692 _initializeRootHubConnection_sloc8_1_0:
      00002B                        693 	.ds 2
                                    694 ;--------------------------------------------------------
                                    695 ; overlayable items in internal ram
                                    696 ;--------------------------------------------------------
                                    697 	.area	OSEG    (OVR,DATA)
      000000                        698 _extract_field_sloc0_1_0:
      000000                        699 	.ds 3
      000003                        700 _extract_field_sloc1_1_0:
      000003                        701 	.ds 4
      000007                        702 _extract_field_sloc2_1_0:
      000007                        703 	.ds 4
                                    704 	.area	OSEG    (OVR,DATA)
      000000                        705 _convertStringDescriptor_sloc0_1_0:
      000000                        706 	.ds 2
      000002                        707 _convertStringDescriptor_sloc1_1_0:
      000002                        708 	.ds 2
      000004                        709 _convertStringDescriptor_sloc2_1_0:
      000004                        710 	.ds 2
      000006                        711 _convertStringDescriptor_sloc3_1_0:
      000006                        712 	.ds 2
                                    713 ;--------------------------------------------------------
                                    714 ; indirectly addressable internal ram data
                                    715 ;--------------------------------------------------------
                                    716 	.area ISEG    (DATA)
                                    717 ;--------------------------------------------------------
                                    718 ; absolute internal ram data
                                    719 ;--------------------------------------------------------
                                    720 	.area IABS    (ABS,DATA)
                                    721 	.area IABS    (ABS,DATA)
                                    722 ;--------------------------------------------------------
                                    723 ; bit data
                                    724 ;--------------------------------------------------------
                                    725 	.area BSEG    (BIT)
      000000                        726 _hostCtrlTransfer_sloc1_1_0:
      000000                        727 	.ds 1
                                    728 ;--------------------------------------------------------
                                    729 ; paged external ram data
                                    730 ;--------------------------------------------------------
                                    731 	.area PSEG    (PAG,XDATA)
                           002546   732 _pUEP4_1_MOD	=	0x2546
                           002547   733 _pUEP2_3_MOD	=	0x2547
                           002980   734 _pLED_STAT	=	0x2980
                           002981   735 _pLED_CTRL	=	0x2981
                           002982   736 _pLED_DATA	=	0x2982
                           002983   737 _pLED_CK_SE	=	0x2983
                           002984   738 _pLED_DMA_AH	=	0x2984
                           002985   739 _pLED_DMA_AL	=	0x2985
                           002986   740 _pLED_DMA_CN	=	0x2986
                           002988   741 _pLED_DMA_XH	=	0x2988
                           002989   742 _pLED_DMA_XL	=	0x2989
                                    743 ;--------------------------------------------------------
                                    744 ; external ram data
                                    745 ;--------------------------------------------------------
                                    746 	.area XSEG    (XDATA)
                           002446   747 _UEP4_1_MOD	=	0x2446
                           002447   748 _UEP2_3_MOD	=	0x2447
                           002448   749 _UEP0_DMA_H	=	0x2448
                           002449   750 _UEP0_DMA_L	=	0x2449
                           002548   751 _pUEP0_DMA_H	=	0x2548
                           002549   752 _pUEP0_DMA_L	=	0x2549
                           00244A   753 _UEP1_DMA_H	=	0x244a
                           00244B   754 _UEP1_DMA_L	=	0x244b
                           00254A   755 _pUEP1_DMA_H	=	0x254a
                           00254B   756 _pUEP1_DMA_L	=	0x254b
                           00244C   757 _UEP2_DMA	=	0x244c
                           00244D   758 _UEP2_DMA_L	=	0x244d
                           00244C   759 _UEP2_DMA_H	=	0x244c
                           00254C   760 _pUEP2_DMA_H	=	0x254c
                           00254D   761 _pUEP2_DMA_L	=	0x254d
                           00244E   762 _UEP3_DMA	=	0x244e
                           00244F   763 _UEP3_DMA_L	=	0x244f
                           00244E   764 _UEP3_DMA_H	=	0x244e
                           00254E   765 _pUEP3_DMA_H	=	0x254e
                           00254F   766 _pUEP3_DMA_L	=	0x254f
                           002880   767 _LED_STAT	=	0x2880
                           002881   768 _LED_CTRL	=	0x2881
                           002882   769 _LED_DATA	=	0x2882
                           002883   770 _LED_CK_SE	=	0x2883
                           002884   771 _LED_DMA_AH	=	0x2884
                           002885   772 _LED_DMA_AL	=	0x2885
                           002886   773 _LED_DMA_CN	=	0x2886
                           002888   774 _LED_DMA_XH	=	0x2888
                           002889   775 _LED_DMA_XL	=	0x2889
                           000000   776 _RxBuffer	=	0x0000
                           000100   777 _TxBuffer	=	0x0100
      000000                        778 _endpoint0Size::
      000000                        779 	.ds 1
      000001                        780 _receiveDataBuffer::
      000001                        781 	.ds 512
      000201                        782 _HIDdevice::
      000201                        783 	.ds 176
      0002B1                        784 _VendorProductID::
      0002B1                        785 	.ds 32
      0002D1                        786 _rootHubDevice::
      0002D1                        787 	.ds 6
      0002D7                        788 _extract_field_PARM_2:
      0002D7                        789 	.ds 2
      0002D9                        790 _extract_field_PARM_3:
      0002D9                        791 	.ds 1
      0002DA                        792 _extract_field_PARM_4:
      0002DA                        793 	.ds 1
      0002DB                        794 _extract_field_report_65536_44:
      0002DB                        795 	.ds 3
      0002DE                        796 _extract_field_value_65536_45:
      0002DE                        797 	.ds 4
      0002E2                        798 _extract_field_bit_pos_65536_45:
      0002E2                        799 	.ds 1
      0002E3                        800 _extract_field_bits_left_65536_45:
      0002E3                        801 	.ds 1
      0002E4                        802 _disableRootHubPort_index_65536_49:
      0002E4                        803 	.ds 1
      0002E5                        804 _setHostUsbAddr_addr_65536_52:
      0002E5                        805 	.ds 1
      0002E6                        806 _setUsbSpeed_fullSpeed_65536_54:
      0002E6                        807 	.ds 1
      0002E7                        808 _resetRootHubPort_rootHubIndex_65536_58:
      0002E7                        809 	.ds 1
      0002E8                        810 _enableRootHubPort_rootHubIndex_65536_62:
      0002E8                        811 	.ds 1
      0002E9                        812 _selectHubPort_PARM_2:
      0002E9                        813 	.ds 1
      0002EA                        814 _selectHubPort_rootHubIndex_65536_75:
      0002EA                        815 	.ds 1
      0002EB                        816 _hostTransfer_PARM_2:
      0002EB                        817 	.ds 1
      0002EC                        818 _hostTransfer_PARM_3:
      0002EC                        819 	.ds 2
      0002EE                        820 _hostTransfer_endp_pid_65536_77:
      0002EE                        821 	.ds 1
      0002EF                        822 _hostTransfer_retries_65536_78:
      0002EF                        823 	.ds 2
      0002F1                        824 _hostCtrlTransfer_PARM_2:
      0002F1                        825 	.ds 3
      0002F4                        826 _hostCtrlTransfer_PARM_3:
      0002F4                        827 	.ds 2
      0002F6                        828 _hostCtrlTransfer_DataBuf_65536_101:
      0002F6                        829 	.ds 2
      0002F8                        830 _hostCtrlTransfer_SetPort_65536_102:
      0002F8                        831 	.ds 1
      0002F9                        832 _hostCtrlTransfer_RemLen_65536_102:
      0002F9                        833 	.ds 2
      0002FB                        834 _hostCtrlTransfer_pBuf_65536_102:
      0002FB                        835 	.ds 2
      0002FD                        836 _fillTxBuffer_PARM_2:
      0002FD                        837 	.ds 1
      0002FE                        838 _fillTxBuffer_data_65536_122:
      0002FE                        839 	.ds 2
      000300                        840 _getDeviceDescriptor_len_65536_126:
      000300                        841 	.ds 2
      000302                        842 _setUsbAddress_addr_65536_129:
      000302                        843 	.ds 1
      000303                        844 _setUsbConfig_cfg_65536_132:
      000303                        845 	.ds 1
      000304                        846 _convertStringDescriptor_PARM_2:
      000304                        847 	.ds 2
      000306                        848 _convertStringDescriptor_PARM_3:
      000306                        849 	.ds 2
      000308                        850 _convertStringDescriptor_PARM_4:
      000308                        851 	.ds 1
      000309                        852 _convertStringDescriptor_usbBuffer_65536_135:
      000309                        853 	.ds 2
      00030B                        854 _DEBUG_OUT_USB_BUFFER_usbBuffer_65536_142:
      00030B                        855 	.ds 2
      00030D                        856 _getConfigurationDescriptor_len_65536_146:
      00030D                        857 	.ds 2
      00030F                        858 _resetHubDevices_hubindex_65536_150:
      00030F                        859 	.ds 1
      000310                        860 _pollHIDdevice_PARM_2:
      000310                        861 	.ds 3
      000313                        862 _pollHIDdevice_PARM_3:
      000313                        863 	.ds 3
      000316                        864 _pollHIDdevice_PARM_4:
      000316                        865 	.ds 3
      000319                        866 _pollHIDdevice_buttons_65536_155:
      000319                        867 	.ds 3
      00031C                        868 _pollHIDdevice_len_65536_156:
      00031C                        869 	.ds 1
      00031D                        870 _pollHIDdevice_report_65536_156:
      00031D                        871 	.ds 2
      00031F                        872 _parseHIDDeviceReport_PARM_2:
      00031F                        873 	.ds 2
      000321                        874 _parseHIDDeviceReport_PARM_3:
      000321                        875 	.ds 1
      000322                        876 _parseHIDDeviceReport_report_65536_169:
      000322                        877 	.ds 2
      000324                        878 _parseHIDDeviceReport_i_65536_170:
      000324                        879 	.ds 2
      000326                        880 _parseHIDDeviceReport_level_65536_170:
      000326                        881 	.ds 1
      000327                        882 _parseHIDDeviceReport_isUsageSet_65536_170:
      000327                        883 	.ds 1
      000328                        884 _parseHIDDeviceReport_tag_65536_170:
      000328                        885 	.ds 1
      000329                        886 _parseHIDDeviceReport_tag_size_65536_170:
      000329                        887 	.ds 1
      00032A                        888 _parseHIDDeviceReport_data_65536_170:
      00032A                        889 	.ds 4
      00032E                        890 _parseHIDDeviceReport_usage_page_65536_170:
      00032E                        891 	.ds 4
      000332                        892 _parseHIDDeviceReport_usageX_65536_170:
      000332                        893 	.ds 4
      000336                        894 _parseHIDDeviceReport_usageY_65536_170:
      000336                        895 	.ds 4
      00033A                        896 _parseHIDDeviceReport_usageW_65536_170:
      00033A                        897 	.ds 4
      00033E                        898 _parseHIDDeviceReport_report_size_65536_170:
      00033E                        899 	.ds 1
      00033F                        900 _parseHIDDeviceReport_report_count_65536_170:
      00033F                        901 	.ds 1
      000340                        902 _parseHIDDeviceReport_current_bit_offset_65536_170:
      000340                        903 	.ds 2
      000342                        904 _parseHIDDeviceReport_used_reports_65536_170:
      000342                        905 	.ds 1
      000343                        906 _getHIDDeviceReport_CurrentDevice_65536_195:
      000343                        907 	.ds 1
      000344                        908 _getHIDDeviceReport_len_65536_196:
      000344                        909 	.ds 2
      000346                        910 _readInterface_PARM_2:
      000346                        911 	.ds 2
      000348                        912 _readHIDInterface_PARM_2:
      000348                        913 	.ds 2
      00034A                        914 _initializeRootHubConnection_rootHubIndex_65536_204:
      00034A                        915 	.ds 1
      00034B                        916 _initializeRootHubConnection_res_65536_205:
      00034B                        917 	.ds 1
      00034C                        918 _initializeRootHubConnection_i_458752_216:
      00034C                        919 	.ds 2
      00034E                        920 _initializeRootHubConnection_temp_458752_216:
      00034E                        921 	.ds 512
      00054E                        922 _initializeRootHubConnection_currentInterface_458752_216:
      00054E                        923 	.ds 2
      000550                        924 _initializeRootHubConnection_desc_524288_221:
      000550                        925 	.ds 2
      000552                        926 _checkRootHubConnections_res_65536_228:
      000552                        927 	.ds 1
                                    928 ;--------------------------------------------------------
                                    929 ; absolute external ram data
                                    930 ;--------------------------------------------------------
                                    931 	.area XABS    (ABS,XDATA)
                                    932 ;--------------------------------------------------------
                                    933 ; external initialized ram data
                                    934 ;--------------------------------------------------------
                                    935 	.area XISEG   (XDATA)
                                    936 	.area HOME    (CODE)
                                    937 	.area GSINIT0 (CODE)
                                    938 	.area GSINIT1 (CODE)
                                    939 	.area GSINIT2 (CODE)
                                    940 	.area GSINIT3 (CODE)
                                    941 	.area GSINIT4 (CODE)
                                    942 	.area GSINIT5 (CODE)
                                    943 	.area GSINIT  (CODE)
                                    944 	.area GSFINAL (CODE)
                                    945 	.area CSEG    (CODE)
                                    946 ;--------------------------------------------------------
                                    947 ; global & static initialisations
                                    948 ;--------------------------------------------------------
                                    949 	.area HOME    (CODE)
                                    950 	.area GSINIT  (CODE)
                                    951 	.area GSFINAL (CODE)
                                    952 	.area GSINIT  (CODE)
                                    953 ;------------------------------------------------------------
                                    954 ;Allocation info for local variables in function 'hostCtrlTransfer'
                                    955 ;------------------------------------------------------------
                                    956 ;sloc0                     Allocated with name '_hostCtrlTransfer_sloc0_1_0'
                                    957 ;RetLen                    Allocated with name '_hostCtrlTransfer_PARM_2'
                                    958 ;maxLength                 Allocated with name '_hostCtrlTransfer_PARM_3'
                                    959 ;DataBuf                   Allocated with name '_hostCtrlTransfer_DataBuf_65536_101'
                                    960 ;SetPort                   Allocated with name '_hostCtrlTransfer_SetPort_65536_102'
                                    961 ;RemLen                    Allocated with name '_hostCtrlTransfer_RemLen_65536_102'
                                    962 ;res                       Allocated with name '_hostCtrlTransfer_res_65536_102'
                                    963 ;RxLen                     Allocated with name '_hostCtrlTransfer_RxLen_65536_102'
                                    964 ;i                         Allocated with name '_hostCtrlTransfer_i_65536_102'
                                    965 ;pBuf                      Allocated with name '_hostCtrlTransfer_pBuf_65536_102'
                                    966 ;pLen                      Allocated with name '_hostCtrlTransfer_pLen_65536_102'
                                    967 ;pSetupReq                 Allocated with name '_hostCtrlTransfer_pSetupReq_65537_103'
                                    968 ;------------------------------------------------------------
                                    969 ;	USBHost.c:340: static uint8_t SetPort = 0;
      000000 90r02rF8         [24]  970 	mov	dptr,#_hostCtrlTransfer_SetPort_65536_102
      000003 E4               [12]  971 	clr	a
      000004 F0               [24]  972 	movx	@dptr,a
                                    973 ;--------------------------------------------------------
                                    974 ; Home
                                    975 ;--------------------------------------------------------
                                    976 	.area HOME    (CODE)
                                    977 	.area HOME    (CODE)
                                    978 ;--------------------------------------------------------
                                    979 ; code
                                    980 ;--------------------------------------------------------
                                    981 	.area CSEG    (CODE)
                                    982 ;------------------------------------------------------------
                                    983 ;Allocation info for local variables in function 'extract_field'
                                    984 ;------------------------------------------------------------
                                    985 ;bit_offset                Allocated with name '_extract_field_PARM_2'
                                    986 ;bit_size                  Allocated with name '_extract_field_PARM_3'
                                    987 ;is_signed                 Allocated with name '_extract_field_PARM_4'
                                    988 ;report                    Allocated with name '_extract_field_report_65536_44'
                                    989 ;value                     Allocated with name '_extract_field_value_65536_45'
                                    990 ;sign                      Allocated with name '_extract_field_sign_65536_45'
                                    991 ;byte_pos                  Allocated with name '_extract_field_byte_pos_65536_45'
                                    992 ;bit_pos                   Allocated with name '_extract_field_bit_pos_65536_45'
                                    993 ;bits_left                 Allocated with name '_extract_field_bits_left_65536_45'
                                    994 ;bits_in_byte              Allocated with name '_extract_field_bits_in_byte_65536_45'
                                    995 ;bits_to_read              Allocated with name '_extract_field_bits_to_read_65536_45'
                                    996 ;mask                      Allocated with name '_extract_field_mask_65536_45'
                                    997 ;sloc0                     Allocated with name '_extract_field_sloc0_1_0'
                                    998 ;sloc1                     Allocated with name '_extract_field_sloc1_1_0'
                                    999 ;sloc2                     Allocated with name '_extract_field_sloc2_1_0'
                                   1000 ;------------------------------------------------------------
                                   1001 ;	USBHost.c:113: static int32_t extract_field(uint8_t *report, uint16_t bit_offset, uint8_t bit_size, uint8_t is_signed)
                                   1002 ;	-----------------------------------------
                                   1003 ;	 function extract_field
                                   1004 ;	-----------------------------------------
      000000                       1005 _extract_field:
                           000007  1006 	ar7 = 0x07
                           000006  1007 	ar6 = 0x06
                           000005  1008 	ar5 = 0x05
                           000004  1009 	ar4 = 0x04
                           000003  1010 	ar3 = 0x03
                           000002  1011 	ar2 = 0x02
                           000001  1012 	ar1 = 0x01
                           000000  1013 	ar0 = 0x00
      000000 AF F0            [24] 1014 	mov	r7,b
      000002 AE 83            [24] 1015 	mov	r6,dph
      000004 E5 82            [12] 1016 	mov	a,dpl
      000006 90r02rDB         [24] 1017 	mov	dptr,#_extract_field_report_65536_44
      000009 F0               [24] 1018 	movx	@dptr,a
      00000A EE               [12] 1019 	mov	a,r6
      00000B A3               [24] 1020 	inc	dptr
      00000C F0               [24] 1021 	movx	@dptr,a
      00000D EF               [12] 1022 	mov	a,r7
      00000E A3               [24] 1023 	inc	dptr
      00000F F0               [24] 1024 	movx	@dptr,a
                                   1025 ;	USBHost.c:115: __xdata uint32_t value = 0;
      000010 90r02rDE         [24] 1026 	mov	dptr,#_extract_field_value_65536_45
      000013 E4               [12] 1027 	clr	a
      000014 F0               [24] 1028 	movx	@dptr,a
      000015 A3               [24] 1029 	inc	dptr
      000016 F0               [24] 1030 	movx	@dptr,a
      000017 A3               [24] 1031 	inc	dptr
      000018 F0               [24] 1032 	movx	@dptr,a
      000019 A3               [24] 1033 	inc	dptr
      00001A F0               [24] 1034 	movx	@dptr,a
                                   1035 ;	USBHost.c:117: __xdata uint16_t byte_pos = bit_offset >> 3;
      00001B 90r02rD7         [24] 1036 	mov	dptr,#_extract_field_PARM_2
      00001E E0               [24] 1037 	movx	a,@dptr
      00001F FE               [12] 1038 	mov	r6,a
      000020 A3               [24] 1039 	inc	dptr
      000021 E0               [24] 1040 	movx	a,@dptr
      000022 8E 04            [24] 1041 	mov	ar4,r6
      000024 C4               [12] 1042 	swap	a
      000025 23               [12] 1043 	rl	a
      000026 CC               [12] 1044 	xch	a,r4
      000027 C4               [12] 1045 	swap	a
      000028 23               [12] 1046 	rl	a
      000029 54 1F            [12] 1047 	anl	a,#0x1f
      00002B 6C               [12] 1048 	xrl	a,r4
      00002C CC               [12] 1049 	xch	a,r4
      00002D 54 1F            [12] 1050 	anl	a,#0x1f
      00002F CC               [12] 1051 	xch	a,r4
      000030 6C               [12] 1052 	xrl	a,r4
      000031 CC               [12] 1053 	xch	a,r4
      000032 FD               [12] 1054 	mov	r5,a
                                   1055 ;	USBHost.c:118: __xdata uint8_t bit_pos = bit_offset % 8;
      000033 53 06 07         [24] 1056 	anl	ar6,#0x07
      000036 90r02rE2         [24] 1057 	mov	dptr,#_extract_field_bit_pos_65536_45
      000039 EE               [12] 1058 	mov	a,r6
      00003A F0               [24] 1059 	movx	@dptr,a
                                   1060 ;	USBHost.c:119: __xdata uint8_t bits_left = bit_size;
      00003B 90r02rD9         [24] 1061 	mov	dptr,#_extract_field_PARM_3
      00003E E0               [24] 1062 	movx	a,@dptr
      00003F FF               [12] 1063 	mov	r7,a
      000040 90r02rE3         [24] 1064 	mov	dptr,#_extract_field_bits_left_65536_45
      000043 F0               [24] 1065 	movx	@dptr,a
                                   1066 ;	USBHost.c:124: while (bits_left > 0) {
      000044 90r02rDB         [24] 1067 	mov	dptr,#_extract_field_report_65536_44
      000047 E0               [24] 1068 	movx	a,@dptr
      000048 F5*00            [12] 1069 	mov	_extract_field_sloc0_1_0,a
      00004A A3               [24] 1070 	inc	dptr
      00004B E0               [24] 1071 	movx	a,@dptr
      00004C F5*01            [12] 1072 	mov	(_extract_field_sloc0_1_0 + 1),a
      00004E A3               [24] 1073 	inc	dptr
      00004F E0               [24] 1074 	movx	a,@dptr
      000050 F5*02            [12] 1075 	mov	(_extract_field_sloc0_1_0 + 2),a
      000052                       1076 00101$:
      000052 90r02rE3         [24] 1077 	mov	dptr,#_extract_field_bits_left_65536_45
      000055 E0               [24] 1078 	movx	a,@dptr
      000056 F9               [12] 1079 	mov	r1,a
      000057 70 03            [24] 1080 	jnz	00143$
      000059 02r01r45         [24] 1081 	ljmp	00103$
      00005C                       1082 00143$:
                                   1083 ;	USBHost.c:125: bits_in_byte = 8 - bit_pos;
      00005C 90r02rE2         [24] 1084 	mov	dptr,#_extract_field_bit_pos_65536_45
      00005F E0               [24] 1085 	movx	a,@dptr
      000060 F8               [12] 1086 	mov	r0,a
      000061 74 08            [12] 1087 	mov	a,#0x08
      000063 C3               [12] 1088 	clr	c
      000064 98               [12] 1089 	subb	a,r0
                                   1090 ;	USBHost.c:126: bits_to_read = (bits_left < bits_in_byte) ? bits_left : bits_in_byte;
      000065 F8               [12] 1091 	mov	r0,a
      000066 FE               [12] 1092 	mov	r6,a
      000067 C3               [12] 1093 	clr	c
      000068 E9               [12] 1094 	mov	a,r1
      000069 9E               [12] 1095 	subb	a,r6
      00006A 40 02            [24] 1096 	jc	00113$
      00006C 88 01            [24] 1097 	mov	ar1,r0
      00006E                       1098 00113$:
                                   1099 ;	USBHost.c:127: mask = (1UL << bits_to_read) - 1;
      00006E 89 F0            [24] 1100 	mov	b,r1
      000070 05 F0            [12] 1101 	inc	b
      000072 78 01            [12] 1102 	mov	r0,#0x01
      000074 7A 00            [12] 1103 	mov	r2,#0x00
      000076 7B 00            [12] 1104 	mov	r3,#0x00
      000078 7E 00            [12] 1105 	mov	r6,#0x00
      00007A 80 0C            [24] 1106 	sjmp	00146$
      00007C                       1107 00145$:
      00007C E8               [12] 1108 	mov	a,r0
      00007D 28               [12] 1109 	add	a,r0
      00007E F8               [12] 1110 	mov	r0,a
      00007F EA               [12] 1111 	mov	a,r2
      000080 33               [12] 1112 	rlc	a
      000081 FA               [12] 1113 	mov	r2,a
      000082 EB               [12] 1114 	mov	a,r3
      000083 33               [12] 1115 	rlc	a
      000084 FB               [12] 1116 	mov	r3,a
      000085 EE               [12] 1117 	mov	a,r6
      000086 33               [12] 1118 	rlc	a
      000087 FE               [12] 1119 	mov	r6,a
      000088                       1120 00146$:
      000088 D5 F0 F1         [24] 1121 	djnz	b,00145$
      00008B E8               [12] 1122 	mov	a,r0
      00008C 24 FF            [12] 1123 	add	a,#0xff
      00008E F5*03            [12] 1124 	mov	_extract_field_sloc1_1_0,a
      000090 EA               [12] 1125 	mov	a,r2
      000091 34 FF            [12] 1126 	addc	a,#0xff
      000093 F5*04            [12] 1127 	mov	(_extract_field_sloc1_1_0 + 1),a
      000095 EB               [12] 1128 	mov	a,r3
      000096 34 FF            [12] 1129 	addc	a,#0xff
      000098 F5*05            [12] 1130 	mov	(_extract_field_sloc1_1_0 + 2),a
      00009A EE               [12] 1131 	mov	a,r6
      00009B 34 FF            [12] 1132 	addc	a,#0xff
      00009D F5*06            [12] 1133 	mov	(_extract_field_sloc1_1_0 + 3),a
                                   1134 ;	USBHost.c:128: value |= (((uint32_t )report[byte_pos] >> bit_pos) & mask) << (bit_size - bits_left);
      00009F EC               [12] 1135 	mov	a,r4
      0000A0 25*00            [12] 1136 	add	a,_extract_field_sloc0_1_0
      0000A2 FA               [12] 1137 	mov	r2,a
      0000A3 ED               [12] 1138 	mov	a,r5
      0000A4 35*01            [12] 1139 	addc	a,(_extract_field_sloc0_1_0 + 1)
      0000A6 FB               [12] 1140 	mov	r3,a
      0000A7 AE*02            [24] 1141 	mov	r6,(_extract_field_sloc0_1_0 + 2)
      0000A9 8A 82            [24] 1142 	mov	dpl,r2
      0000AB 8B 83            [24] 1143 	mov	dph,r3
      0000AD 8E F0            [24] 1144 	mov	b,r6
      0000AF 12r00r00         [24] 1145 	lcall	__gptrget
      0000B2 FA               [12] 1146 	mov	r2,a
      0000B3 8A*07            [24] 1147 	mov	_extract_field_sloc2_1_0,r2
      0000B5 75*08 00         [24] 1148 	mov	(_extract_field_sloc2_1_0 + 1),#0x00
      0000B8 75*09 00         [24] 1149 	mov	(_extract_field_sloc2_1_0 + 2),#0x00
      0000BB 75*0A 00         [24] 1150 	mov	(_extract_field_sloc2_1_0 + 3),#0x00
      0000BE 90r02rE2         [24] 1151 	mov	dptr,#_extract_field_bit_pos_65536_45
      0000C1 E0               [24] 1152 	movx	a,@dptr
      0000C2 FE               [12] 1153 	mov	r6,a
      0000C3 8E F0            [24] 1154 	mov	b,r6
      0000C5 05 F0            [12] 1155 	inc	b
      0000C7 A8*07            [24] 1156 	mov	r0,_extract_field_sloc2_1_0
      0000C9 AA*08            [24] 1157 	mov	r2,(_extract_field_sloc2_1_0 + 1)
      0000CB AB*09            [24] 1158 	mov	r3,(_extract_field_sloc2_1_0 + 2)
      0000CD AE*0A            [24] 1159 	mov	r6,(_extract_field_sloc2_1_0 + 3)
      0000CF 80 0D            [24] 1160 	sjmp	00148$
      0000D1                       1161 00147$:
      0000D1 C3               [12] 1162 	clr	c
      0000D2 EE               [12] 1163 	mov	a,r6
      0000D3 13               [12] 1164 	rrc	a
      0000D4 FE               [12] 1165 	mov	r6,a
      0000D5 EB               [12] 1166 	mov	a,r3
      0000D6 13               [12] 1167 	rrc	a
      0000D7 FB               [12] 1168 	mov	r3,a
      0000D8 EA               [12] 1169 	mov	a,r2
      0000D9 13               [12] 1170 	rrc	a
      0000DA FA               [12] 1171 	mov	r2,a
      0000DB E8               [12] 1172 	mov	a,r0
      0000DC 13               [12] 1173 	rrc	a
      0000DD F8               [12] 1174 	mov	r0,a
      0000DE                       1175 00148$:
      0000DE D5 F0 F0         [24] 1176 	djnz	b,00147$
      0000E1 E5*03            [12] 1177 	mov	a,_extract_field_sloc1_1_0
      0000E3 58               [12] 1178 	anl	a,r0
      0000E4 F5*07            [12] 1179 	mov	_extract_field_sloc2_1_0,a
      0000E6 E5*04            [12] 1180 	mov	a,(_extract_field_sloc1_1_0 + 1)
      0000E8 5A               [12] 1181 	anl	a,r2
      0000E9 F5*08            [12] 1182 	mov	(_extract_field_sloc2_1_0 + 1),a
      0000EB E5*05            [12] 1183 	mov	a,(_extract_field_sloc1_1_0 + 2)
      0000ED 5B               [12] 1184 	anl	a,r3
      0000EE F5*09            [12] 1185 	mov	(_extract_field_sloc2_1_0 + 2),a
      0000F0 E5*06            [12] 1186 	mov	a,(_extract_field_sloc1_1_0 + 3)
      0000F2 5E               [12] 1187 	anl	a,r6
      0000F3 F5*0A            [12] 1188 	mov	(_extract_field_sloc2_1_0 + 3),a
      0000F5 90r02rE3         [24] 1189 	mov	dptr,#_extract_field_bits_left_65536_45
      0000F8 E0               [24] 1190 	movx	a,@dptr
      0000F9 FE               [12] 1191 	mov	r6,a
      0000FA EF               [12] 1192 	mov	a,r7
      0000FB C3               [12] 1193 	clr	c
      0000FC 9E               [12] 1194 	subb	a,r6
      0000FD FB               [12] 1195 	mov	r3,a
      0000FE C0 07            [24] 1196 	push	ar7
      000100 8B F0            [24] 1197 	mov	b,r3
      000102 05 F0            [12] 1198 	inc	b
      000104 A8*07            [24] 1199 	mov	r0,_extract_field_sloc2_1_0
      000106 AA*08            [24] 1200 	mov	r2,(_extract_field_sloc2_1_0 + 1)
      000108 AB*09            [24] 1201 	mov	r3,(_extract_field_sloc2_1_0 + 2)
      00010A AF*0A            [24] 1202 	mov	r7,(_extract_field_sloc2_1_0 + 3)
      00010C 80 0C            [24] 1203 	sjmp	00150$
      00010E                       1204 00149$:
      00010E E8               [12] 1205 	mov	a,r0
      00010F 28               [12] 1206 	add	a,r0
      000110 F8               [12] 1207 	mov	r0,a
      000111 EA               [12] 1208 	mov	a,r2
      000112 33               [12] 1209 	rlc	a
      000113 FA               [12] 1210 	mov	r2,a
      000114 EB               [12] 1211 	mov	a,r3
      000115 33               [12] 1212 	rlc	a
      000116 FB               [12] 1213 	mov	r3,a
      000117 EF               [12] 1214 	mov	a,r7
      000118 33               [12] 1215 	rlc	a
      000119 FF               [12] 1216 	mov	r7,a
      00011A                       1217 00150$:
      00011A D5 F0 F1         [24] 1218 	djnz	b,00149$
      00011D 90r02rDE         [24] 1219 	mov	dptr,#_extract_field_value_65536_45
      000120 E0               [24] 1220 	movx	a,@dptr
      000121 48               [12] 1221 	orl	a,r0
      000122 F0               [24] 1222 	movx	@dptr,a
      000123 A3               [24] 1223 	inc	dptr
      000124 E0               [24] 1224 	movx	a,@dptr
      000125 4A               [12] 1225 	orl	a,r2
      000126 F0               [24] 1226 	movx	@dptr,a
      000127 A3               [24] 1227 	inc	dptr
      000128 E0               [24] 1228 	movx	a,@dptr
      000129 4B               [12] 1229 	orl	a,r3
      00012A F0               [24] 1230 	movx	@dptr,a
      00012B A3               [24] 1231 	inc	dptr
      00012C E0               [24] 1232 	movx	a,@dptr
      00012D 4F               [12] 1233 	orl	a,r7
      00012E F0               [24] 1234 	movx	@dptr,a
                                   1235 ;	USBHost.c:129: bits_left -= bits_to_read;
      00012F 90r02rE3         [24] 1236 	mov	dptr,#_extract_field_bits_left_65536_45
      000132 EE               [12] 1237 	mov	a,r6
      000133 C3               [12] 1238 	clr	c
      000134 99               [12] 1239 	subb	a,r1
      000135 F0               [24] 1240 	movx	@dptr,a
                                   1241 ;	USBHost.c:130: bit_pos = 0;
      000136 90r02rE2         [24] 1242 	mov	dptr,#_extract_field_bit_pos_65536_45
      000139 E4               [12] 1243 	clr	a
      00013A F0               [24] 1244 	movx	@dptr,a
                                   1245 ;	USBHost.c:131: byte_pos++;
      00013B 0C               [12] 1246 	inc	r4
      00013C BC 00 01         [24] 1247 	cjne	r4,#0x00,00151$
      00013F 0D               [12] 1248 	inc	r5
      000140                       1249 00151$:
      000140 D0 07            [24] 1250 	pop	ar7
      000142 02r00r52         [24] 1251 	ljmp	00101$
      000145                       1252 00103$:
                                   1253 ;	USBHost.c:134: if (is_signed && bit_size > 0 && bit_size < 32) {
      000145 90r02rDA         [24] 1254 	mov	dptr,#_extract_field_PARM_4
      000148 E0               [24] 1255 	movx	a,@dptr
      000149 70 03            [24] 1256 	jnz	00152$
      00014B 02r01rF0         [24] 1257 	ljmp	00107$
      00014E                       1258 00152$:
      00014E EF               [12] 1259 	mov	a,r7
      00014F 70 03            [24] 1260 	jnz	00153$
      000151 02r01rF0         [24] 1261 	ljmp	00107$
      000154                       1262 00153$:
      000154 BF 20 00         [24] 1263 	cjne	r7,#0x20,00154$
      000157                       1264 00154$:
      000157 40 03            [24] 1265 	jc	00155$
      000159 02r01rF0         [24] 1266 	ljmp	00107$
      00015C                       1267 00155$:
                                   1268 ;	USBHost.c:135: sign = 1UL << (bit_size - 1);
      00015C EF               [12] 1269 	mov	a,r7
      00015D 14               [12] 1270 	dec	a
      00015E FE               [12] 1271 	mov	r6,a
      00015F 8E F0            [24] 1272 	mov	b,r6
      000161 05 F0            [12] 1273 	inc	b
      000163 7E 01            [12] 1274 	mov	r6,#0x01
      000165 7D 00            [12] 1275 	mov	r5,#0x00
      000167 7C 00            [12] 1276 	mov	r4,#0x00
      000169 7B 00            [12] 1277 	mov	r3,#0x00
      00016B 80 0C            [24] 1278 	sjmp	00157$
      00016D                       1279 00156$:
      00016D EE               [12] 1280 	mov	a,r6
      00016E 2E               [12] 1281 	add	a,r6
      00016F FE               [12] 1282 	mov	r6,a
      000170 ED               [12] 1283 	mov	a,r5
      000171 33               [12] 1284 	rlc	a
      000172 FD               [12] 1285 	mov	r5,a
      000173 EC               [12] 1286 	mov	a,r4
      000174 33               [12] 1287 	rlc	a
      000175 FC               [12] 1288 	mov	r4,a
      000176 EB               [12] 1289 	mov	a,r3
      000177 33               [12] 1290 	rlc	a
      000178 FB               [12] 1291 	mov	r3,a
      000179                       1292 00157$:
      000179 D5 F0 F1         [24] 1293 	djnz	b,00156$
                                   1294 ;	USBHost.c:136: if (value & sign) {
      00017C 90r02rDE         [24] 1295 	mov	dptr,#_extract_field_value_65536_45
      00017F E0               [24] 1296 	movx	a,@dptr
      000180 F5*07            [12] 1297 	mov	_extract_field_sloc2_1_0,a
      000182 A3               [24] 1298 	inc	dptr
      000183 E0               [24] 1299 	movx	a,@dptr
      000184 F5*08            [12] 1300 	mov	(_extract_field_sloc2_1_0 + 1),a
      000186 A3               [24] 1301 	inc	dptr
      000187 E0               [24] 1302 	movx	a,@dptr
      000188 F5*09            [12] 1303 	mov	(_extract_field_sloc2_1_0 + 2),a
      00018A A3               [24] 1304 	inc	dptr
      00018B E0               [24] 1305 	movx	a,@dptr
      00018C F5*0A            [12] 1306 	mov	(_extract_field_sloc2_1_0 + 3),a
      00018E E5*07            [12] 1307 	mov	a,_extract_field_sloc2_1_0
      000190 52 06            [12] 1308 	anl	ar6,a
      000192 E5*08            [12] 1309 	mov	a,(_extract_field_sloc2_1_0 + 1)
      000194 52 05            [12] 1310 	anl	ar5,a
      000196 E5*09            [12] 1311 	mov	a,(_extract_field_sloc2_1_0 + 2)
      000198 52 04            [12] 1312 	anl	ar4,a
      00019A E5*0A            [12] 1313 	mov	a,(_extract_field_sloc2_1_0 + 3)
      00019C 52 03            [12] 1314 	anl	ar3,a
      00019E EE               [12] 1315 	mov	a,r6
      00019F 4D               [12] 1316 	orl	a,r5
      0001A0 4C               [12] 1317 	orl	a,r4
      0001A1 4B               [12] 1318 	orl	a,r3
      0001A2 60 4C            [24] 1319 	jz	00107$
                                   1320 ;	USBHost.c:137: value |= ~((1UL << bit_size) - 1);
      0001A4 8F F0            [24] 1321 	mov	b,r7
      0001A6 05 F0            [12] 1322 	inc	b
      0001A8 7F 01            [12] 1323 	mov	r7,#0x01
      0001AA 7E 00            [12] 1324 	mov	r6,#0x00
      0001AC 7D 00            [12] 1325 	mov	r5,#0x00
      0001AE 7C 00            [12] 1326 	mov	r4,#0x00
      0001B0 80 0C            [24] 1327 	sjmp	00160$
      0001B2                       1328 00159$:
      0001B2 EF               [12] 1329 	mov	a,r7
      0001B3 2F               [12] 1330 	add	a,r7
      0001B4 FF               [12] 1331 	mov	r7,a
      0001B5 EE               [12] 1332 	mov	a,r6
      0001B6 33               [12] 1333 	rlc	a
      0001B7 FE               [12] 1334 	mov	r6,a
      0001B8 ED               [12] 1335 	mov	a,r5
      0001B9 33               [12] 1336 	rlc	a
      0001BA FD               [12] 1337 	mov	r5,a
      0001BB EC               [12] 1338 	mov	a,r4
      0001BC 33               [12] 1339 	rlc	a
      0001BD FC               [12] 1340 	mov	r4,a
      0001BE                       1341 00160$:
      0001BE D5 F0 F1         [24] 1342 	djnz	b,00159$
      0001C1 1F               [12] 1343 	dec	r7
      0001C2 BF FF 09         [24] 1344 	cjne	r7,#0xff,00161$
      0001C5 1E               [12] 1345 	dec	r6
      0001C6 BE FF 05         [24] 1346 	cjne	r6,#0xff,00161$
      0001C9 1D               [12] 1347 	dec	r5
      0001CA BD FF 01         [24] 1348 	cjne	r5,#0xff,00161$
      0001CD 1C               [12] 1349 	dec	r4
      0001CE                       1350 00161$:
      0001CE EF               [12] 1351 	mov	a,r7
      0001CF F4               [12] 1352 	cpl	a
      0001D0 FF               [12] 1353 	mov	r7,a
      0001D1 EE               [12] 1354 	mov	a,r6
      0001D2 F4               [12] 1355 	cpl	a
      0001D3 FE               [12] 1356 	mov	r6,a
      0001D4 ED               [12] 1357 	mov	a,r5
      0001D5 F4               [12] 1358 	cpl	a
      0001D6 FD               [12] 1359 	mov	r5,a
      0001D7 EC               [12] 1360 	mov	a,r4
      0001D8 F4               [12] 1361 	cpl	a
      0001D9 FC               [12] 1362 	mov	r4,a
      0001DA 90r02rDE         [24] 1363 	mov	dptr,#_extract_field_value_65536_45
      0001DD EF               [12] 1364 	mov	a,r7
      0001DE 45*07            [12] 1365 	orl	a,_extract_field_sloc2_1_0
      0001E0 F0               [24] 1366 	movx	@dptr,a
      0001E1 EE               [12] 1367 	mov	a,r6
      0001E2 45*08            [12] 1368 	orl	a,(_extract_field_sloc2_1_0 + 1)
      0001E4 A3               [24] 1369 	inc	dptr
      0001E5 F0               [24] 1370 	movx	@dptr,a
      0001E6 ED               [12] 1371 	mov	a,r5
      0001E7 45*09            [12] 1372 	orl	a,(_extract_field_sloc2_1_0 + 2)
      0001E9 A3               [24] 1373 	inc	dptr
      0001EA F0               [24] 1374 	movx	@dptr,a
      0001EB EC               [12] 1375 	mov	a,r4
      0001EC 45*0A            [12] 1376 	orl	a,(_extract_field_sloc2_1_0 + 3)
      0001EE A3               [24] 1377 	inc	dptr
      0001EF F0               [24] 1378 	movx	@dptr,a
      0001F0                       1379 00107$:
                                   1380 ;	USBHost.c:141: return (int32_t)value;
      0001F0 90r02rDE         [24] 1381 	mov	dptr,#_extract_field_value_65536_45
      0001F3 E0               [24] 1382 	movx	a,@dptr
      0001F4 FC               [12] 1383 	mov	r4,a
      0001F5 A3               [24] 1384 	inc	dptr
      0001F6 E0               [24] 1385 	movx	a,@dptr
      0001F7 FD               [12] 1386 	mov	r5,a
      0001F8 A3               [24] 1387 	inc	dptr
      0001F9 E0               [24] 1388 	movx	a,@dptr
      0001FA FE               [12] 1389 	mov	r6,a
      0001FB A3               [24] 1390 	inc	dptr
      0001FC E0               [24] 1391 	movx	a,@dptr
      0001FD 8C 82            [24] 1392 	mov	dpl,r4
      0001FF 8D 83            [24] 1393 	mov	dph,r5
      000201 8E F0            [24] 1394 	mov	b,r6
                                   1395 ;	USBHost.c:142: }
      000203 22               [24] 1396 	ret
                                   1397 ;------------------------------------------------------------
                                   1398 ;Allocation info for local variables in function 'disableRootHubPort'
                                   1399 ;------------------------------------------------------------
                                   1400 ;index                     Allocated with name '_disableRootHubPort_index_65536_49'
                                   1401 ;------------------------------------------------------------
                                   1402 ;	USBHost.c:144: static void disableRootHubPort(uint8_t index)
                                   1403 ;	-----------------------------------------
                                   1404 ;	 function disableRootHubPort
                                   1405 ;	-----------------------------------------
      000204                       1406 _disableRootHubPort:
      000204 E5 82            [12] 1407 	mov	a,dpl
      000206 90r02rE4         [24] 1408 	mov	dptr,#_disableRootHubPort_index_65536_49
      000209 F0               [24] 1409 	movx	@dptr,a
                                   1410 ;	USBHost.c:146: rootHubDevice[index].status = ROOT_DEVICE_DISCONNECT;
      00020A E0               [24] 1411 	movx	a,@dptr
      00020B FF               [12] 1412 	mov	r7,a
      00020C 75 F0 03         [24] 1413 	mov	b,#0x03
      00020F A4               [48] 1414 	mul	ab
      000210 FD               [12] 1415 	mov	r5,a
      000211 AE F0            [24] 1416 	mov	r6,b
      000213 24rD1            [12] 1417 	add	a,#_rootHubDevice
      000215 F5 82            [12] 1418 	mov	dpl,a
      000217 EE               [12] 1419 	mov	a,r6
      000218 34s02            [12] 1420 	addc	a,#(_rootHubDevice >> 8)
      00021A F5 83            [12] 1421 	mov	dph,a
      00021C E4               [12] 1422 	clr	a
      00021D F0               [24] 1423 	movx	@dptr,a
                                   1424 ;	USBHost.c:147: rootHubDevice[index].address = 0;
      00021E ED               [12] 1425 	mov	a,r5
      00021F 24rD1            [12] 1426 	add	a,#_rootHubDevice
      000221 FD               [12] 1427 	mov	r5,a
      000222 EE               [12] 1428 	mov	a,r6
      000223 34s02            [12] 1429 	addc	a,#(_rootHubDevice >> 8)
      000225 FE               [12] 1430 	mov	r6,a
      000226 8D 82            [24] 1431 	mov	dpl,r5
      000228 8E 83            [24] 1432 	mov	dph,r6
      00022A A3               [24] 1433 	inc	dptr
      00022B E4               [12] 1434 	clr	a
      00022C F0               [24] 1435 	movx	@dptr,a
                                   1436 ;	USBHost.c:148: if (index)
      00022D EF               [12] 1437 	mov	a,r7
      00022E 60 04            [24] 1438 	jz	00102$
                                   1439 ;	USBHost.c:149: UHUB1_CTRL = 0;
      000230 75 E5 00         [24] 1440 	mov	_UHUB1_CTRL,#0x00
      000233 22               [24] 1441 	ret
      000234                       1442 00102$:
                                   1443 ;	USBHost.c:151: UHUB0_CTRL = 0;
      000234 75 E4 00         [24] 1444 	mov	_UDEV_CTRL,#0x00
                                   1445 ;	USBHost.c:152: }
      000237 22               [24] 1446 	ret
                                   1447 ;------------------------------------------------------------
                                   1448 ;Allocation info for local variables in function 'initUSB_Host'
                                   1449 ;------------------------------------------------------------
                                   1450 ;	USBHost.c:154: void initUSB_Host()
                                   1451 ;	-----------------------------------------
                                   1452 ;	 function initUSB_Host
                                   1453 ;	-----------------------------------------
      000238                       1454 _initUSB_Host:
                                   1455 ;	USBHost.c:156: IE_USB = 0;
                                   1456 ;	assignBit
      000238 C2 EA            [12] 1457 	clr	_IE_USB
                                   1458 ;	USBHost.c:157: USB_CTRL = bUC_HOST_MODE;
      00023A 75 E2 80         [24] 1459 	mov	_USB_CTRL,#0x80
                                   1460 ;	USBHost.c:158: USB_DEV_AD = 0x00;
      00023D 75 E3 00         [24] 1461 	mov	_USB_DEV_AD,#0x00
                                   1462 ;	USBHost.c:159: UH_EP_MOD = bUH_EP_TX_EN | bUH_EP_RX_EN;
      000240 90 24 47         [24] 1463 	mov	dptr,#_UEP2_3_MOD
      000243 74 48            [12] 1464 	mov	a,#0x48
      000245 F0               [24] 1465 	movx	@dptr,a
                                   1466 ;	USBHost.c:160: UH_RX_DMA = 0x0000;
      000246 90 24 4C         [24] 1467 	mov	dptr,#_UEP2_DMA
      000249 E4               [12] 1468 	clr	a
      00024A F0               [24] 1469 	movx	@dptr,a
      00024B A3               [24] 1470 	inc	dptr
      00024C F0               [24] 1471 	movx	@dptr,a
                                   1472 ;	USBHost.c:161: UH_TX_DMA = 0x0001;
      00024D 90 24 4E         [24] 1473 	mov	dptr,#_UEP3_DMA
      000250 04               [12] 1474 	inc	a
      000251 F0               [24] 1475 	movx	@dptr,a
      000252 E4               [12] 1476 	clr	a
      000253 A3               [24] 1477 	inc	dptr
      000254 F0               [24] 1478 	movx	@dptr,a
                                   1479 ;	USBHost.c:162: UH_RX_CTRL = 0x00;
                                   1480 ;	1-genFromRTrack replaced	mov	_UEP2_CTRL,#0x00
      000255 F5 D4            [12] 1481 	mov	_UEP2_CTRL,a
                                   1482 ;	USBHost.c:163: UH_TX_CTRL = 0x00;
                                   1483 ;	1-genFromRTrack replaced	mov	_UEP3_CTRL,#0x00
      000257 F5 D6            [12] 1484 	mov	_UEP3_CTRL,a
                                   1485 ;	USBHost.c:164: USB_CTRL = bUC_HOST_MODE | bUC_INT_BUSY | bUC_DMA_EN;
      000259 75 E2 89         [24] 1486 	mov	_USB_CTRL,#0x89
                                   1487 ;	USBHost.c:165: UH_SETUP = bUH_SOF_EN;
      00025C 75 D2 40         [24] 1488 	mov	_UEP1_CTRL,#0x40
                                   1489 ;	USBHost.c:166: USB_INT_FG = 0xFF;
      00025F 75 D8 FF         [24] 1490 	mov	_USB_INT_FG,#0xff
                                   1491 ;	USBHost.c:168: disableRootHubPort(0);
      000262 75 82 00         [24] 1492 	mov	dpl,#0x00
      000265 12r02r04         [24] 1493 	lcall	_disableRootHubPort
                                   1494 ;	USBHost.c:169: disableRootHubPort(1);
      000268 75 82 01         [24] 1495 	mov	dpl,#0x01
      00026B 12r02r04         [24] 1496 	lcall	_disableRootHubPort
                                   1497 ;	USBHost.c:170: USB_INT_EN = bUIE_TRANSFER | bUIE_DETECT;
      00026E 75 E1 03         [24] 1498 	mov	_USB_INT_EN,#0x03
                                   1499 ;	USBHost.c:171: }
      000271 22               [24] 1500 	ret
                                   1501 ;------------------------------------------------------------
                                   1502 ;Allocation info for local variables in function 'setHostUsbAddr'
                                   1503 ;------------------------------------------------------------
                                   1504 ;addr                      Allocated with name '_setHostUsbAddr_addr_65536_52'
                                   1505 ;------------------------------------------------------------
                                   1506 ;	USBHost.c:173: static void setHostUsbAddr(uint8_t addr)
                                   1507 ;	-----------------------------------------
                                   1508 ;	 function setHostUsbAddr
                                   1509 ;	-----------------------------------------
      000272                       1510 _setHostUsbAddr:
      000272 E5 82            [12] 1511 	mov	a,dpl
      000274 90r02rE5         [24] 1512 	mov	dptr,#_setHostUsbAddr_addr_65536_52
      000277 F0               [24] 1513 	movx	@dptr,a
                                   1514 ;	USBHost.c:175: USB_DEV_AD = USB_DEV_AD & bUDA_GP_BIT | addr & 0x7F;
      000278 E5 E3            [12] 1515 	mov	a,_USB_DEV_AD
      00027A 54 80            [12] 1516 	anl	a,#0x80
      00027C FF               [12] 1517 	mov	r7,a
      00027D E0               [24] 1518 	movx	a,@dptr
      00027E 54 7F            [12] 1519 	anl	a,#0x7f
      000280 4F               [12] 1520 	orl	a,r7
      000281 F5 E3            [12] 1521 	mov	_USB_DEV_AD,a
                                   1522 ;	USBHost.c:176: }
      000283 22               [24] 1523 	ret
                                   1524 ;------------------------------------------------------------
                                   1525 ;Allocation info for local variables in function 'setUsbSpeed'
                                   1526 ;------------------------------------------------------------
                                   1527 ;fullSpeed                 Allocated with name '_setUsbSpeed_fullSpeed_65536_54'
                                   1528 ;------------------------------------------------------------
                                   1529 ;	USBHost.c:178: static void setUsbSpeed(uint8_t fullSpeed)
                                   1530 ;	-----------------------------------------
                                   1531 ;	 function setUsbSpeed
                                   1532 ;	-----------------------------------------
      000284                       1533 _setUsbSpeed:
      000284 E5 82            [12] 1534 	mov	a,dpl
      000286 90r02rE6         [24] 1535 	mov	dptr,#_setUsbSpeed_fullSpeed_65536_54
      000289 F0               [24] 1536 	movx	@dptr,a
                                   1537 ;	USBHost.c:180: if (fullSpeed) {
      00028A E0               [24] 1538 	movx	a,@dptr
      00028B 60 07            [24] 1539 	jz	00102$
                                   1540 ;	USBHost.c:181: USB_CTRL &= ~bUC_LOW_SPEED;
      00028D 53 E2 BF         [24] 1541 	anl	_USB_CTRL,#0xbf
                                   1542 ;	USBHost.c:182: UH_SETUP &= ~bUH_PRE_PID_EN;
      000290 53 D2 7F         [24] 1543 	anl	_UEP1_CTRL,#0x7f
      000293 22               [24] 1544 	ret
      000294                       1545 00102$:
                                   1546 ;	USBHost.c:184: USB_CTRL |= bUC_LOW_SPEED;
      000294 43 E2 40         [24] 1547 	orl	_USB_CTRL,#0x40
                                   1548 ;	USBHost.c:186: }
      000297 22               [24] 1549 	ret
                                   1550 ;------------------------------------------------------------
                                   1551 ;Allocation info for local variables in function 'resetRootHubPort'
                                   1552 ;------------------------------------------------------------
                                   1553 ;rootHubIndex              Allocated with name '_resetRootHubPort_rootHubIndex_65536_58'
                                   1554 ;------------------------------------------------------------
                                   1555 ;	USBHost.c:188: static void resetRootHubPort(uint8_t rootHubIndex)
                                   1556 ;	-----------------------------------------
                                   1557 ;	 function resetRootHubPort
                                   1558 ;	-----------------------------------------
      000298                       1559 _resetRootHubPort:
      000298 E5 82            [12] 1560 	mov	a,dpl
      00029A 90r02rE7         [24] 1561 	mov	dptr,#_resetRootHubPort_rootHubIndex_65536_58
      00029D F0               [24] 1562 	movx	@dptr,a
                                   1563 ;	USBHost.c:190: endpoint0Size = DEFAULT_ENDP0_SIZE; // todo what's that?
      00029E 90r00r00         [24] 1564 	mov	dptr,#_endpoint0Size
      0002A1 74 08            [12] 1565 	mov	a,#0x08
      0002A3 F0               [24] 1566 	movx	@dptr,a
                                   1567 ;	USBHost.c:191: setHostUsbAddr(0);
      0002A4 75 82 00         [24] 1568 	mov	dpl,#0x00
      0002A7 12r02r72         [24] 1569 	lcall	_setHostUsbAddr
                                   1570 ;	USBHost.c:192: setUsbSpeed(1);
      0002AA 75 82 01         [24] 1571 	mov	dpl,#0x01
      0002AD 12r02r84         [24] 1572 	lcall	_setUsbSpeed
                                   1573 ;	USBHost.c:194: if (rootHubIndex == 0) {
      0002B0 90r02rE7         [24] 1574 	mov	dptr,#_resetRootHubPort_rootHubIndex_65536_58
      0002B3 E0               [24] 1575 	movx	a,@dptr
      0002B4 FF               [12] 1576 	mov	r7,a
      0002B5 E0               [24] 1577 	movx	a,@dptr
      0002B6 70 13            [24] 1578 	jnz	00104$
                                   1579 ;	USBHost.c:195: UHUB0_CTRL = UHUB0_CTRL & ~bUH_LOW_SPEED | bUH_BUS_RESET;
      0002B8 74 FB            [12] 1580 	mov	a,#0xfb
      0002BA 55 E4            [12] 1581 	anl	a,_UDEV_CTRL
      0002BC 44 02            [12] 1582 	orl	a,#0x02
      0002BE F5 E4            [12] 1583 	mov	_UDEV_CTRL,a
                                   1584 ;	USBHost.c:196: delay(15);
      0002C0 90 00 0F         [24] 1585 	mov	dptr,#0x000f
      0002C3 12r00r00         [24] 1586 	lcall	_delay
                                   1587 ;	USBHost.c:197: UHUB0_CTRL = UHUB0_CTRL & ~bUH_BUS_RESET;
      0002C6 53 E4 FD         [24] 1588 	anl	_UDEV_CTRL,#0xfd
      0002C9 80 14            [24] 1589 	sjmp	00105$
      0002CB                       1590 00104$:
                                   1591 ;	USBHost.c:198: } else if (rootHubIndex == 1) {
      0002CB BF 01 11         [24] 1592 	cjne	r7,#0x01,00105$
                                   1593 ;	USBHost.c:199: UHUB1_CTRL = UHUB1_CTRL & ~bUH_LOW_SPEED | bUH_BUS_RESET;
      0002CE 74 FB            [12] 1594 	mov	a,#0xfb
      0002D0 55 E5            [12] 1595 	anl	a,_UHUB1_CTRL
      0002D2 44 02            [12] 1596 	orl	a,#0x02
      0002D4 F5 E5            [12] 1597 	mov	_UHUB1_CTRL,a
                                   1598 ;	USBHost.c:200: delay(15);
      0002D6 90 00 0F         [24] 1599 	mov	dptr,#0x000f
      0002D9 12r00r00         [24] 1600 	lcall	_delay
                                   1601 ;	USBHost.c:201: UHUB1_CTRL = UHUB1_CTRL & ~bUH_BUS_RESET;
      0002DC 53 E5 FD         [24] 1602 	anl	_UHUB1_CTRL,#0xfd
      0002DF                       1603 00105$:
                                   1604 ;	USBHost.c:204: delayUs(250);
      0002DF 90 00 FA         [24] 1605 	mov	dptr,#0x00fa
      0002E2 12r00r00         [24] 1606 	lcall	_delayUs
                                   1607 ;	USBHost.c:205: UIF_DETECT = 0; // todo test if redundant
                                   1608 ;	assignBit
      0002E5 C2 D8            [12] 1609 	clr	_UIF_DETECT
                                   1610 ;	USBHost.c:206: }
      0002E7 22               [24] 1611 	ret
                                   1612 ;------------------------------------------------------------
                                   1613 ;Allocation info for local variables in function 'enableRootHubPort'
                                   1614 ;------------------------------------------------------------
                                   1615 ;rootHubIndex              Allocated with name '_enableRootHubPort_rootHubIndex_65536_62'
                                   1616 ;------------------------------------------------------------
                                   1617 ;	USBHost.c:208: static uint8_t enableRootHubPort(uint8_t rootHubIndex)
                                   1618 ;	-----------------------------------------
                                   1619 ;	 function enableRootHubPort
                                   1620 ;	-----------------------------------------
      0002E8                       1621 _enableRootHubPort:
      0002E8 E5 82            [12] 1622 	mov	a,dpl
      0002EA 90r02rE8         [24] 1623 	mov	dptr,#_enableRootHubPort_rootHubIndex_65536_62
      0002ED F0               [24] 1624 	movx	@dptr,a
                                   1625 ;	USBHost.c:210: if (rootHubDevice[rootHubIndex].status < 1) {
      0002EE E0               [24] 1626 	movx	a,@dptr
      0002EF 75 F0 03         [24] 1627 	mov	b,#0x03
      0002F2 A4               [48] 1628 	mul	ab
      0002F3 24rD1            [12] 1629 	add	a,#_rootHubDevice
      0002F5 FE               [12] 1630 	mov	r6,a
      0002F6 74s02            [12] 1631 	mov	a,#(_rootHubDevice >> 8)
      0002F8 35 F0            [12] 1632 	addc	a,b
      0002FA FF               [12] 1633 	mov	r7,a
      0002FB 8E 82            [24] 1634 	mov	dpl,r6
      0002FD 8F 83            [24] 1635 	mov	dph,r7
      0002FF E0               [24] 1636 	movx	a,@dptr
      000300 FD               [12] 1637 	mov	r5,a
      000301 BD 01 00         [24] 1638 	cjne	r5,#0x01,00160$
      000304                       1639 00160$:
      000304 50 07            [24] 1640 	jnc	00102$
                                   1641 ;	USBHost.c:211: rootHubDevice[rootHubIndex].status = 1;
      000306 8E 82            [24] 1642 	mov	dpl,r6
      000308 8F 83            [24] 1643 	mov	dph,r7
      00030A 74 01            [12] 1644 	mov	a,#0x01
      00030C F0               [24] 1645 	movx	@dptr,a
      00030D                       1646 00102$:
                                   1647 ;	USBHost.c:214: if (rootHubIndex == 0) {
      00030D 90r02rE8         [24] 1648 	mov	dptr,#_enableRootHubPort_rootHubIndex_65536_62
      000310 E0               [24] 1649 	movx	a,@dptr
      000311 FF               [12] 1650 	mov	r7,a
      000312 70 49            [24] 1651 	jnz	00120$
                                   1652 ;	USBHost.c:215: if (USB_HUB_ST & bUHS_H0_ATTACH) {
      000314 E5 DB            [12] 1653 	mov	a,_USB_HUB_ST
      000316 20 E3 03         [24] 1654 	jb	acc.3,00163$
      000319 02r03rA6         [24] 1655 	ljmp	00121$
      00031C                       1656 00163$:
                                   1657 ;	USBHost.c:216: if ((UHUB0_CTRL & bUH_PORT_EN) == 0x00) {
      00031C E5 E4            [12] 1658 	mov	a,_UDEV_CTRL
      00031E 20 E0 35         [24] 1659 	jb	acc.0,00107$
                                   1660 ;	USBHost.c:217: if (USB_HUB_ST & bUHS_DM_LEVEL) {
      000321 E5 DB            [12] 1661 	mov	a,_USB_HUB_ST
      000323 30 E2 1A         [24] 1662 	jnb	acc.2,00104$
                                   1663 ;	USBHost.c:218: rootHubDevice[rootHubIndex].speed = 0;
      000326 EF               [12] 1664 	mov	a,r7
      000327 75 F0 03         [24] 1665 	mov	b,#0x03
      00032A A4               [48] 1666 	mul	ab
      00032B 24rD1            [12] 1667 	add	a,#_rootHubDevice
      00032D FD               [12] 1668 	mov	r5,a
      00032E 74s02            [12] 1669 	mov	a,#(_rootHubDevice >> 8)
      000330 35 F0            [12] 1670 	addc	a,b
      000332 FE               [12] 1671 	mov	r6,a
      000333 8D 82            [24] 1672 	mov	dpl,r5
      000335 8E 83            [24] 1673 	mov	dph,r6
      000337 A3               [24] 1674 	inc	dptr
      000338 A3               [24] 1675 	inc	dptr
      000339 E4               [12] 1676 	clr	a
      00033A F0               [24] 1677 	movx	@dptr,a
                                   1678 ;	USBHost.c:219: UHUB0_CTRL |= bUH_LOW_SPEED;
      00033B 43 E4 04         [24] 1679 	orl	_UDEV_CTRL,#0x04
      00033E 80 16            [24] 1680 	sjmp	00107$
      000340                       1681 00104$:
                                   1682 ;	USBHost.c:221: rootHubDevice[rootHubIndex].speed = 1;
      000340 EF               [12] 1683 	mov	a,r7
      000341 75 F0 03         [24] 1684 	mov	b,#0x03
      000344 A4               [48] 1685 	mul	ab
      000345 24rD1            [12] 1686 	add	a,#_rootHubDevice
      000347 FD               [12] 1687 	mov	r5,a
      000348 74s02            [12] 1688 	mov	a,#(_rootHubDevice >> 8)
      00034A 35 F0            [12] 1689 	addc	a,b
      00034C FE               [12] 1690 	mov	r6,a
      00034D 8D 82            [24] 1691 	mov	dpl,r5
      00034F 8E 83            [24] 1692 	mov	dph,r6
      000351 A3               [24] 1693 	inc	dptr
      000352 A3               [24] 1694 	inc	dptr
      000353 74 01            [12] 1695 	mov	a,#0x01
      000355 F0               [24] 1696 	movx	@dptr,a
      000356                       1697 00107$:
                                   1698 ;	USBHost.c:224: UHUB0_CTRL |= bUH_PORT_EN;
      000356 43 E4 01         [24] 1699 	orl	_UDEV_CTRL,#0x01
                                   1700 ;	USBHost.c:225: return ERR_SUCCESS;
      000359 75 82 00         [24] 1701 	mov	dpl,#0x00
      00035C 22               [24] 1702 	ret
      00035D                       1703 00120$:
                                   1704 ;	USBHost.c:227: } else if (rootHubIndex == 1) {
      00035D BF 01 46         [24] 1705 	cjne	r7,#0x01,00121$
                                   1706 ;	USBHost.c:228: if (USB_HUB_ST & bUHS_H1_ATTACH) {
      000360 E5 DB            [12] 1707 	mov	a,_USB_HUB_ST
      000362 30 E7 41         [24] 1708 	jnb	acc.7,00121$
                                   1709 ;	USBHost.c:229: if ((UHUB1_CTRL & bUH_PORT_EN) == 0x00) {
      000365 E5 E5            [12] 1710 	mov	a,_UHUB1_CTRL
      000367 20 E0 35         [24] 1711 	jb	acc.0,00114$
                                   1712 ;	USBHost.c:230: if (USB_HUB_ST & bUHS_HM_LEVEL) {
      00036A E5 DB            [12] 1713 	mov	a,_USB_HUB_ST
      00036C 30 E6 1A         [24] 1714 	jnb	acc.6,00111$
                                   1715 ;	USBHost.c:231: rootHubDevice[rootHubIndex].speed = 0;
      00036F EF               [12] 1716 	mov	a,r7
      000370 75 F0 03         [24] 1717 	mov	b,#0x03
      000373 A4               [48] 1718 	mul	ab
      000374 24rD1            [12] 1719 	add	a,#_rootHubDevice
      000376 FD               [12] 1720 	mov	r5,a
      000377 74s02            [12] 1721 	mov	a,#(_rootHubDevice >> 8)
      000379 35 F0            [12] 1722 	addc	a,b
      00037B FE               [12] 1723 	mov	r6,a
      00037C 8D 82            [24] 1724 	mov	dpl,r5
      00037E 8E 83            [24] 1725 	mov	dph,r6
      000380 A3               [24] 1726 	inc	dptr
      000381 A3               [24] 1727 	inc	dptr
      000382 E4               [12] 1728 	clr	a
      000383 F0               [24] 1729 	movx	@dptr,a
                                   1730 ;	USBHost.c:232: UHUB1_CTRL |= bUH_LOW_SPEED;
      000384 43 E5 04         [24] 1731 	orl	_UHUB1_CTRL,#0x04
      000387 80 16            [24] 1732 	sjmp	00114$
      000389                       1733 00111$:
                                   1734 ;	USBHost.c:234: rootHubDevice[rootHubIndex].speed = 1;
      000389 EF               [12] 1735 	mov	a,r7
      00038A 75 F0 03         [24] 1736 	mov	b,#0x03
      00038D A4               [48] 1737 	mul	ab
      00038E 24rD1            [12] 1738 	add	a,#_rootHubDevice
      000390 FE               [12] 1739 	mov	r6,a
      000391 74s02            [12] 1740 	mov	a,#(_rootHubDevice >> 8)
      000393 35 F0            [12] 1741 	addc	a,b
      000395 FF               [12] 1742 	mov	r7,a
      000396 8E 82            [24] 1743 	mov	dpl,r6
      000398 8F 83            [24] 1744 	mov	dph,r7
      00039A A3               [24] 1745 	inc	dptr
      00039B A3               [24] 1746 	inc	dptr
      00039C 74 01            [12] 1747 	mov	a,#0x01
      00039E F0               [24] 1748 	movx	@dptr,a
      00039F                       1749 00114$:
                                   1750 ;	USBHost.c:237: UHUB1_CTRL |= bUH_PORT_EN;
      00039F 43 E5 01         [24] 1751 	orl	_UHUB1_CTRL,#0x01
                                   1752 ;	USBHost.c:238: return ERR_SUCCESS;
      0003A2 75 82 00         [24] 1753 	mov	dpl,#0x00
      0003A5 22               [24] 1754 	ret
      0003A6                       1755 00121$:
                                   1756 ;	USBHost.c:241: return ERR_USB_DISCON;
      0003A6 75 82 16         [24] 1757 	mov	dpl,#0x16
                                   1758 ;	USBHost.c:242: }
      0003A9 22               [24] 1759 	ret
                                   1760 ;------------------------------------------------------------
                                   1761 ;Allocation info for local variables in function 'selectHubPort'
                                   1762 ;------------------------------------------------------------
                                   1763 ;HubPortIndex              Allocated with name '_selectHubPort_PARM_2'
                                   1764 ;rootHubIndex              Allocated with name '_selectHubPort_rootHubIndex_65536_75'
                                   1765 ;temp                      Allocated with name '_selectHubPort_temp_65536_76'
                                   1766 ;------------------------------------------------------------
                                   1767 ;	USBHost.c:244: static void selectHubPort(uint8_t rootHubIndex, uint8_t HubPortIndex)
                                   1768 ;	-----------------------------------------
                                   1769 ;	 function selectHubPort
                                   1770 ;	-----------------------------------------
      0003AA                       1771 _selectHubPort:
      0003AA E5 82            [12] 1772 	mov	a,dpl
      0003AC 90r02rEA         [24] 1773 	mov	dptr,#_selectHubPort_rootHubIndex_65536_75
      0003AF F0               [24] 1774 	movx	@dptr,a
                                   1775 ;	USBHost.c:247: setHostUsbAddr(rootHubDevice[rootHubIndex].address); // todo ever != 0
      0003B0 E0               [24] 1776 	movx	a,@dptr
      0003B1 75 F0 03         [24] 1777 	mov	b,#0x03
      0003B4 A4               [48] 1778 	mul	ab
      0003B5 24rD1            [12] 1779 	add	a,#_rootHubDevice
      0003B7 FE               [12] 1780 	mov	r6,a
      0003B8 74s02            [12] 1781 	mov	a,#(_rootHubDevice >> 8)
      0003BA 35 F0            [12] 1782 	addc	a,b
      0003BC FF               [12] 1783 	mov	r7,a
      0003BD 8E 82            [24] 1784 	mov	dpl,r6
      0003BF 8F 83            [24] 1785 	mov	dph,r7
      0003C1 A3               [24] 1786 	inc	dptr
      0003C2 E0               [24] 1787 	movx	a,@dptr
      0003C3 F5 82            [12] 1788 	mov	dpl,a
      0003C5 C0 07            [24] 1789 	push	ar7
      0003C7 C0 06            [24] 1790 	push	ar6
      0003C9 12r02r72         [24] 1791 	lcall	_setHostUsbAddr
      0003CC D0 06            [24] 1792 	pop	ar6
      0003CE D0 07            [24] 1793 	pop	ar7
                                   1794 ;	USBHost.c:248: setUsbSpeed(rootHubDevice[rootHubIndex].speed); // isn't that set before?
      0003D0 8E 82            [24] 1795 	mov	dpl,r6
      0003D2 8F 83            [24] 1796 	mov	dph,r7
      0003D4 A3               [24] 1797 	inc	dptr
      0003D5 A3               [24] 1798 	inc	dptr
      0003D6 E0               [24] 1799 	movx	a,@dptr
      0003D7 F5 82            [12] 1800 	mov	dpl,a
                                   1801 ;	USBHost.c:249: }
      0003D9 02r02r84         [24] 1802 	ljmp	_setUsbSpeed
                                   1803 ;------------------------------------------------------------
                                   1804 ;Allocation info for local variables in function 'hostTransfer'
                                   1805 ;------------------------------------------------------------
                                   1806 ;sloc0                     Allocated with name '_hostTransfer_sloc0_1_0'
                                   1807 ;sloc1                     Allocated with name '_hostTransfer_sloc1_1_0'
                                   1808 ;sloc2                     Allocated with name '_hostTransfer_sloc2_1_0'
                                   1809 ;tog                       Allocated with name '_hostTransfer_PARM_2'
                                   1810 ;timeout                   Allocated with name '_hostTransfer_PARM_3'
                                   1811 ;endp_pid                  Allocated with name '_hostTransfer_endp_pid_65536_77'
                                   1812 ;retries                   Allocated with name '_hostTransfer_retries_65536_78'
                                   1813 ;r                         Allocated with name '_hostTransfer_r_65536_78'
                                   1814 ;i                         Allocated with name '_hostTransfer_i_65536_78'
                                   1815 ;------------------------------------------------------------
                                   1816 ;	USBHost.c:251: static uint8_t hostTransfer(uint8_t endp_pid, uint8_t tog, uint16_t timeout)
                                   1817 ;	-----------------------------------------
                                   1818 ;	 function hostTransfer
                                   1819 ;	-----------------------------------------
      0003DC                       1820 _hostTransfer:
      0003DC E5 82            [12] 1821 	mov	a,dpl
      0003DE 90r02rEE         [24] 1822 	mov	dptr,#_hostTransfer_endp_pid_65536_77
      0003E1 F0               [24] 1823 	movx	@dptr,a
                                   1824 ;	USBHost.c:253: __xdata uint16_t retries = 0;
      0003E2 90r02rEF         [24] 1825 	mov	dptr,#_hostTransfer_retries_65536_78
      0003E5 E4               [12] 1826 	clr	a
      0003E6 F0               [24] 1827 	movx	@dptr,a
      0003E7 A3               [24] 1828 	inc	dptr
      0003E8 F0               [24] 1829 	movx	@dptr,a
                                   1830 ;	USBHost.c:256: UH_RX_CTRL = tog;
      0003E9 90r02rEB         [24] 1831 	mov	dptr,#_hostTransfer_PARM_2
      0003EC E0               [24] 1832 	movx	a,@dptr
      0003ED FF               [12] 1833 	mov	r7,a
      0003EE 8F D4            [24] 1834 	mov	_UEP2_CTRL,r7
                                   1835 ;	USBHost.c:257: UH_TX_CTRL = tog;
      0003F0 8F D6            [24] 1836 	mov	_UEP3_CTRL,r7
                                   1837 ;	USBHost.c:259: do {
      0003F2 90r02rEE         [24] 1838 	mov	dptr,#_hostTransfer_endp_pid_65536_77
      0003F5 E0               [24] 1839 	movx	a,@dptr
      0003F6 FE               [12] 1840 	mov	r6,a
      0003F7 C4               [12] 1841 	swap	a
      0003F8 54 0F            [12] 1842 	anl	a,#0x0f
      0003FA FD               [12] 1843 	mov	r5,a
      0003FB BD 01 03         [24] 1844 	cjne	r5,#0x01,00257$
      0003FE ED               [12] 1845 	mov	a,r5
      0003FF 80 01            [24] 1846 	sjmp	00258$
      000401                       1847 00257$:
      000401 E4               [12] 1848 	clr	a
      000402                       1849 00258$:
      000402 F5*03            [12] 1850 	mov	_hostTransfer_sloc2_1_0,a
      000404 E4               [12] 1851 	clr	a
      000405 BD 09 01         [24] 1852 	cjne	r5,#0x09,00259$
      000408 04               [12] 1853 	inc	a
      000409                       1854 00259$:
      000409 FB               [12] 1855 	mov	r3,a
      00040A 90r02rEC         [24] 1856 	mov	dptr,#_hostTransfer_PARM_3
      00040D E0               [24] 1857 	movx	a,@dptr
      00040E F9               [12] 1858 	mov	r1,a
      00040F A3               [24] 1859 	inc	dptr
      000410 E0               [24] 1860 	movx	a,@dptr
      000411 FA               [12] 1861 	mov	r2,a
      000412                       1862 00145$:
                                   1863 ;	USBHost.c:260: UH_EP_PID = endp_pid;
      000412 8E D5            [24] 1864 	mov	_UEP2_T_LEN,r6
                                   1865 ;	USBHost.c:261: UIF_TRANSFER = 0;
                                   1866 ;	assignBit
      000414 C2 D9            [12] 1867 	clr	_UIF_TRANSFER
                                   1868 ;	USBHost.c:262: for (i = 200; i != 0 && UIF_TRANSFER == 0; i--) {
      000416 75*00 C8         [24] 1869 	mov	_hostTransfer_sloc0_1_0,#0xc8
      000419 75*01 00         [24] 1870 	mov	(_hostTransfer_sloc0_1_0 + 1),#0x00
      00041C                       1871 00150$:
      00041C E5*00            [12] 1872 	mov	a,_hostTransfer_sloc0_1_0
      00041E 45*01            [12] 1873 	orl	a,(_hostTransfer_sloc0_1_0 + 1)
      000420 60 2C            [24] 1874 	jz	00101$
      000422 20 D9 29         [24] 1875 	jb	_UIF_TRANSFER,00101$
                                   1876 ;	USBHost.c:263: delayUs(1);
      000425 90 00 01         [24] 1877 	mov	dptr,#0x0001
      000428 C0 07            [24] 1878 	push	ar7
      00042A C0 06            [24] 1879 	push	ar6
      00042C C0 05            [24] 1880 	push	ar5
      00042E C0 03            [24] 1881 	push	ar3
      000430 C0 02            [24] 1882 	push	ar2
      000432 C0 01            [24] 1883 	push	ar1
      000434 12r00r00         [24] 1884 	lcall	_delayUs
      000437 D0 01            [24] 1885 	pop	ar1
      000439 D0 02            [24] 1886 	pop	ar2
      00043B D0 03            [24] 1887 	pop	ar3
      00043D D0 05            [24] 1888 	pop	ar5
      00043F D0 06            [24] 1889 	pop	ar6
      000441 D0 07            [24] 1890 	pop	ar7
                                   1891 ;	USBHost.c:262: for (i = 200; i != 0 && UIF_TRANSFER == 0; i--) {
      000443 15*00            [12] 1892 	dec	_hostTransfer_sloc0_1_0
      000445 74 FF            [12] 1893 	mov	a,#0xff
      000447 B5*00 02         [24] 1894 	cjne	a,_hostTransfer_sloc0_1_0,00263$
      00044A 15*01            [12] 1895 	dec	(_hostTransfer_sloc0_1_0 + 1)
      00044C                       1896 00263$:
      00044C 80 CE            [24] 1897 	sjmp	00150$
      00044E                       1898 00101$:
                                   1899 ;	USBHost.c:265: UH_EP_PID = 0x00;
      00044E 75 D5 00         [24] 1900 	mov	_UEP2_T_LEN,#0x00
                                   1901 ;	USBHost.c:267: if (UIF_TRANSFER == 0) {
      000451 20 D9 04         [24] 1902 	jb	_UIF_TRANSFER,00103$
                                   1903 ;	USBHost.c:268: return ERR_USB_UNKNOWN;
      000454 75 82 FE         [24] 1904 	mov	dpl,#0xfe
      000457 22               [24] 1905 	ret
      000458                       1906 00103$:
                                   1907 ;	USBHost.c:271: if (UIF_TRANSFER) {
      000458 20 D9 03         [24] 1908 	jb	_UIF_TRANSFER,00265$
      00045B 02r05r58         [24] 1909 	ljmp	00143$
      00045E                       1910 00265$:
                                   1911 ;	USBHost.c:272: if (U_TOG_OK) {
      00045E 30 DE 04         [24] 1912 	jnb	_U_TOG_OK,00105$
                                   1913 ;	USBHost.c:273: return ERR_SUCCESS;
      000461 75 82 00         [24] 1914 	mov	dpl,#0x00
      000464 22               [24] 1915 	ret
      000465                       1916 00105$:
                                   1917 ;	USBHost.c:276: r = USB_INT_ST & MASK_UIS_H_RES;
      000465 E5 D9            [12] 1918 	mov	a,_USB_INT_ST
      000467 54 0F            [12] 1919 	anl	a,#0x0f
      000469 F5*02            [12] 1920 	mov	_hostTransfer_sloc1_1_0,a
                                   1921 ;	USBHost.c:277: if (r == USB_PID_STALL) {
      00046B 74 0E            [12] 1922 	mov	a,#0x0e
      00046D B5*02 04         [24] 1923 	cjne	a,_hostTransfer_sloc1_1_0,00267$
      000470 74 01            [12] 1924 	mov	a,#0x01
      000472 80 01            [24] 1925 	sjmp	00268$
      000474                       1926 00267$:
      000474 E4               [12] 1927 	clr	a
      000475                       1928 00268$:
      000475 F5*00            [12] 1929 	mov	_hostTransfer_sloc0_1_0,a
      000477 60 07            [24] 1930 	jz	00107$
                                   1931 ;	USBHost.c:278: return r | ERR_USB_TRANSFER;
      000479 74 20            [12] 1932 	mov	a,#0x20
      00047B 45*02            [12] 1933 	orl	a,_hostTransfer_sloc1_1_0
      00047D F5 82            [12] 1934 	mov	dpl,a
      00047F 22               [24] 1935 	ret
      000480                       1936 00107$:
                                   1937 ;	USBHost.c:281: if (r == USB_PID_NAK) {
      000480 74 0A            [12] 1938 	mov	a,#0x0a
      000482 B5*02 04         [24] 1939 	cjne	a,_hostTransfer_sloc1_1_0,00270$
      000485 74 01            [12] 1940 	mov	a,#0x01
      000487 80 01            [24] 1941 	sjmp	00271$
      000489                       1942 00270$:
      000489 E4               [12] 1943 	clr	a
      00048A                       1944 00271$:
      00048A F8               [12] 1945 	mov	r0,a
      00048B 60 3F            [24] 1946 	jz	00140$
                                   1947 ;	USBHost.c:282: if (timeout == 0) {
      00048D E9               [12] 1948 	mov	a,r1
      00048E 4A               [12] 1949 	orl	a,r2
      00048F 70 0A            [24] 1950 	jnz	00109$
                                   1951 ;	USBHost.c:283: return r | ERR_USB_TRANSFER;
      000491 74 20            [12] 1952 	mov	a,#0x20
      000493 45*02            [12] 1953 	orl	a,_hostTransfer_sloc1_1_0
      000495 F5*03            [12] 1954 	mov	_hostTransfer_sloc2_1_0,a
      000497 85*03 82         [24] 1955 	mov	dpl,_hostTransfer_sloc2_1_0
      00049A 22               [24] 1956 	ret
      00049B                       1957 00109$:
                                   1958 ;	USBHost.c:285: if (timeout < 0xFFFF) {
      00049B C0 03            [24] 1959 	push	ar3
      00049D 89 03            [24] 1960 	mov	ar3,r1
      00049F 8A 04            [24] 1961 	mov	ar4,r2
      0004A1 C3               [12] 1962 	clr	c
      0004A2 EB               [12] 1963 	mov	a,r3
      0004A3 94 FF            [12] 1964 	subb	a,#0xff
      0004A5 EC               [12] 1965 	mov	a,r4
      0004A6 94 FF            [12] 1966 	subb	a,#0xff
      0004A8 D0 03            [24] 1967 	pop	ar3
      0004AA 50 05            [24] 1968 	jnc	00111$
                                   1969 ;	USBHost.c:286: timeout--;
      0004AC 19               [12] 1970 	dec	r1
      0004AD B9 FF 01         [24] 1971 	cjne	r1,#0xff,00275$
      0004B0 1A               [12] 1972 	dec	r2
      0004B1                       1973 00275$:
      0004B1                       1974 00111$:
                                   1975 ;	USBHost.c:288: retries--;
      0004B1 C0 03            [24] 1976 	push	ar3
      0004B3 90r02rEF         [24] 1977 	mov	dptr,#_hostTransfer_retries_65536_78
      0004B6 E0               [24] 1978 	movx	a,@dptr
      0004B7 24 FF            [12] 1979 	add	a,#0xff
      0004B9 FB               [12] 1980 	mov	r3,a
      0004BA A3               [24] 1981 	inc	dptr
      0004BB E0               [24] 1982 	movx	a,@dptr
      0004BC 34 FF            [12] 1983 	addc	a,#0xff
      0004BE FC               [12] 1984 	mov	r4,a
      0004BF 90r02rEF         [24] 1985 	mov	dptr,#_hostTransfer_retries_65536_78
      0004C2 EB               [12] 1986 	mov	a,r3
      0004C3 F0               [24] 1987 	movx	@dptr,a
      0004C4 EC               [12] 1988 	mov	a,r4
      0004C5 A3               [24] 1989 	inc	dptr
      0004C6 F0               [24] 1990 	movx	@dptr,a
      0004C7 D0 03            [24] 1991 	pop	ar3
      0004C9 02r05r5B         [24] 1992 	ljmp	00144$
      0004CC                       1993 00140$:
                                   1994 ;	USBHost.c:290: switch (endp_pid >> 4) { // todo no return.. compare to other guy
      0004CC E5*03            [12] 1995 	mov	a,_hostTransfer_sloc2_1_0
      0004CE 70 0B            [24] 1996 	jnz	00113$
      0004D0 EB               [12] 1997 	mov	a,r3
      0004D1 70 31            [24] 1998 	jnz	00123$
      0004D3 BD 0D 02         [24] 1999 	cjne	r5,#0x0d,00278$
      0004D6 80 03            [24] 2000 	sjmp	00279$
      0004D8                       2001 00278$:
      0004D8 02r05r54         [24] 2002 	ljmp	00137$
      0004DB                       2003 00279$:
                                   2004 ;	USBHost.c:292: case USB_PID_OUT:
      0004DB                       2005 00113$:
                                   2006 ;	USBHost.c:293: if (U_TOG_OK) {
      0004DB 30 DE 04         [24] 2007 	jnb	_U_TOG_OK,00115$
                                   2008 ;	USBHost.c:294: return ERR_SUCCESS;
      0004DE 75 82 00         [24] 2009 	mov	dpl,#0x00
      0004E1 22               [24] 2010 	ret
      0004E2                       2011 00115$:
                                   2012 ;	USBHost.c:296: if (r == USB_PID_ACK) {
      0004E2 74 02            [12] 2013 	mov	a,#0x02
      0004E4 B5*02 04         [24] 2014 	cjne	a,_hostTransfer_sloc1_1_0,00117$
                                   2015 ;	USBHost.c:297: return ERR_SUCCESS;
      0004E7 75 82 00         [24] 2016 	mov	dpl,#0x00
      0004EA 22               [24] 2017 	ret
      0004EB                       2018 00117$:
                                   2019 ;	USBHost.c:299: if (r == USB_PID_STALL || r == USB_PID_NAK) {
      0004EB E5*00            [12] 2020 	mov	a,_hostTransfer_sloc0_1_0
      0004ED 70 03            [24] 2021 	jnz	00118$
      0004EF E8               [12] 2022 	mov	a,r0
      0004F0 60 07            [24] 2023 	jz	00119$
      0004F2                       2024 00118$:
                                   2025 ;	USBHost.c:300: return r | ERR_USB_TRANSFER;
      0004F2 74 20            [12] 2026 	mov	a,#0x20
      0004F4 45*02            [12] 2027 	orl	a,_hostTransfer_sloc1_1_0
      0004F6 F5 82            [12] 2028 	mov	dpl,a
      0004F8 22               [24] 2029 	ret
      0004F9                       2030 00119$:
                                   2031 ;	USBHost.c:302: if (r) {
      0004F9 E5*02            [12] 2032 	mov	a,_hostTransfer_sloc1_1_0
      0004FB 60 5E            [24] 2033 	jz	00144$
                                   2034 ;	USBHost.c:303: return r | ERR_USB_TRANSFER;
      0004FD 74 20            [12] 2035 	mov	a,#0x20
      0004FF 45*02            [12] 2036 	orl	a,_hostTransfer_sloc1_1_0
      000501 F5 82            [12] 2037 	mov	dpl,a
      000503 22               [24] 2038 	ret
                                   2039 ;	USBHost.c:307: case USB_PID_IN:
      000504                       2040 00123$:
                                   2041 ;	USBHost.c:308: if (U_TOG_OK) {
      000504 30 DE 04         [24] 2042 	jnb	_U_TOG_OK,00125$
                                   2043 ;	USBHost.c:309: return ERR_SUCCESS;
      000507 75 82 00         [24] 2044 	mov	dpl,#0x00
      00050A 22               [24] 2045 	ret
      00050B                       2046 00125$:
                                   2047 ;	USBHost.c:311: if (tog ? r == USB_PID_DATA1 : r == USB_PID_DATA0) {
      00050B EF               [12] 2048 	mov	a,r7
      00050C 60 0D            [24] 2049 	jz	00154$
      00050E 74 0B            [12] 2050 	mov	a,#0x0b
      000510 B5*02 04         [24] 2051 	cjne	a,_hostTransfer_sloc1_1_0,00288$
      000513 74 01            [12] 2052 	mov	a,#0x01
      000515 80 01            [24] 2053 	sjmp	00289$
      000517                       2054 00288$:
      000517 E4               [12] 2055 	clr	a
      000518                       2056 00289$:
      000518 FC               [12] 2057 	mov	r4,a
      000519 80 0B            [24] 2058 	sjmp	00155$
      00051B                       2059 00154$:
      00051B 74 03            [12] 2060 	mov	a,#0x03
      00051D B5*02 04         [24] 2061 	cjne	a,_hostTransfer_sloc1_1_0,00290$
      000520 74 01            [12] 2062 	mov	a,#0x01
      000522 80 01            [24] 2063 	sjmp	00291$
      000524                       2064 00290$:
      000524 E4               [12] 2065 	clr	a
      000525                       2066 00291$:
      000525 FC               [12] 2067 	mov	r4,a
      000526                       2068 00155$:
      000526 EC               [12] 2069 	mov	a,r4
      000527 60 04            [24] 2070 	jz	00127$
                                   2071 ;	USBHost.c:312: return ERR_SUCCESS;
      000529 75 82 00         [24] 2072 	mov	dpl,#0x00
      00052C 22               [24] 2073 	ret
      00052D                       2074 00127$:
                                   2075 ;	USBHost.c:314: if (r == USB_PID_STALL || r == USB_PID_NAK) {
      00052D E5*00            [12] 2076 	mov	a,_hostTransfer_sloc0_1_0
      00052F 70 03            [24] 2077 	jnz	00128$
      000531 E8               [12] 2078 	mov	a,r0
      000532 60 07            [24] 2079 	jz	00129$
      000534                       2080 00128$:
                                   2081 ;	USBHost.c:315: return r | ERR_USB_TRANSFER;
      000534 74 20            [12] 2082 	mov	a,#0x20
      000536 45*02            [12] 2083 	orl	a,_hostTransfer_sloc1_1_0
      000538 F5 82            [12] 2084 	mov	dpl,a
      00053A 22               [24] 2085 	ret
      00053B                       2086 00129$:
                                   2087 ;	USBHost.c:317: if (r == USB_PID_DATA0 || r == USB_PID_DATA1) {
      00053B 74 03            [12] 2088 	mov	a,#0x03
      00053D B5*02 02         [24] 2089 	cjne	a,_hostTransfer_sloc1_1_0,00295$
      000540 80 19            [24] 2090 	sjmp	00144$
      000542                       2091 00295$:
      000542 74 0B            [12] 2092 	mov	a,#0x0b
      000544 B5*02 02         [24] 2093 	cjne	a,_hostTransfer_sloc1_1_0,00296$
      000547 80 12            [24] 2094 	sjmp	00144$
      000549                       2095 00296$:
                                   2096 ;	USBHost.c:319: } else if (r) {
      000549 E5*02            [12] 2097 	mov	a,_hostTransfer_sloc1_1_0
      00054B 60 0E            [24] 2098 	jz	00144$
                                   2099 ;	USBHost.c:320: return r | ERR_USB_TRANSFER;
      00054D 74 20            [12] 2100 	mov	a,#0x20
      00054F 45*02            [12] 2101 	orl	a,_hostTransfer_sloc1_1_0
      000551 F5 82            [12] 2102 	mov	dpl,a
                                   2103 ;	USBHost.c:324: default:
      000553 22               [24] 2104 	ret
      000554                       2105 00137$:
                                   2106 ;	USBHost.c:325: return ERR_USB_UNKNOWN;
      000554 75 82 FE         [24] 2107 	mov	dpl,#0xfe
                                   2108 ;	USBHost.c:327: }
      000557 22               [24] 2109 	ret
      000558                       2110 00143$:
                                   2111 ;	USBHost.c:330: USB_INT_FG = 0xFF;
      000558 75 D8 FF         [24] 2112 	mov	_USB_INT_FG,#0xff
      00055B                       2113 00144$:
                                   2114 ;	USBHost.c:332: delayUs(15);
      00055B 90 00 0F         [24] 2115 	mov	dptr,#0x000f
      00055E C0 07            [24] 2116 	push	ar7
      000560 C0 06            [24] 2117 	push	ar6
      000562 C0 05            [24] 2118 	push	ar5
      000564 C0 03            [24] 2119 	push	ar3
      000566 C0 02            [24] 2120 	push	ar2
      000568 C0 01            [24] 2121 	push	ar1
      00056A 12r00r00         [24] 2122 	lcall	_delayUs
      00056D D0 01            [24] 2123 	pop	ar1
      00056F D0 02            [24] 2124 	pop	ar2
      000571 D0 03            [24] 2125 	pop	ar3
      000573 D0 05            [24] 2126 	pop	ar5
      000575 D0 06            [24] 2127 	pop	ar6
      000577 D0 07            [24] 2128 	pop	ar7
                                   2129 ;	USBHost.c:333: } while (++retries < 200);
      000579 90r02rEF         [24] 2130 	mov	dptr,#_hostTransfer_retries_65536_78
      00057C E0               [24] 2131 	movx	a,@dptr
      00057D 24 01            [12] 2132 	add	a,#0x01
      00057F F0               [24] 2133 	movx	@dptr,a
      000580 A3               [24] 2134 	inc	dptr
      000581 E0               [24] 2135 	movx	a,@dptr
      000582 34 00            [12] 2136 	addc	a,#0x00
      000584 F0               [24] 2137 	movx	@dptr,a
      000585 90r02rEF         [24] 2138 	mov	dptr,#_hostTransfer_retries_65536_78
      000588 E0               [24] 2139 	movx	a,@dptr
      000589 F8               [12] 2140 	mov	r0,a
      00058A A3               [24] 2141 	inc	dptr
      00058B E0               [24] 2142 	movx	a,@dptr
      00058C FC               [12] 2143 	mov	r4,a
      00058D C3               [12] 2144 	clr	c
      00058E E8               [12] 2145 	mov	a,r0
      00058F 94 C8            [12] 2146 	subb	a,#0xc8
      000591 EC               [12] 2147 	mov	a,r4
      000592 94 00            [12] 2148 	subb	a,#0x00
      000594 50 03            [24] 2149 	jnc	00298$
      000596 02r04r12         [24] 2150 	ljmp	00145$
      000599                       2151 00298$:
                                   2152 ;	USBHost.c:335: return ERR_USB_TRANSFER;
      000599 75 82 20         [24] 2153 	mov	dpl,#0x20
                                   2154 ;	USBHost.c:336: }
      00059C 22               [24] 2155 	ret
                                   2156 ;------------------------------------------------------------
                                   2157 ;Allocation info for local variables in function 'hostCtrlTransfer'
                                   2158 ;------------------------------------------------------------
                                   2159 ;sloc0                     Allocated with name '_hostCtrlTransfer_sloc0_1_0'
                                   2160 ;RetLen                    Allocated with name '_hostCtrlTransfer_PARM_2'
                                   2161 ;maxLength                 Allocated with name '_hostCtrlTransfer_PARM_3'
                                   2162 ;DataBuf                   Allocated with name '_hostCtrlTransfer_DataBuf_65536_101'
                                   2163 ;SetPort                   Allocated with name '_hostCtrlTransfer_SetPort_65536_102'
                                   2164 ;RemLen                    Allocated with name '_hostCtrlTransfer_RemLen_65536_102'
                                   2165 ;res                       Allocated with name '_hostCtrlTransfer_res_65536_102'
                                   2166 ;RxLen                     Allocated with name '_hostCtrlTransfer_RxLen_65536_102'
                                   2167 ;i                         Allocated with name '_hostCtrlTransfer_i_65536_102'
                                   2168 ;pBuf                      Allocated with name '_hostCtrlTransfer_pBuf_65536_102'
                                   2169 ;pLen                      Allocated with name '_hostCtrlTransfer_pLen_65536_102'
                                   2170 ;pSetupReq                 Allocated with name '_hostCtrlTransfer_pSetupReq_65537_103'
                                   2171 ;------------------------------------------------------------
                                   2172 ;	USBHost.c:338: static uint8_t hostCtrlTransfer(uint8_t __xdata *DataBuf, uint16_t *RetLen, uint16_t maxLength)
                                   2173 ;	-----------------------------------------
                                   2174 ;	 function hostCtrlTransfer
                                   2175 ;	-----------------------------------------
      00059D                       2176 _hostCtrlTransfer:
      00059D AF 83            [24] 2177 	mov	r7,dph
      00059F E5 82            [12] 2178 	mov	a,dpl
      0005A1 90r02rF6         [24] 2179 	mov	dptr,#_hostCtrlTransfer_DataBuf_65536_101
      0005A4 F0               [24] 2180 	movx	@dptr,a
      0005A5 EF               [12] 2181 	mov	a,r7
      0005A6 A3               [24] 2182 	inc	dptr
      0005A7 F0               [24] 2183 	movx	@dptr,a
                                   2184 ;	USBHost.c:350: PXUSB_SETUP_REQ pSetupReq = ((PXUSB_SETUP_REQ)TxBuffer);
                                   2185 ;	USBHost.c:351: pBuf = DataBuf;
      0005A8 90r02rF6         [24] 2186 	mov	dptr,#_hostCtrlTransfer_DataBuf_65536_101
      0005AB E0               [24] 2187 	movx	a,@dptr
      0005AC FE               [12] 2188 	mov	r6,a
      0005AD A3               [24] 2189 	inc	dptr
      0005AE E0               [24] 2190 	movx	a,@dptr
      0005AF FF               [12] 2191 	mov	r7,a
      0005B0 90r02rFB         [24] 2192 	mov	dptr,#_hostCtrlTransfer_pBuf_65536_102
      0005B3 EE               [12] 2193 	mov	a,r6
      0005B4 F0               [24] 2194 	movx	@dptr,a
      0005B5 EF               [12] 2195 	mov	a,r7
      0005B6 A3               [24] 2196 	inc	dptr
      0005B7 F0               [24] 2197 	movx	@dptr,a
                                   2198 ;	USBHost.c:352: pLen = RetLen;
      0005B8 90r02rF1         [24] 2199 	mov	dptr,#_hostCtrlTransfer_PARM_2
      0005BB E0               [24] 2200 	movx	a,@dptr
      0005BC FB               [12] 2201 	mov	r3,a
      0005BD A3               [24] 2202 	inc	dptr
      0005BE E0               [24] 2203 	movx	a,@dptr
      0005BF FC               [12] 2204 	mov	r4,a
      0005C0 A3               [24] 2205 	inc	dptr
      0005C1 E0               [24] 2206 	movx	a,@dptr
      0005C2 FD               [12] 2207 	mov	r5,a
                                   2208 ;	USBHost.c:353: delayUs(200);
      0005C3 90 00 C8         [24] 2209 	mov	dptr,#0x00c8
      0005C6 C0 07            [24] 2210 	push	ar7
      0005C8 C0 06            [24] 2211 	push	ar6
      0005CA C0 05            [24] 2212 	push	ar5
      0005CC C0 04            [24] 2213 	push	ar4
      0005CE C0 03            [24] 2214 	push	ar3
      0005D0 12r00r00         [24] 2215 	lcall	_delayUs
      0005D3 D0 03            [24] 2216 	pop	ar3
      0005D5 D0 04            [24] 2217 	pop	ar4
      0005D7 D0 05            [24] 2218 	pop	ar5
      0005D9 D0 06            [24] 2219 	pop	ar6
      0005DB D0 07            [24] 2220 	pop	ar7
                                   2221 ;	USBHost.c:355: if (pLen) {
      0005DD EB               [12] 2222 	mov	a,r3
      0005DE 4C               [12] 2223 	orl	a,r4
      0005DF 60 0E            [24] 2224 	jz	00102$
                                   2225 ;	USBHost.c:356: *pLen = 0;
      0005E1 8B 82            [24] 2226 	mov	dpl,r3
      0005E3 8C 83            [24] 2227 	mov	dph,r4
      0005E5 8D F0            [24] 2228 	mov	b,r5
      0005E7 E4               [12] 2229 	clr	a
      0005E8 12r00r00         [24] 2230 	lcall	__gptrput
      0005EB A3               [24] 2231 	inc	dptr
      0005EC 12r00r00         [24] 2232 	lcall	__gptrput
      0005EF                       2233 00102$:
                                   2234 ;	USBHost.c:359: UH_TX_LEN = sizeof(USB_SETUP_REQ);
      0005EF 75 D7 08         [24] 2235 	mov	_UEP3_T_LEN,#0x08
                                   2236 ;	USBHost.c:360: res = hostTransfer((uint8_t)(USB_PID_SETUP << 4), 0, 10000);
      0005F2 90r02rEB         [24] 2237 	mov	dptr,#_hostTransfer_PARM_2
      0005F5 E4               [12] 2238 	clr	a
      0005F6 F0               [24] 2239 	movx	@dptr,a
      0005F7 90r02rEC         [24] 2240 	mov	dptr,#_hostTransfer_PARM_3
      0005FA 74 10            [12] 2241 	mov	a,#0x10
      0005FC F0               [24] 2242 	movx	@dptr,a
      0005FD 74 27            [12] 2243 	mov	a,#0x27
      0005FF A3               [24] 2244 	inc	dptr
      000600 F0               [24] 2245 	movx	@dptr,a
      000601 75 82 D0         [24] 2246 	mov	dpl,#0xd0
      000604 C0 07            [24] 2247 	push	ar7
      000606 C0 06            [24] 2248 	push	ar6
      000608 C0 05            [24] 2249 	push	ar5
      00060A C0 04            [24] 2250 	push	ar4
      00060C C0 03            [24] 2251 	push	ar3
      00060E 12r03rDC         [24] 2252 	lcall	_hostTransfer
      000611 AA 82            [24] 2253 	mov	r2,dpl
      000613 D0 03            [24] 2254 	pop	ar3
      000615 D0 04            [24] 2255 	pop	ar4
      000617 D0 05            [24] 2256 	pop	ar5
      000619 D0 06            [24] 2257 	pop	ar6
      00061B D0 07            [24] 2258 	pop	ar7
                                   2259 ;	USBHost.c:361: if (res != ERR_SUCCESS) {
      00061D EA               [12] 2260 	mov	a,r2
      00061E 60 03            [24] 2261 	jz	00104$
                                   2262 ;	USBHost.c:362: return res;
      000620 8A 82            [24] 2263 	mov	dpl,r2
      000622 22               [24] 2264 	ret
      000623                       2265 00104$:
                                   2266 ;	USBHost.c:365: UH_RX_CTRL = UH_TX_CTRL = bUH_R_TOG | bUH_R_AUTO_TOG | bUH_T_TOG | bUH_T_AUTO_TOG;
      000623 C0 06            [24] 2267 	push	ar6
      000625 C0 07            [24] 2268 	push	ar7
      000627 75 D6 D0         [24] 2269 	mov	_UEP3_CTRL,#0xd0
      00062A 75 D4 D0         [24] 2270 	mov	_UEP2_CTRL,#0xd0
                                   2271 ;	USBHost.c:366: UH_TX_LEN = 0x01;
      00062D 75 D7 01         [24] 2272 	mov	_UEP3_T_LEN,#0x01
                                   2273 ;	USBHost.c:367: RemLen = (pSetupReq->wLengthH << 8) | (pSetupReq->wLengthL);
      000630 90 01 07         [24] 2274 	mov	dptr,#(_TxBuffer + 0x0007)
      000633 E0               [24] 2275 	movx	a,@dptr
      000634 FA               [12] 2276 	mov	r2,a
      000635 79 00            [12] 2277 	mov	r1,#0x00
      000637 90 01 06         [24] 2278 	mov	dptr,#(_TxBuffer + 0x0006)
      00063A E0               [24] 2279 	movx	a,@dptr
      00063B F8               [12] 2280 	mov	r0,a
      00063C 7F 00            [12] 2281 	mov	r7,#0x00
      00063E 42 01            [12] 2282 	orl	ar1,a
      000640 EF               [12] 2283 	mov	a,r7
      000641 42 02            [12] 2284 	orl	ar2,a
      000643 90r02rF9         [24] 2285 	mov	dptr,#_hostCtrlTransfer_RemLen_65536_102
      000646 E9               [12] 2286 	mov	a,r1
      000647 F0               [24] 2287 	movx	@dptr,a
      000648 EA               [12] 2288 	mov	a,r2
      000649 A3               [24] 2289 	inc	dptr
      00064A F0               [24] 2290 	movx	@dptr,a
                                   2291 ;	USBHost.c:369: if (RemLen && pBuf) {
      00064B D0 07            [24] 2292 	pop	ar7
      00064D D0 06            [24] 2293 	pop	ar6
      00064F E9               [12] 2294 	mov	a,r1
      000650 4A               [12] 2295 	orl	a,r2
      000651 70 03            [24] 2296 	jnz	00245$
      000653 02r08r51         [24] 2297 	ljmp	00129$
      000656                       2298 00245$:
      000656 EE               [12] 2299 	mov	a,r6
      000657 4F               [12] 2300 	orl	a,r7
      000658 70 03            [24] 2301 	jnz	00246$
      00065A 02r08r51         [24] 2302 	ljmp	00129$
      00065D                       2303 00246$:
                                   2304 ;	USBHost.c:370: if (pSetupReq->bRequestType & USB_REQ_TYP_IN) {
      00065D 90 01 00         [24] 2305 	mov	dptr,#_TxBuffer
      000660 E0               [24] 2306 	movx	a,@dptr
      000661 FF               [12] 2307 	mov	r7,a
      000662 20 E7 03         [24] 2308 	jb	acc.7,00247$
      000665 02r07r57         [24] 2309 	ljmp	00122$
      000668                       2310 00247$:
                                   2311 ;	USBHost.c:372: while (RemLen) {
      000668                       2312 00113$:
      000668 90r02rF9         [24] 2313 	mov	dptr,#_hostCtrlTransfer_RemLen_65536_102
      00066B E0               [24] 2314 	movx	a,@dptr
      00066C FE               [12] 2315 	mov	r6,a
      00066D A3               [24] 2316 	inc	dptr
      00066E E0               [24] 2317 	movx	a,@dptr
      00066F FF               [12] 2318 	mov	r7,a
      000670 4E               [12] 2319 	orl	a,r6
      000671 70 03            [24] 2320 	jnz	00248$
      000673 02r07r51         [24] 2321 	ljmp	00115$
      000676                       2322 00248$:
                                   2323 ;	USBHost.c:373: delayUs(300);
      000676 90 01 2C         [24] 2324 	mov	dptr,#0x012c
      000679 C0 07            [24] 2325 	push	ar7
      00067B C0 06            [24] 2326 	push	ar6
      00067D C0 05            [24] 2327 	push	ar5
      00067F C0 04            [24] 2328 	push	ar4
      000681 C0 03            [24] 2329 	push	ar3
      000683 12r00r00         [24] 2330 	lcall	_delayUs
                                   2331 ;	USBHost.c:374: res = hostTransfer((uint8_t)(USB_PID_IN << 4), UH_RX_CTRL, 10000);
      000686 90r02rEB         [24] 2332 	mov	dptr,#_hostTransfer_PARM_2
      000689 E5 D4            [12] 2333 	mov	a,_UEP2_CTRL
      00068B F0               [24] 2334 	movx	@dptr,a
      00068C 90r02rEC         [24] 2335 	mov	dptr,#_hostTransfer_PARM_3
      00068F 74 10            [12] 2336 	mov	a,#0x10
      000691 F0               [24] 2337 	movx	@dptr,a
      000692 74 27            [12] 2338 	mov	a,#0x27
      000694 A3               [24] 2339 	inc	dptr
      000695 F0               [24] 2340 	movx	@dptr,a
      000696 75 82 90         [24] 2341 	mov	dpl,#0x90
      000699 12r03rDC         [24] 2342 	lcall	_hostTransfer
      00069C AA 82            [24] 2343 	mov	r2,dpl
      00069E D0 03            [24] 2344 	pop	ar3
      0006A0 D0 04            [24] 2345 	pop	ar4
      0006A2 D0 05            [24] 2346 	pop	ar5
      0006A4 D0 06            [24] 2347 	pop	ar6
      0006A6 D0 07            [24] 2348 	pop	ar7
                                   2349 ;	USBHost.c:375: if (res != ERR_SUCCESS) {
      0006A8 EA               [12] 2350 	mov	a,r2
      0006A9 60 03            [24] 2351 	jz	00106$
                                   2352 ;	USBHost.c:376: return res;
      0006AB 8A 82            [24] 2353 	mov	dpl,r2
      0006AD 22               [24] 2354 	ret
      0006AE                       2355 00106$:
                                   2356 ;	USBHost.c:379: RxLen = USB_RX_LEN < RemLen ? USB_RX_LEN : RemLen;
      0006AE A9 D1            [24] 2357 	mov	r1,_USB_RX_LEN
      0006B0 7A 00            [12] 2358 	mov	r2,#0x00
      0006B2 C3               [12] 2359 	clr	c
      0006B3 E9               [12] 2360 	mov	a,r1
      0006B4 9E               [12] 2361 	subb	a,r6
      0006B5 EA               [12] 2362 	mov	a,r2
      0006B6 9F               [12] 2363 	subb	a,r7
      0006B7 50 06            [24] 2364 	jnc	00142$
      0006B9 A9 D1            [24] 2365 	mov	r1,_USB_RX_LEN
      0006BB 7A 00            [12] 2366 	mov	r2,#0x00
      0006BD 80 04            [24] 2367 	sjmp	00143$
      0006BF                       2368 00142$:
      0006BF 8E 01            [24] 2369 	mov	ar1,r6
      0006C1 8F 02            [24] 2370 	mov	ar2,r7
      0006C3                       2371 00143$:
                                   2372 ;	USBHost.c:380: RemLen -= RxLen;
      0006C3 89 06            [24] 2373 	mov	ar6,r1
      0006C5 7F 00            [12] 2374 	mov	r7,#0x00
      0006C7 90r02rF9         [24] 2375 	mov	dptr,#_hostCtrlTransfer_RemLen_65536_102
      0006CA E0               [24] 2376 	movx	a,@dptr
      0006CB F8               [12] 2377 	mov	r0,a
      0006CC A3               [24] 2378 	inc	dptr
      0006CD E0               [24] 2379 	movx	a,@dptr
      0006CE FA               [12] 2380 	mov	r2,a
      0006CF E8               [12] 2381 	mov	a,r0
      0006D0 C3               [12] 2382 	clr	c
      0006D1 9E               [12] 2383 	subb	a,r6
      0006D2 F8               [12] 2384 	mov	r0,a
      0006D3 EA               [12] 2385 	mov	a,r2
      0006D4 9F               [12] 2386 	subb	a,r7
      0006D5 FA               [12] 2387 	mov	r2,a
      0006D6 90r02rF9         [24] 2388 	mov	dptr,#_hostCtrlTransfer_RemLen_65536_102
      0006D9 E8               [12] 2389 	mov	a,r0
      0006DA F0               [24] 2390 	movx	@dptr,a
      0006DB EA               [12] 2391 	mov	a,r2
      0006DC A3               [24] 2392 	inc	dptr
      0006DD F0               [24] 2393 	movx	@dptr,a
                                   2394 ;	USBHost.c:381: if (pLen) {
      0006DE EB               [12] 2395 	mov	a,r3
      0006DF 4C               [12] 2396 	orl	a,r4
      0006E0 60 24            [24] 2397 	jz	00159$
                                   2398 ;	USBHost.c:382: *pLen += RxLen;
      0006E2 8B 82            [24] 2399 	mov	dpl,r3
      0006E4 8C 83            [24] 2400 	mov	dph,r4
      0006E6 8D F0            [24] 2401 	mov	b,r5
      0006E8 12r00r00         [24] 2402 	lcall	__gptrget
      0006EB F8               [12] 2403 	mov	r0,a
      0006EC A3               [24] 2404 	inc	dptr
      0006ED 12r00r00         [24] 2405 	lcall	__gptrget
      0006F0 FA               [12] 2406 	mov	r2,a
      0006F1 EE               [12] 2407 	mov	a,r6
      0006F2 28               [12] 2408 	add	a,r0
      0006F3 FE               [12] 2409 	mov	r6,a
      0006F4 EF               [12] 2410 	mov	a,r7
      0006F5 3A               [12] 2411 	addc	a,r2
      0006F6 FF               [12] 2412 	mov	r7,a
      0006F7 8B 82            [24] 2413 	mov	dpl,r3
      0006F9 8C 83            [24] 2414 	mov	dph,r4
      0006FB 8D F0            [24] 2415 	mov	b,r5
      0006FD EE               [12] 2416 	mov	a,r6
      0006FE 12r00r00         [24] 2417 	lcall	__gptrput
      000701 A3               [24] 2418 	inc	dptr
      000702 EF               [12] 2419 	mov	a,r7
      000703 12r00r00         [24] 2420 	lcall	__gptrput
                                   2421 ;	USBHost.c:385: for (i = 0; i < RxLen; i++) {
      000706                       2422 00159$:
      000706 90r02rFB         [24] 2423 	mov	dptr,#_hostCtrlTransfer_pBuf_65536_102
      000709 E0               [24] 2424 	movx	a,@dptr
      00070A FE               [12] 2425 	mov	r6,a
      00070B A3               [24] 2426 	inc	dptr
      00070C E0               [24] 2427 	movx	a,@dptr
      00070D FF               [12] 2428 	mov	r7,a
      00070E 7A 00            [12] 2429 	mov	r2,#0x00
      000710                       2430 00138$:
      000710 C3               [12] 2431 	clr	c
      000711 EA               [12] 2432 	mov	a,r2
      000712 99               [12] 2433 	subb	a,r1
      000713 50 18            [24] 2434 	jnc	00109$
                                   2435 ;	USBHost.c:386: pBuf[i] = RxBuffer[i];
      000715 EA               [12] 2436 	mov	a,r2
      000716 2E               [12] 2437 	add	a,r6
      000717 F5*04            [12] 2438 	mov	_hostCtrlTransfer_sloc0_1_0,a
      000719 E4               [12] 2439 	clr	a
      00071A 3F               [12] 2440 	addc	a,r7
      00071B F5*05            [12] 2441 	mov	(_hostCtrlTransfer_sloc0_1_0 + 1),a
      00071D 8A 82            [24] 2442 	mov	dpl,r2
      00071F 75 83 00         [24] 2443 	mov	dph,#(_RxBuffer >> 8)
      000722 E0               [24] 2444 	movx	a,@dptr
      000723 85*04 82         [24] 2445 	mov	dpl,_hostCtrlTransfer_sloc0_1_0
      000726 85*05 83         [24] 2446 	mov	dph,(_hostCtrlTransfer_sloc0_1_0 + 1)
      000729 F0               [24] 2447 	movx	@dptr,a
                                   2448 ;	USBHost.c:385: for (i = 0; i < RxLen; i++) {
      00072A 0A               [12] 2449 	inc	r2
      00072B 80 E3            [24] 2450 	sjmp	00138$
      00072D                       2451 00109$:
                                   2452 ;	USBHost.c:388: pBuf += RxLen;
      00072D 90r02rFB         [24] 2453 	mov	dptr,#_hostCtrlTransfer_pBuf_65536_102
      000730 E0               [24] 2454 	movx	a,@dptr
      000731 FE               [12] 2455 	mov	r6,a
      000732 A3               [24] 2456 	inc	dptr
      000733 E0               [24] 2457 	movx	a,@dptr
      000734 FF               [12] 2458 	mov	r7,a
      000735 90r02rFB         [24] 2459 	mov	dptr,#_hostCtrlTransfer_pBuf_65536_102
      000738 E9               [12] 2460 	mov	a,r1
      000739 2E               [12] 2461 	add	a,r6
      00073A F0               [24] 2462 	movx	@dptr,a
      00073B E4               [12] 2463 	clr	a
      00073C 3F               [12] 2464 	addc	a,r7
      00073D A3               [24] 2465 	inc	dptr
      00073E F0               [24] 2466 	movx	@dptr,a
                                   2467 ;	USBHost.c:391: if (USB_RX_LEN == 0 || (USB_RX_LEN < endpoint0Size)) {
      00073F E5 D1            [12] 2468 	mov	a,_USB_RX_LEN
      000741 60 0E            [24] 2469 	jz	00115$
      000743 90r00r00         [24] 2470 	mov	dptr,#_endpoint0Size
      000746 E0               [24] 2471 	movx	a,@dptr
      000747 FF               [12] 2472 	mov	r7,a
      000748 C3               [12] 2473 	clr	c
      000749 E5 D1            [12] 2474 	mov	a,_USB_RX_LEN
      00074B 9F               [12] 2475 	subb	a,r7
      00074C 40 03            [24] 2476 	jc	00254$
      00074E 02r06r68         [24] 2477 	ljmp	00113$
      000751                       2478 00254$:
                                   2479 ;	USBHost.c:392: break;
      000751                       2480 00115$:
                                   2481 ;	USBHost.c:395: UH_TX_LEN = 0x00;
      000751 75 D7 00         [24] 2482 	mov	_UEP3_T_LEN,#0x00
      000754 02r08r51         [24] 2483 	ljmp	00129$
                                   2484 ;	USBHost.c:399: while (RemLen) {
      000757                       2485 00122$:
      000757 90r02rF9         [24] 2486 	mov	dptr,#_hostCtrlTransfer_RemLen_65536_102
      00075A E0               [24] 2487 	movx	a,@dptr
      00075B FE               [12] 2488 	mov	r6,a
      00075C A3               [24] 2489 	inc	dptr
      00075D E0               [24] 2490 	movx	a,@dptr
      00075E FF               [12] 2491 	mov	r7,a
      00075F 4E               [12] 2492 	orl	a,r6
      000760 70 03            [24] 2493 	jnz	00255$
      000762 02r08r51         [24] 2494 	ljmp	00129$
      000765                       2495 00255$:
                                   2496 ;	USBHost.c:400: delayUs(200);
      000765 90 00 C8         [24] 2497 	mov	dptr,#0x00c8
      000768 C0 07            [24] 2498 	push	ar7
      00076A C0 06            [24] 2499 	push	ar6
      00076C C0 05            [24] 2500 	push	ar5
      00076E C0 04            [24] 2501 	push	ar4
      000770 C0 03            [24] 2502 	push	ar3
      000772 12r00r00         [24] 2503 	lcall	_delayUs
      000775 D0 03            [24] 2504 	pop	ar3
      000777 D0 04            [24] 2505 	pop	ar4
      000779 D0 05            [24] 2506 	pop	ar5
      00077B D0 06            [24] 2507 	pop	ar6
      00077D D0 07            [24] 2508 	pop	ar7
                                   2509 ;	USBHost.c:401: UH_TX_LEN = RemLen >= endpoint0Size ? endpoint0Size : RemLen;
      00077F 90r00r00         [24] 2510 	mov	dptr,#_endpoint0Size
      000782 E0               [24] 2511 	movx	a,@dptr
      000783 F9               [12] 2512 	mov	r1,a
      000784 7A 00            [12] 2513 	mov	r2,#0x00
      000786 C3               [12] 2514 	clr	c
      000787 EE               [12] 2515 	mov	a,r6
      000788 99               [12] 2516 	subb	a,r1
      000789 EF               [12] 2517 	mov	a,r7
      00078A 9A               [12] 2518 	subb	a,r2
      00078B 92*00            [24] 2519 	mov	_hostCtrlTransfer_sloc1_1_0,c
      00078D 40 09            [24] 2520 	jc	00144$
      00078F 90r00r00         [24] 2521 	mov	dptr,#_endpoint0Size
      000792 E0               [24] 2522 	movx	a,@dptr
      000793 F9               [12] 2523 	mov	r1,a
      000794 7A 00            [12] 2524 	mov	r2,#0x00
      000796 80 04            [24] 2525 	sjmp	00145$
      000798                       2526 00144$:
      000798 8E 01            [24] 2527 	mov	ar1,r6
      00079A 8F 02            [24] 2528 	mov	ar2,r7
      00079C                       2529 00145$:
      00079C 89 D7            [24] 2530 	mov	_UEP3_T_LEN,r1
                                   2531 ;	USBHost.c:403: pBuf += UH_TX_LEN;
      00079E 90r02rFB         [24] 2532 	mov	dptr,#_hostCtrlTransfer_pBuf_65536_102
      0007A1 E0               [24] 2533 	movx	a,@dptr
      0007A2 FE               [12] 2534 	mov	r6,a
      0007A3 A3               [24] 2535 	inc	dptr
      0007A4 E0               [24] 2536 	movx	a,@dptr
      0007A5 FF               [12] 2537 	mov	r7,a
      0007A6 E5 D7            [12] 2538 	mov	a,_UEP3_T_LEN
      0007A8 2E               [12] 2539 	add	a,r6
      0007A9 FE               [12] 2540 	mov	r6,a
      0007AA E4               [12] 2541 	clr	a
      0007AB 3F               [12] 2542 	addc	a,r7
      0007AC FF               [12] 2543 	mov	r7,a
      0007AD 90r02rFB         [24] 2544 	mov	dptr,#_hostCtrlTransfer_pBuf_65536_102
      0007B0 EE               [12] 2545 	mov	a,r6
      0007B1 F0               [24] 2546 	movx	@dptr,a
      0007B2 EF               [12] 2547 	mov	a,r7
      0007B3 A3               [24] 2548 	inc	dptr
      0007B4 F0               [24] 2549 	movx	@dptr,a
                                   2550 ;	USBHost.c:405: if (pBuf[1] == 0x09) {
      0007B5 8E 82            [24] 2551 	mov	dpl,r6
      0007B7 8F 83            [24] 2552 	mov	dph,r7
      0007B9 A3               [24] 2553 	inc	dptr
      0007BA E0               [24] 2554 	movx	a,@dptr
      0007BB FA               [12] 2555 	mov	r2,a
      0007BC BA 09 1B         [24] 2556 	cjne	r2,#0x09,00117$
                                   2557 ;	USBHost.c:406: SetPort = SetPort ? 0 : 1;
      0007BF 90r02rF8         [24] 2558 	mov	dptr,#_hostCtrlTransfer_SetPort_65536_102
      0007C2 E0               [24] 2559 	movx	a,@dptr
      0007C3 60 06            [24] 2560 	jz	00146$
      0007C5 79 00            [12] 2561 	mov	r1,#0x00
      0007C7 7A 00            [12] 2562 	mov	r2,#0x00
      0007C9 80 04            [24] 2563 	sjmp	00147$
      0007CB                       2564 00146$:
      0007CB 79 01            [12] 2565 	mov	r1,#0x01
      0007CD 7A 00            [12] 2566 	mov	r2,#0x00
      0007CF                       2567 00147$:
      0007CF 90r02rF8         [24] 2568 	mov	dptr,#_hostCtrlTransfer_SetPort_65536_102
      0007D2 E9               [12] 2569 	mov	a,r1
      0007D3 F0               [24] 2570 	movx	@dptr,a
                                   2571 ;	USBHost.c:407: *pBuf = SetPort;
      0007D4 8E 82            [24] 2572 	mov	dpl,r6
      0007D6 8F 83            [24] 2573 	mov	dph,r7
      0007D8 E9               [12] 2574 	mov	a,r1
      0007D9 F0               [24] 2575 	movx	@dptr,a
                                   2576 ;	USBHost.c:408: DEBUG_OUT("SET_PORT  %02X  %02X ", *pBuf, SetPort);
      0007DA                       2577 00117$:
                                   2578 ;	USBHost.c:412: res = hostTransfer(USB_PID_OUT << 4, UH_TX_CTRL, 10000);
      0007DA 90r02rEB         [24] 2579 	mov	dptr,#_hostTransfer_PARM_2
      0007DD E5 D6            [12] 2580 	mov	a,_UEP3_CTRL
      0007DF F0               [24] 2581 	movx	@dptr,a
      0007E0 90r02rEC         [24] 2582 	mov	dptr,#_hostTransfer_PARM_3
      0007E3 74 10            [12] 2583 	mov	a,#0x10
      0007E5 F0               [24] 2584 	movx	@dptr,a
      0007E6 74 27            [12] 2585 	mov	a,#0x27
      0007E8 A3               [24] 2586 	inc	dptr
      0007E9 F0               [24] 2587 	movx	@dptr,a
      0007EA 75 82 10         [24] 2588 	mov	dpl,#0x10
      0007ED C0 05            [24] 2589 	push	ar5
      0007EF C0 04            [24] 2590 	push	ar4
      0007F1 C0 03            [24] 2591 	push	ar3
      0007F3 12r03rDC         [24] 2592 	lcall	_hostTransfer
      0007F6 AF 82            [24] 2593 	mov	r7,dpl
      0007F8 D0 03            [24] 2594 	pop	ar3
      0007FA D0 04            [24] 2595 	pop	ar4
      0007FC D0 05            [24] 2596 	pop	ar5
                                   2597 ;	USBHost.c:413: if (res != ERR_SUCCESS) {
      0007FE EF               [12] 2598 	mov	a,r7
      0007FF 60 03            [24] 2599 	jz	00119$
                                   2600 ;	USBHost.c:414: return res;
      000801 8F 82            [24] 2601 	mov	dpl,r7
      000803 22               [24] 2602 	ret
      000804                       2603 00119$:
                                   2604 ;	USBHost.c:417: RemLen -= UH_TX_LEN;
      000804 AE D7            [24] 2605 	mov	r6,_UEP3_T_LEN
      000806 7F 00            [12] 2606 	mov	r7,#0x00
      000808 90r02rF9         [24] 2607 	mov	dptr,#_hostCtrlTransfer_RemLen_65536_102
      00080B E0               [24] 2608 	movx	a,@dptr
      00080C F9               [12] 2609 	mov	r1,a
      00080D A3               [24] 2610 	inc	dptr
      00080E E0               [24] 2611 	movx	a,@dptr
      00080F FA               [12] 2612 	mov	r2,a
      000810 E9               [12] 2613 	mov	a,r1
      000811 C3               [12] 2614 	clr	c
      000812 9E               [12] 2615 	subb	a,r6
      000813 F9               [12] 2616 	mov	r1,a
      000814 EA               [12] 2617 	mov	a,r2
      000815 9F               [12] 2618 	subb	a,r7
      000816 FA               [12] 2619 	mov	r2,a
      000817 90r02rF9         [24] 2620 	mov	dptr,#_hostCtrlTransfer_RemLen_65536_102
      00081A E9               [12] 2621 	mov	a,r1
      00081B F0               [24] 2622 	movx	@dptr,a
      00081C EA               [12] 2623 	mov	a,r2
      00081D A3               [24] 2624 	inc	dptr
      00081E F0               [24] 2625 	movx	@dptr,a
                                   2626 ;	USBHost.c:418: if (pLen) {
      00081F EB               [12] 2627 	mov	a,r3
      000820 4C               [12] 2628 	orl	a,r4
      000821 70 03            [24] 2629 	jnz	00261$
      000823 02r07r57         [24] 2630 	ljmp	00122$
      000826                       2631 00261$:
                                   2632 ;	USBHost.c:419: *pLen += UH_TX_LEN;
      000826 8B 82            [24] 2633 	mov	dpl,r3
      000828 8C 83            [24] 2634 	mov	dph,r4
      00082A 8D F0            [24] 2635 	mov	b,r5
      00082C 12r00r00         [24] 2636 	lcall	__gptrget
      00082F FE               [12] 2637 	mov	r6,a
      000830 A3               [24] 2638 	inc	dptr
      000831 12r00r00         [24] 2639 	lcall	__gptrget
      000834 FF               [12] 2640 	mov	r7,a
      000835 A9 D7            [24] 2641 	mov	r1,_UEP3_T_LEN
      000837 7A 00            [12] 2642 	mov	r2,#0x00
      000839 E9               [12] 2643 	mov	a,r1
      00083A 2E               [12] 2644 	add	a,r6
      00083B FE               [12] 2645 	mov	r6,a
      00083C EA               [12] 2646 	mov	a,r2
      00083D 3F               [12] 2647 	addc	a,r7
      00083E FF               [12] 2648 	mov	r7,a
      00083F 8B 82            [24] 2649 	mov	dpl,r3
      000841 8C 83            [24] 2650 	mov	dph,r4
      000843 8D F0            [24] 2651 	mov	b,r5
      000845 EE               [12] 2652 	mov	a,r6
      000846 12r00r00         [24] 2653 	lcall	__gptrput
      000849 A3               [24] 2654 	inc	dptr
      00084A EF               [12] 2655 	mov	a,r7
      00084B 12r00r00         [24] 2656 	lcall	__gptrput
      00084E 02r07r57         [24] 2657 	ljmp	00122$
      000851                       2658 00129$:
                                   2659 ;	USBHost.c:425: delayUs(200);
      000851 90 00 C8         [24] 2660 	mov	dptr,#0x00c8
      000854 12r00r00         [24] 2661 	lcall	_delayUs
                                   2662 ;	USBHost.c:426: res = hostTransfer((UH_TX_LEN ? USB_PID_IN << 4 : USB_PID_OUT << 4), bUH_R_TOG | bUH_T_TOG, 10000);
      000857 E5 D7            [12] 2663 	mov	a,_UEP3_T_LEN
      000859 60 04            [24] 2664 	jz	00148$
      00085B 7F 90            [12] 2665 	mov	r7,#0x90
      00085D 80 02            [24] 2666 	sjmp	00149$
      00085F                       2667 00148$:
      00085F 7F 10            [12] 2668 	mov	r7,#0x10
      000861                       2669 00149$:
      000861 90r02rEB         [24] 2670 	mov	dptr,#_hostTransfer_PARM_2
      000864 74 C0            [12] 2671 	mov	a,#0xc0
      000866 F0               [24] 2672 	movx	@dptr,a
      000867 90r02rEC         [24] 2673 	mov	dptr,#_hostTransfer_PARM_3
      00086A 74 10            [12] 2674 	mov	a,#0x10
      00086C F0               [24] 2675 	movx	@dptr,a
      00086D 74 27            [12] 2676 	mov	a,#0x27
      00086F A3               [24] 2677 	inc	dptr
      000870 F0               [24] 2678 	movx	@dptr,a
      000871 8F 82            [24] 2679 	mov	dpl,r7
      000873 12r03rDC         [24] 2680 	lcall	_hostTransfer
                                   2681 ;	USBHost.c:427: if (res != ERR_SUCCESS) {
      000876 E5 82            [12] 2682 	mov	a,dpl
      000878 FF               [12] 2683 	mov	r7,a
      000879 60 03            [24] 2684 	jz	00132$
                                   2685 ;	USBHost.c:428: return res;
      00087B 8F 82            [24] 2686 	mov	dpl,r7
      00087D 22               [24] 2687 	ret
      00087E                       2688 00132$:
                                   2689 ;	USBHost.c:431: if (UH_TX_LEN == 0) {
      00087E E5 D7            [12] 2690 	mov	a,_UEP3_T_LEN
                                   2691 ;	USBHost.c:432: return ERR_SUCCESS;
      000880 70 03            [24] 2692 	jnz	00134$
      000882 F5 82            [12] 2693 	mov	dpl,a
      000884 22               [24] 2694 	ret
      000885                       2695 00134$:
                                   2696 ;	USBHost.c:435: if (USB_RX_LEN == 0) {
      000885 E5 D1            [12] 2697 	mov	a,_USB_RX_LEN
                                   2698 ;	USBHost.c:436: return ERR_SUCCESS;
      000887 70 03            [24] 2699 	jnz	00136$
      000889 F5 82            [12] 2700 	mov	dpl,a
      00088B 22               [24] 2701 	ret
      00088C                       2702 00136$:
                                   2703 ;	USBHost.c:439: return ERR_USB_BUF_OVER;
      00088C 75 82 17         [24] 2704 	mov	dpl,#0x17
                                   2705 ;	USBHost.c:440: }
      00088F 22               [24] 2706 	ret
                                   2707 ;------------------------------------------------------------
                                   2708 ;Allocation info for local variables in function 'fillTxBuffer'
                                   2709 ;------------------------------------------------------------
                                   2710 ;len                       Allocated with name '_fillTxBuffer_PARM_2'
                                   2711 ;data                      Allocated with name '_fillTxBuffer_data_65536_122'
                                   2712 ;i                         Allocated with name '_fillTxBuffer_i_131072_124'
                                   2713 ;------------------------------------------------------------
                                   2714 ;	USBHost.c:442: static void fillTxBuffer(PUINT8C data, uint8_t len)
                                   2715 ;	-----------------------------------------
                                   2716 ;	 function fillTxBuffer
                                   2717 ;	-----------------------------------------
      000890                       2718 _fillTxBuffer:
      000890 AF 83            [24] 2719 	mov	r7,dph
      000892 E5 82            [12] 2720 	mov	a,dpl
      000894 90r02rFE         [24] 2721 	mov	dptr,#_fillTxBuffer_data_65536_122
      000897 F0               [24] 2722 	movx	@dptr,a
      000898 EF               [12] 2723 	mov	a,r7
      000899 A3               [24] 2724 	inc	dptr
      00089A F0               [24] 2725 	movx	@dptr,a
                                   2726 ;	USBHost.c:445: for(uint8_t i = 0; i < len; ++i) {
      00089B 90r02rFE         [24] 2727 	mov	dptr,#_fillTxBuffer_data_65536_122
      00089E E0               [24] 2728 	movx	a,@dptr
      00089F FE               [12] 2729 	mov	r6,a
      0008A0 A3               [24] 2730 	inc	dptr
      0008A1 E0               [24] 2731 	movx	a,@dptr
      0008A2 FF               [12] 2732 	mov	r7,a
      0008A3 90r02rFD         [24] 2733 	mov	dptr,#_fillTxBuffer_PARM_2
      0008A6 E0               [24] 2734 	movx	a,@dptr
      0008A7 FD               [12] 2735 	mov	r5,a
      0008A8 7C 00            [12] 2736 	mov	r4,#0x00
      0008AA                       2737 00103$:
      0008AA C3               [12] 2738 	clr	c
      0008AB EC               [12] 2739 	mov	a,r4
      0008AC 9D               [12] 2740 	subb	a,r5
      0008AD 50 17            [24] 2741 	jnc	00105$
                                   2742 ;	USBHost.c:446: TxBuffer[i] = data[i];
      0008AF 8C 02            [24] 2743 	mov	ar2,r4
      0008B1 7B 01            [12] 2744 	mov	r3,#(_TxBuffer >> 8)
      0008B3 EC               [12] 2745 	mov	a,r4
      0008B4 2E               [12] 2746 	add	a,r6
      0008B5 F5 82            [12] 2747 	mov	dpl,a
      0008B7 E4               [12] 2748 	clr	a
      0008B8 3F               [12] 2749 	addc	a,r7
      0008B9 F5 83            [12] 2750 	mov	dph,a
      0008BB E4               [12] 2751 	clr	a
      0008BC 93               [24] 2752 	movc	a,@a+dptr
      0008BD F9               [12] 2753 	mov	r1,a
      0008BE 8A 82            [24] 2754 	mov	dpl,r2
      0008C0 8B 83            [24] 2755 	mov	dph,r3
      0008C2 F0               [24] 2756 	movx	@dptr,a
                                   2757 ;	USBHost.c:445: for(uint8_t i = 0; i < len; ++i) {
      0008C3 0C               [12] 2758 	inc	r4
      0008C4 80 E4            [24] 2759 	sjmp	00103$
      0008C6                       2760 00105$:
                                   2761 ;	USBHost.c:448: }
      0008C6 22               [24] 2762 	ret
                                   2763 ;------------------------------------------------------------
                                   2764 ;Allocation info for local variables in function 'getDeviceDescriptor'
                                   2765 ;------------------------------------------------------------
                                   2766 ;res                       Allocated with name '_getDeviceDescriptor_res_65536_126'
                                   2767 ;len                       Allocated with name '_getDeviceDescriptor_len_65536_126'
                                   2768 ;------------------------------------------------------------
                                   2769 ;	USBHost.c:450: static uint8_t getDeviceDescriptor()
                                   2770 ;	-----------------------------------------
                                   2771 ;	 function getDeviceDescriptor
                                   2772 ;	-----------------------------------------
      0008C7                       2773 _getDeviceDescriptor:
                                   2774 ;	USBHost.c:454: endpoint0Size = DEFAULT_ENDP0_SIZE; // TODO again?
      0008C7 90r00r00         [24] 2775 	mov	dptr,#_endpoint0Size
      0008CA 74 08            [12] 2776 	mov	a,#0x08
      0008CC F0               [24] 2777 	movx	@dptr,a
                                   2778 ;	USBHost.c:456: fillTxBuffer(GetDeviceDescriptorRequest, sizeof(GetDeviceDescriptorRequest));
      0008CD 90r02rFD         [24] 2779 	mov	dptr,#_fillTxBuffer_PARM_2
      0008D0 F0               [24] 2780 	movx	@dptr,a
      0008D1 90r00r00         [24] 2781 	mov	dptr,#_GetDeviceDescriptorRequest
      0008D4 12r08r90         [24] 2782 	lcall	_fillTxBuffer
                                   2783 ;	USBHost.c:457: res = hostCtrlTransfer(receiveDataBuffer, &len, RECEIVE_BUFFER_LEN);
      0008D7 90r02rF1         [24] 2784 	mov	dptr,#_hostCtrlTransfer_PARM_2
      0008DA 74r00            [12] 2785 	mov	a,#_getDeviceDescriptor_len_65536_126
      0008DC F0               [24] 2786 	movx	@dptr,a
      0008DD 74s03            [12] 2787 	mov	a,#(_getDeviceDescriptor_len_65536_126 >> 8)
      0008DF A3               [24] 2788 	inc	dptr
      0008E0 F0               [24] 2789 	movx	@dptr,a
      0008E1 E4               [12] 2790 	clr	a
      0008E2 A3               [24] 2791 	inc	dptr
      0008E3 F0               [24] 2792 	movx	@dptr,a
      0008E4 90r02rF4         [24] 2793 	mov	dptr,#_hostCtrlTransfer_PARM_3
      0008E7 F0               [24] 2794 	movx	@dptr,a
      0008E8 74 02            [12] 2795 	mov	a,#0x02
      0008EA A3               [24] 2796 	inc	dptr
      0008EB F0               [24] 2797 	movx	@dptr,a
      0008EC 90r00r01         [24] 2798 	mov	dptr,#_receiveDataBuffer
      0008EF 12r05r9D         [24] 2799 	lcall	_hostCtrlTransfer
                                   2800 ;	USBHost.c:458: if (res != ERR_SUCCESS) {
      0008F2 E5 82            [12] 2801 	mov	a,dpl
      0008F4 FF               [12] 2802 	mov	r7,a
      0008F5 60 03            [24] 2803 	jz	00102$
                                   2804 ;	USBHost.c:459: return res;
      0008F7 8F 82            [24] 2805 	mov	dpl,r7
      0008F9 22               [24] 2806 	ret
      0008FA                       2807 00102$:
                                   2808 ;	USBHost.c:463: endpoint0Size = ((PXUSB_DEV_DESCR)receiveDataBuffer)->bMaxPacketSize0;
      0008FA 90r00r08         [24] 2809 	mov	dptr,#(_receiveDataBuffer + 0x0007)
      0008FD E0               [24] 2810 	movx	a,@dptr
      0008FE 90r00r00         [24] 2811 	mov	dptr,#_endpoint0Size
      000901 F0               [24] 2812 	movx	@dptr,a
                                   2813 ;	USBHost.c:464: if (len < ((PUSB_SETUP_REQ)GetDeviceDescriptorRequest)->wLengthL) {
      000902 90r00r06         [24] 2814 	mov	dptr,#(_GetDeviceDescriptorRequest + 0x0006)
      000905 E4               [12] 2815 	clr	a
      000906 93               [24] 2816 	movc	a,@a+dptr
      000907 FE               [12] 2817 	mov	r6,a
      000908 90r03r00         [24] 2818 	mov	dptr,#_getDeviceDescriptor_len_65536_126
      00090B E0               [24] 2819 	movx	a,@dptr
      00090C FC               [12] 2820 	mov	r4,a
      00090D A3               [24] 2821 	inc	dptr
      00090E E0               [24] 2822 	movx	a,@dptr
      00090F FD               [12] 2823 	mov	r5,a
      000910 7B 00            [12] 2824 	mov	r3,#0x00
      000912 C3               [12] 2825 	clr	c
      000913 EC               [12] 2826 	mov	a,r4
      000914 9E               [12] 2827 	subb	a,r6
      000915 ED               [12] 2828 	mov	a,r5
      000916 9B               [12] 2829 	subb	a,r3
      000917 50 04            [24] 2830 	jnc	00104$
                                   2831 ;	USBHost.c:466: return ERR_USB_BUF_OVER;
      000919 75 82 17         [24] 2832 	mov	dpl,#0x17
      00091C 22               [24] 2833 	ret
      00091D                       2834 00104$:
                                   2835 ;	USBHost.c:468: return res;
      00091D 8F 82            [24] 2836 	mov	dpl,r7
                                   2837 ;	USBHost.c:469: }
      00091F 22               [24] 2838 	ret
                                   2839 ;------------------------------------------------------------
                                   2840 ;Allocation info for local variables in function 'setUsbAddress'
                                   2841 ;------------------------------------------------------------
                                   2842 ;addr                      Allocated with name '_setUsbAddress_addr_65536_129'
                                   2843 ;res                       Allocated with name '_setUsbAddress_res_65536_130'
                                   2844 ;pSetupReq                 Allocated with name '_setUsbAddress_pSetupReq_65536_130'
                                   2845 ;------------------------------------------------------------
                                   2846 ;	USBHost.c:471: static uint8_t setUsbAddress(uint8_t addr)
                                   2847 ;	-----------------------------------------
                                   2848 ;	 function setUsbAddress
                                   2849 ;	-----------------------------------------
      000920                       2850 _setUsbAddress:
      000920 E5 82            [12] 2851 	mov	a,dpl
      000922 90r03r02         [24] 2852 	mov	dptr,#_setUsbAddress_addr_65536_129
      000925 F0               [24] 2853 	movx	@dptr,a
                                   2854 ;	USBHost.c:474: PXUSB_SETUP_REQ pSetupReq = ((PXUSB_SETUP_REQ)TxBuffer);
                                   2855 ;	USBHost.c:475: fillTxBuffer(SetUSBAddressRequest, sizeof(SetUSBAddressRequest));
      000926 90r02rFD         [24] 2856 	mov	dptr,#_fillTxBuffer_PARM_2
      000929 74 08            [12] 2857 	mov	a,#0x08
      00092B F0               [24] 2858 	movx	@dptr,a
      00092C 90r00r18         [24] 2859 	mov	dptr,#_SetUSBAddressRequest
      00092F 12r08r90         [24] 2860 	lcall	_fillTxBuffer
                                   2861 ;	USBHost.c:476: pSetupReq->wValueL = addr;
      000932 90r03r02         [24] 2862 	mov	dptr,#_setUsbAddress_addr_65536_129
      000935 E0               [24] 2863 	movx	a,@dptr
      000936 FF               [12] 2864 	mov	r7,a
      000937 90 01 02         [24] 2865 	mov	dptr,#(_TxBuffer + 0x0002)
      00093A F0               [24] 2866 	movx	@dptr,a
                                   2867 ;	USBHost.c:477: res = hostCtrlTransfer(0, 0, 0);
      00093B 90r02rF1         [24] 2868 	mov	dptr,#_hostCtrlTransfer_PARM_2
      00093E E4               [12] 2869 	clr	a
      00093F F0               [24] 2870 	movx	@dptr,a
      000940 A3               [24] 2871 	inc	dptr
      000941 F0               [24] 2872 	movx	@dptr,a
      000942 A3               [24] 2873 	inc	dptr
      000943 F0               [24] 2874 	movx	@dptr,a
      000944 90r02rF4         [24] 2875 	mov	dptr,#_hostCtrlTransfer_PARM_3
      000947 F0               [24] 2876 	movx	@dptr,a
      000948 A3               [24] 2877 	inc	dptr
      000949 F0               [24] 2878 	movx	@dptr,a
      00094A 90 00 00         [24] 2879 	mov	dptr,#0x0000
      00094D C0 07            [24] 2880 	push	ar7
      00094F 12r05r9D         [24] 2881 	lcall	_hostCtrlTransfer
      000952 AE 82            [24] 2882 	mov	r6,dpl
      000954 D0 07            [24] 2883 	pop	ar7
                                   2884 ;	USBHost.c:478: if (res != ERR_SUCCESS) {
      000956 EE               [12] 2885 	mov	a,r6
      000957 60 03            [24] 2886 	jz	00102$
                                   2887 ;	USBHost.c:479: return res;
      000959 8E 82            [24] 2888 	mov	dpl,r6
      00095B 22               [24] 2889 	ret
      00095C                       2890 00102$:
                                   2891 ;	USBHost.c:483: setHostUsbAddr(addr);
      00095C 8F 82            [24] 2892 	mov	dpl,r7
      00095E C0 06            [24] 2893 	push	ar6
      000960 12r02r72         [24] 2894 	lcall	_setHostUsbAddr
                                   2895 ;	USBHost.c:484: delay(100);
      000963 90 00 64         [24] 2896 	mov	dptr,#0x0064
      000966 12r00r00         [24] 2897 	lcall	_delay
      000969 D0 06            [24] 2898 	pop	ar6
                                   2899 ;	USBHost.c:485: return res;
      00096B 8E 82            [24] 2900 	mov	dpl,r6
                                   2901 ;	USBHost.c:486: }
      00096D 22               [24] 2902 	ret
                                   2903 ;------------------------------------------------------------
                                   2904 ;Allocation info for local variables in function 'setUsbConfig'
                                   2905 ;------------------------------------------------------------
                                   2906 ;cfg                       Allocated with name '_setUsbConfig_cfg_65536_132'
                                   2907 ;pSetupReq                 Allocated with name '_setUsbConfig_pSetupReq_65536_133'
                                   2908 ;------------------------------------------------------------
                                   2909 ;	USBHost.c:488: static uint8_t setUsbConfig(uint8_t cfg)
                                   2910 ;	-----------------------------------------
                                   2911 ;	 function setUsbConfig
                                   2912 ;	-----------------------------------------
      00096E                       2913 _setUsbConfig:
      00096E E5 82            [12] 2914 	mov	a,dpl
      000970 90r03r03         [24] 2915 	mov	dptr,#_setUsbConfig_cfg_65536_132
      000973 F0               [24] 2916 	movx	@dptr,a
                                   2917 ;	USBHost.c:490: PXUSB_SETUP_REQ pSetupReq = ((PXUSB_SETUP_REQ)TxBuffer);
                                   2918 ;	USBHost.c:491: fillTxBuffer(SetupSetUsbConfig, sizeof(SetupSetUsbConfig));
      000974 90r02rFD         [24] 2919 	mov	dptr,#_fillTxBuffer_PARM_2
      000977 74 08            [12] 2920 	mov	a,#0x08
      000979 F0               [24] 2921 	movx	@dptr,a
      00097A 90r00r28         [24] 2922 	mov	dptr,#_SetupSetUsbConfig
      00097D 12r08r90         [24] 2923 	lcall	_fillTxBuffer
                                   2924 ;	USBHost.c:492: pSetupReq->wValueL = cfg;
      000980 90r03r03         [24] 2925 	mov	dptr,#_setUsbConfig_cfg_65536_132
      000983 E0               [24] 2926 	movx	a,@dptr
      000984 90 01 02         [24] 2927 	mov	dptr,#(_TxBuffer + 0x0002)
      000987 F0               [24] 2928 	movx	@dptr,a
                                   2929 ;	USBHost.c:493: return hostCtrlTransfer(0, 0, 0);
      000988 90r02rF1         [24] 2930 	mov	dptr,#_hostCtrlTransfer_PARM_2
      00098B E4               [12] 2931 	clr	a
      00098C F0               [24] 2932 	movx	@dptr,a
      00098D A3               [24] 2933 	inc	dptr
      00098E F0               [24] 2934 	movx	@dptr,a
      00098F A3               [24] 2935 	inc	dptr
      000990 F0               [24] 2936 	movx	@dptr,a
      000991 90r02rF4         [24] 2937 	mov	dptr,#_hostCtrlTransfer_PARM_3
      000994 F0               [24] 2938 	movx	@dptr,a
      000995 A3               [24] 2939 	inc	dptr
      000996 F0               [24] 2940 	movx	@dptr,a
      000997 90 00 00         [24] 2941 	mov	dptr,#0x0000
                                   2942 ;	USBHost.c:494: }
      00099A 02r05r9D         [24] 2943 	ljmp	_hostCtrlTransfer
                                   2944 ;------------------------------------------------------------
                                   2945 ;Allocation info for local variables in function 'getDeviceString'
                                   2946 ;------------------------------------------------------------
                                   2947 ;	USBHost.c:496: static uint8_t getDeviceString()
                                   2948 ;	-----------------------------------------
                                   2949 ;	 function getDeviceString
                                   2950 ;	-----------------------------------------
      00099D                       2951 _getDeviceString:
                                   2952 ;	USBHost.c:498: fillTxBuffer(GetDeviceStringRequest, sizeof(GetDeviceStringRequest));
      00099D 90r02rFD         [24] 2953 	mov	dptr,#_fillTxBuffer_PARM_2
      0009A0 74 08            [12] 2954 	mov	a,#0x08
      0009A2 F0               [24] 2955 	movx	@dptr,a
      0009A3 90r00r20         [24] 2956 	mov	dptr,#_GetDeviceStringRequest
      0009A6 12r08r90         [24] 2957 	lcall	_fillTxBuffer
                                   2958 ;	USBHost.c:499: return hostCtrlTransfer(receiveDataBuffer, 0, RECEIVE_BUFFER_LEN);
      0009A9 90r02rF1         [24] 2959 	mov	dptr,#_hostCtrlTransfer_PARM_2
      0009AC E4               [12] 2960 	clr	a
      0009AD F0               [24] 2961 	movx	@dptr,a
      0009AE A3               [24] 2962 	inc	dptr
      0009AF F0               [24] 2963 	movx	@dptr,a
      0009B0 A3               [24] 2964 	inc	dptr
      0009B1 F0               [24] 2965 	movx	@dptr,a
      0009B2 90r02rF4         [24] 2966 	mov	dptr,#_hostCtrlTransfer_PARM_3
      0009B5 F0               [24] 2967 	movx	@dptr,a
      0009B6 74 02            [12] 2968 	mov	a,#0x02
      0009B8 A3               [24] 2969 	inc	dptr
      0009B9 F0               [24] 2970 	movx	@dptr,a
      0009BA 90r00r01         [24] 2971 	mov	dptr,#_receiveDataBuffer
                                   2972 ;	USBHost.c:500: }
      0009BD 02r05r9D         [24] 2973 	ljmp	_hostCtrlTransfer
                                   2974 ;------------------------------------------------------------
                                   2975 ;Allocation info for local variables in function 'convertStringDescriptor'
                                   2976 ;------------------------------------------------------------
                                   2977 ;strBuffer                 Allocated with name '_convertStringDescriptor_PARM_2'
                                   2978 ;bufferLength              Allocated with name '_convertStringDescriptor_PARM_3'
                                   2979 ;index                     Allocated with name '_convertStringDescriptor_PARM_4'
                                   2980 ;usbBuffer                 Allocated with name '_convertStringDescriptor_usbBuffer_65536_135'
                                   2981 ;i                         Allocated with name '_convertStringDescriptor_i_65536_136'
                                   2982 ;len                       Allocated with name '_convertStringDescriptor_len_65536_136'
                                   2983 ;sloc0                     Allocated with name '_convertStringDescriptor_sloc0_1_0'
                                   2984 ;sloc1                     Allocated with name '_convertStringDescriptor_sloc1_1_0'
                                   2985 ;sloc2                     Allocated with name '_convertStringDescriptor_sloc2_1_0'
                                   2986 ;sloc3                     Allocated with name '_convertStringDescriptor_sloc3_1_0'
                                   2987 ;------------------------------------------------------------
                                   2988 ;	USBHost.c:502: static char convertStringDescriptor(uint8_t __xdata *usbBuffer, uint8_t __xdata *strBuffer, uint16_t bufferLength, uint8_t index)
                                   2989 ;	-----------------------------------------
                                   2990 ;	 function convertStringDescriptor
                                   2991 ;	-----------------------------------------
      0009C0                       2992 _convertStringDescriptor:
      0009C0 AF 83            [24] 2993 	mov	r7,dph
      0009C2 E5 82            [12] 2994 	mov	a,dpl
      0009C4 90r03r09         [24] 2995 	mov	dptr,#_convertStringDescriptor_usbBuffer_65536_135
      0009C7 F0               [24] 2996 	movx	@dptr,a
      0009C8 EF               [12] 2997 	mov	a,r7
      0009C9 A3               [24] 2998 	inc	dptr
      0009CA F0               [24] 2999 	movx	@dptr,a
                                   3000 ;	USBHost.c:506: __xdata uint8_t len = (usbBuffer[0] - 2) >> 1;
      0009CB 90r03r09         [24] 3001 	mov	dptr,#_convertStringDescriptor_usbBuffer_65536_135
      0009CE E0               [24] 3002 	movx	a,@dptr
      0009CF FE               [12] 3003 	mov	r6,a
      0009D0 A3               [24] 3004 	inc	dptr
      0009D1 E0               [24] 3005 	movx	a,@dptr
      0009D2 FF               [12] 3006 	mov	r7,a
      0009D3 8E 82            [24] 3007 	mov	dpl,r6
      0009D5 8F 83            [24] 3008 	mov	dph,r7
      0009D7 E0               [24] 3009 	movx	a,@dptr
      0009D8 7C 00            [12] 3010 	mov	r4,#0x00
      0009DA 24 FE            [12] 3011 	add	a,#0xfe
      0009DC FD               [12] 3012 	mov	r5,a
      0009DD EC               [12] 3013 	mov	a,r4
      0009DE 34 FF            [12] 3014 	addc	a,#0xff
      0009E0 A2 E7            [12] 3015 	mov	c,acc.7
      0009E2 13               [12] 3016 	rrc	a
      0009E3 CD               [12] 3017 	xch	a,r5
      0009E4 13               [12] 3018 	rrc	a
      0009E5 CD               [12] 3019 	xch	a,r5
                                   3020 ;	USBHost.c:509: if (usbBuffer[1] != 3) {
      0009E6 8E 82            [24] 3021 	mov	dpl,r6
      0009E8 8F 83            [24] 3022 	mov	dph,r7
      0009EA A3               [24] 3023 	inc	dptr
      0009EB E0               [24] 3024 	movx	a,@dptr
      0009EC FC               [12] 3025 	mov	r4,a
      0009ED BC 03 02         [24] 3026 	cjne	r4,#0x03,00134$
      0009F0 80 04            [24] 3027 	sjmp	00117$
      0009F2                       3028 00134$:
                                   3029 ;	USBHost.c:510: return 0; // check if device string
      0009F2 75 82 00         [24] 3030 	mov	dpl,#0x00
      0009F5 22               [24] 3031 	ret
      0009F6                       3032 00117$:
      0009F6 90r03r06         [24] 3033 	mov	dptr,#_convertStringDescriptor_PARM_3
      0009F9 E0               [24] 3034 	movx	a,@dptr
      0009FA F5*02            [12] 3035 	mov	_convertStringDescriptor_sloc1_1_0,a
      0009FC A3               [24] 3036 	inc	dptr
      0009FD E0               [24] 3037 	movx	a,@dptr
      0009FE F5*03            [12] 3038 	mov	(_convertStringDescriptor_sloc1_1_0 + 1),a
      000A00 90r03r04         [24] 3039 	mov	dptr,#_convertStringDescriptor_PARM_2
      000A03 E0               [24] 3040 	movx	a,@dptr
      000A04 F5*06            [12] 3041 	mov	_convertStringDescriptor_sloc3_1_0,a
      000A06 A3               [24] 3042 	inc	dptr
      000A07 E0               [24] 3043 	movx	a,@dptr
      000A08 F5*07            [12] 3044 	mov	(_convertStringDescriptor_sloc3_1_0 + 1),a
      000A0A 85*06*00         [24] 3045 	mov	_convertStringDescriptor_sloc0_1_0,_convertStringDescriptor_sloc3_1_0
      000A0D 85*07*01         [24] 3046 	mov	(_convertStringDescriptor_sloc0_1_0 + 1),(_convertStringDescriptor_sloc3_1_0 + 1)
      000A10 78 00            [12] 3047 	mov	r0,#0x00
      000A12                       3048 00109$:
                                   3049 ;	USBHost.c:513: for (; (i < len) && (i < bufferLength - 1); i++) {
      000A12 C3               [12] 3050 	clr	c
      000A13 E8               [12] 3051 	mov	a,r0
      000A14 9D               [12] 3052 	subb	a,r5
      000A15 50 71            [24] 3053 	jnc	00106$
      000A17 C0 05            [24] 3054 	push	ar5
      000A19 AC*02            [24] 3055 	mov	r4,_convertStringDescriptor_sloc1_1_0
      000A1B AD*03            [24] 3056 	mov	r5,(_convertStringDescriptor_sloc1_1_0 + 1)
      000A1D EC               [12] 3057 	mov	a,r4
      000A1E 24 FF            [12] 3058 	add	a,#0xff
      000A20 F5*04            [12] 3059 	mov	_convertStringDescriptor_sloc2_1_0,a
      000A22 ED               [12] 3060 	mov	a,r5
      000A23 34 FF            [12] 3061 	addc	a,#0xff
      000A25 F5*05            [12] 3062 	mov	(_convertStringDescriptor_sloc2_1_0 + 1),a
      000A27 88 03            [24] 3063 	mov	ar3,r0
      000A29 7D 00            [12] 3064 	mov	r5,#0x00
      000A2B C3               [12] 3065 	clr	c
      000A2C EB               [12] 3066 	mov	a,r3
      000A2D 95*04            [12] 3067 	subb	a,_convertStringDescriptor_sloc2_1_0
      000A2F ED               [12] 3068 	mov	a,r5
      000A30 95*05            [12] 3069 	subb	a,(_convertStringDescriptor_sloc2_1_0 + 1)
      000A32 D0 05            [24] 3070 	pop	ar5
      000A34 50 52            [24] 3071 	jnc	00106$
                                   3072 ;	USBHost.c:514: if (usbBuffer[2 + 1 + (i << 1)]) {
      000A36 C0 05            [24] 3073 	push	ar5
      000A38 88 03            [24] 3074 	mov	ar3,r0
      000A3A 7C 00            [12] 3075 	mov	r4,#0x00
      000A3C EB               [12] 3076 	mov	a,r3
      000A3D 2B               [12] 3077 	add	a,r3
      000A3E FB               [12] 3078 	mov	r3,a
      000A3F EC               [12] 3079 	mov	a,r4
      000A40 33               [12] 3080 	rlc	a
      000A41 FC               [12] 3081 	mov	r4,a
      000A42 74 03            [12] 3082 	mov	a,#0x03
      000A44 2B               [12] 3083 	add	a,r3
      000A45 FA               [12] 3084 	mov	r2,a
      000A46 E4               [12] 3085 	clr	a
      000A47 3C               [12] 3086 	addc	a,r4
      000A48 FD               [12] 3087 	mov	r5,a
      000A49 EA               [12] 3088 	mov	a,r2
      000A4A 2E               [12] 3089 	add	a,r6
      000A4B FA               [12] 3090 	mov	r2,a
      000A4C ED               [12] 3091 	mov	a,r5
      000A4D 3F               [12] 3092 	addc	a,r7
      000A4E FD               [12] 3093 	mov	r5,a
      000A4F 8A 82            [24] 3094 	mov	dpl,r2
      000A51 8D 83            [24] 3095 	mov	dph,r5
      000A53 E0               [24] 3096 	movx	a,@dptr
      000A54 D0 05            [24] 3097 	pop	ar5
      000A56 60 0F            [24] 3098 	jz	00104$
                                   3099 ;	USBHost.c:515: strBuffer[i] = '?';
      000A58 E8               [12] 3100 	mov	a,r0
      000A59 25*00            [12] 3101 	add	a,_convertStringDescriptor_sloc0_1_0
      000A5B F5 82            [12] 3102 	mov	dpl,a
      000A5D E4               [12] 3103 	clr	a
      000A5E 35*01            [12] 3104 	addc	a,(_convertStringDescriptor_sloc0_1_0 + 1)
      000A60 F5 83            [12] 3105 	mov	dph,a
      000A62 74 3F            [12] 3106 	mov	a,#0x3f
      000A64 F0               [24] 3107 	movx	@dptr,a
      000A65 80 1E            [24] 3108 	sjmp	00110$
      000A67                       3109 00104$:
                                   3110 ;	USBHost.c:517: strBuffer[i] = usbBuffer[2 + (i << 1)];
      000A67 E8               [12] 3111 	mov	a,r0
      000A68 25*06            [12] 3112 	add	a,_convertStringDescriptor_sloc3_1_0
      000A6A F9               [12] 3113 	mov	r1,a
      000A6B E4               [12] 3114 	clr	a
      000A6C 35*07            [12] 3115 	addc	a,(_convertStringDescriptor_sloc3_1_0 + 1)
      000A6E FA               [12] 3116 	mov	r2,a
      000A6F 74 02            [12] 3117 	mov	a,#0x02
      000A71 2B               [12] 3118 	add	a,r3
      000A72 FB               [12] 3119 	mov	r3,a
      000A73 E4               [12] 3120 	clr	a
      000A74 3C               [12] 3121 	addc	a,r4
      000A75 FC               [12] 3122 	mov	r4,a
      000A76 EB               [12] 3123 	mov	a,r3
      000A77 2E               [12] 3124 	add	a,r6
      000A78 F5 82            [12] 3125 	mov	dpl,a
      000A7A EC               [12] 3126 	mov	a,r4
      000A7B 3F               [12] 3127 	addc	a,r7
      000A7C F5 83            [12] 3128 	mov	dph,a
      000A7E E0               [24] 3129 	movx	a,@dptr
      000A7F FC               [12] 3130 	mov	r4,a
      000A80 89 82            [24] 3131 	mov	dpl,r1
      000A82 8A 83            [24] 3132 	mov	dph,r2
      000A84 F0               [24] 3133 	movx	@dptr,a
      000A85                       3134 00110$:
                                   3135 ;	USBHost.c:513: for (; (i < len) && (i < bufferLength - 1); i++) {
      000A85 08               [12] 3136 	inc	r0
      000A86 80 8A            [24] 3137 	sjmp	00109$
      000A88                       3138 00106$:
                                   3139 ;	USBHost.c:520: strBuffer[i] = 0;
      000A88 E8               [12] 3140 	mov	a,r0
      000A89 25*06            [12] 3141 	add	a,_convertStringDescriptor_sloc3_1_0
      000A8B F5 82            [12] 3142 	mov	dpl,a
      000A8D E4               [12] 3143 	clr	a
      000A8E 35*07            [12] 3144 	addc	a,(_convertStringDescriptor_sloc3_1_0 + 1)
      000A90 F5 83            [12] 3145 	mov	dph,a
      000A92 E4               [12] 3146 	clr	a
      000A93 F0               [24] 3147 	movx	@dptr,a
                                   3148 ;	USBHost.c:522: return 1;
      000A94 75 82 01         [24] 3149 	mov	dpl,#0x01
                                   3150 ;	USBHost.c:523: }
      000A97 22               [24] 3151 	ret
                                   3152 ;------------------------------------------------------------
                                   3153 ;Allocation info for local variables in function 'DEBUG_OUT_USB_BUFFER'
                                   3154 ;------------------------------------------------------------
                                   3155 ;usbBuffer                 Allocated with name '_DEBUG_OUT_USB_BUFFER_usbBuffer_65536_142'
                                   3156 ;i                         Allocated with name '_DEBUG_OUT_USB_BUFFER_i_65536_143'
                                   3157 ;------------------------------------------------------------
                                   3158 ;	USBHost.c:525: static void DEBUG_OUT_USB_BUFFER(uint8_t __xdata *usbBuffer)
                                   3159 ;	-----------------------------------------
                                   3160 ;	 function DEBUG_OUT_USB_BUFFER
                                   3161 ;	-----------------------------------------
      000A98                       3162 _DEBUG_OUT_USB_BUFFER:
      000A98 AF 83            [24] 3163 	mov	r7,dph
      000A9A E5 82            [12] 3164 	mov	a,dpl
      000A9C 90r03r0B         [24] 3165 	mov	dptr,#_DEBUG_OUT_USB_BUFFER_usbBuffer_65536_142
      000A9F F0               [24] 3166 	movx	@dptr,a
      000AA0 EF               [12] 3167 	mov	a,r7
      000AA1 A3               [24] 3168 	inc	dptr
      000AA2 F0               [24] 3169 	movx	@dptr,a
                                   3170 ;	USBHost.c:528: for (i = 0; i < usbBuffer[0]; i++) {
      000AA3 90r03r0B         [24] 3171 	mov	dptr,#_DEBUG_OUT_USB_BUFFER_usbBuffer_65536_142
      000AA6 E0               [24] 3172 	movx	a,@dptr
      000AA7 FE               [12] 3173 	mov	r6,a
      000AA8 A3               [24] 3174 	inc	dptr
      000AA9 E0               [24] 3175 	movx	a,@dptr
      000AAA FF               [12] 3176 	mov	r7,a
      000AAB 7C 00            [12] 3177 	mov	r4,#0x00
      000AAD 7D 00            [12] 3178 	mov	r5,#0x00
      000AAF                       3179 00103$:
      000AAF 8E 82            [24] 3180 	mov	dpl,r6
      000AB1 8F 83            [24] 3181 	mov	dph,r7
      000AB3 E0               [24] 3182 	movx	a,@dptr
      000AB4 FB               [12] 3183 	mov	r3,a
      000AB5 7A 00            [12] 3184 	mov	r2,#0x00
      000AB7 C3               [12] 3185 	clr	c
      000AB8 EC               [12] 3186 	mov	a,r4
      000AB9 9B               [12] 3187 	subb	a,r3
      000ABA ED               [12] 3188 	mov	a,r5
      000ABB 64 80            [12] 3189 	xrl	a,#0x80
      000ABD 8A F0            [24] 3190 	mov	b,r2
      000ABF 63 F0 80         [24] 3191 	xrl	b,#0x80
      000AC2 95 F0            [12] 3192 	subb	a,b
      000AC4 50 07            [24] 3193 	jnc	00105$
      000AC6 0C               [12] 3194 	inc	r4
                                   3195 ;	USBHost.c:531: DEBUG_OUT("\n");
      000AC7 BC 00 E5         [24] 3196 	cjne	r4,#0x00,00103$
      000ACA 0D               [12] 3197 	inc	r5
      000ACB 80 E2            [24] 3198 	sjmp	00103$
      000ACD                       3199 00105$:
                                   3200 ;	USBHost.c:532: }
      000ACD 22               [24] 3201 	ret
                                   3202 ;------------------------------------------------------------
                                   3203 ;Allocation info for local variables in function 'getConfigurationDescriptor'
                                   3204 ;------------------------------------------------------------
                                   3205 ;res                       Allocated with name '_getConfigurationDescriptor_res_65536_146'
                                   3206 ;len                       Allocated with name '_getConfigurationDescriptor_len_65536_146'
                                   3207 ;total                     Allocated with name '_getConfigurationDescriptor_total_65536_146'
                                   3208 ;------------------------------------------------------------
                                   3209 ;	USBHost.c:534: static uint8_t getConfigurationDescriptor()
                                   3210 ;	-----------------------------------------
                                   3211 ;	 function getConfigurationDescriptor
                                   3212 ;	-----------------------------------------
      000ACE                       3213 _getConfigurationDescriptor:
                                   3214 ;	USBHost.c:538: fillTxBuffer(GetConfigurationDescriptorRequest, sizeof(GetConfigurationDescriptorRequest));
      000ACE 90r02rFD         [24] 3215 	mov	dptr,#_fillTxBuffer_PARM_2
      000AD1 74 08            [12] 3216 	mov	a,#0x08
      000AD3 F0               [24] 3217 	movx	@dptr,a
      000AD4 90r00r08         [24] 3218 	mov	dptr,#_GetConfigurationDescriptorRequest
      000AD7 12r08r90         [24] 3219 	lcall	_fillTxBuffer
                                   3220 ;	USBHost.c:540: res = hostCtrlTransfer(receiveDataBuffer, &len, RECEIVE_BUFFER_LEN);
      000ADA 90r02rF1         [24] 3221 	mov	dptr,#_hostCtrlTransfer_PARM_2
      000ADD 74r0D            [12] 3222 	mov	a,#_getConfigurationDescriptor_len_65536_146
      000ADF F0               [24] 3223 	movx	@dptr,a
      000AE0 74s03            [12] 3224 	mov	a,#(_getConfigurationDescriptor_len_65536_146 >> 8)
      000AE2 A3               [24] 3225 	inc	dptr
      000AE3 F0               [24] 3226 	movx	@dptr,a
      000AE4 E4               [12] 3227 	clr	a
      000AE5 A3               [24] 3228 	inc	dptr
      000AE6 F0               [24] 3229 	movx	@dptr,a
      000AE7 90r02rF4         [24] 3230 	mov	dptr,#_hostCtrlTransfer_PARM_3
      000AEA F0               [24] 3231 	movx	@dptr,a
      000AEB 74 02            [12] 3232 	mov	a,#0x02
      000AED A3               [24] 3233 	inc	dptr
      000AEE F0               [24] 3234 	movx	@dptr,a
      000AEF 90r00r01         [24] 3235 	mov	dptr,#_receiveDataBuffer
      000AF2 12r05r9D         [24] 3236 	lcall	_hostCtrlTransfer
                                   3237 ;	USBHost.c:541: if (res != ERR_SUCCESS) {
      000AF5 E5 82            [12] 3238 	mov	a,dpl
      000AF7 FF               [12] 3239 	mov	r7,a
      000AF8 60 03            [24] 3240 	jz	00102$
                                   3241 ;	USBHost.c:542: return res;
      000AFA 8F 82            [24] 3242 	mov	dpl,r7
      000AFC 22               [24] 3243 	ret
      000AFD                       3244 00102$:
                                   3245 ;	USBHost.c:546: if (len < ((PUSB_SETUP_REQ)GetConfigurationDescriptorRequest)->wLengthL) {
      000AFD 90r00r0E         [24] 3246 	mov	dptr,#(_GetConfigurationDescriptorRequest + 0x0006)
      000B00 E4               [12] 3247 	clr	a
      000B01 93               [24] 3248 	movc	a,@a+dptr
      000B02 FF               [12] 3249 	mov	r7,a
      000B03 90r03r0D         [24] 3250 	mov	dptr,#_getConfigurationDescriptor_len_65536_146
      000B06 E0               [24] 3251 	movx	a,@dptr
      000B07 FD               [12] 3252 	mov	r5,a
      000B08 A3               [24] 3253 	inc	dptr
      000B09 E0               [24] 3254 	movx	a,@dptr
      000B0A FE               [12] 3255 	mov	r6,a
      000B0B 7C 00            [12] 3256 	mov	r4,#0x00
      000B0D C3               [12] 3257 	clr	c
      000B0E ED               [12] 3258 	mov	a,r5
      000B0F 9F               [12] 3259 	subb	a,r7
      000B10 EE               [12] 3260 	mov	a,r6
      000B11 9C               [12] 3261 	subb	a,r4
      000B12 50 04            [24] 3262 	jnc	00104$
                                   3263 ;	USBHost.c:547: return ERR_USB_BUF_OVER;
      000B14 75 82 17         [24] 3264 	mov	dpl,#0x17
      000B17 22               [24] 3265 	ret
      000B18                       3266 00104$:
                                   3267 ;	USBHost.c:551: total = ((PXUSB_CFG_DESCR)receiveDataBuffer)->wTotalLengthL + (((PXUSB_CFG_DESCR)receiveDataBuffer)->wTotalLengthH << 8);
      000B18 90r00r03         [24] 3268 	mov	dptr,#(_receiveDataBuffer + 0x0002)
      000B1B E0               [24] 3269 	movx	a,@dptr
      000B1C FF               [12] 3270 	mov	r7,a
      000B1D 7E 00            [12] 3271 	mov	r6,#0x00
      000B1F 90r00r04         [24] 3272 	mov	dptr,#(_receiveDataBuffer + 0x0003)
      000B22 E0               [24] 3273 	movx	a,@dptr
      000B23 FC               [12] 3274 	mov	r4,a
      000B24 E4               [12] 3275 	clr	a
      000B25 2F               [12] 3276 	add	a,r7
      000B26 FF               [12] 3277 	mov	r7,a
      000B27 EC               [12] 3278 	mov	a,r4
      000B28 3E               [12] 3279 	addc	a,r6
      000B29 FE               [12] 3280 	mov	r6,a
                                   3281 ;	USBHost.c:552: fillTxBuffer(GetConfigurationDescriptorRequest, sizeof(GetConfigurationDescriptorRequest));
      000B2A 90r02rFD         [24] 3282 	mov	dptr,#_fillTxBuffer_PARM_2
      000B2D 74 08            [12] 3283 	mov	a,#0x08
      000B2F F0               [24] 3284 	movx	@dptr,a
      000B30 90r00r08         [24] 3285 	mov	dptr,#_GetConfigurationDescriptorRequest
      000B33 C0 07            [24] 3286 	push	ar7
      000B35 C0 06            [24] 3287 	push	ar6
      000B37 12r08r90         [24] 3288 	lcall	_fillTxBuffer
      000B3A D0 06            [24] 3289 	pop	ar6
      000B3C D0 07            [24] 3290 	pop	ar7
                                   3291 ;	USBHost.c:553: ((PUSB_SETUP_REQ)TxBuffer)->wLengthL = (uint8_t)(total & 255);
      000B3E 8F 05            [24] 3292 	mov	ar5,r7
      000B40 90 01 06         [24] 3293 	mov	dptr,#(_TxBuffer + 0x0006)
      000B43 ED               [12] 3294 	mov	a,r5
      000B44 F0               [24] 3295 	movx	@dptr,a
                                   3296 ;	USBHost.c:554: ((PUSB_SETUP_REQ)TxBuffer)->wLengthH = (uint8_t)(total >> 8);
      000B45 8E 07            [24] 3297 	mov	ar7,r6
      000B47 90 01 07         [24] 3298 	mov	dptr,#(_TxBuffer + 0x0007)
      000B4A EF               [12] 3299 	mov	a,r7
      000B4B F0               [24] 3300 	movx	@dptr,a
                                   3301 ;	USBHost.c:555: res = hostCtrlTransfer(receiveDataBuffer, &len, RECEIVE_BUFFER_LEN);
      000B4C 90r02rF1         [24] 3302 	mov	dptr,#_hostCtrlTransfer_PARM_2
      000B4F 74r0D            [12] 3303 	mov	a,#_getConfigurationDescriptor_len_65536_146
      000B51 F0               [24] 3304 	movx	@dptr,a
      000B52 74s03            [12] 3305 	mov	a,#(_getConfigurationDescriptor_len_65536_146 >> 8)
      000B54 A3               [24] 3306 	inc	dptr
      000B55 F0               [24] 3307 	movx	@dptr,a
      000B56 E4               [12] 3308 	clr	a
      000B57 A3               [24] 3309 	inc	dptr
      000B58 F0               [24] 3310 	movx	@dptr,a
      000B59 90r02rF4         [24] 3311 	mov	dptr,#_hostCtrlTransfer_PARM_3
      000B5C F0               [24] 3312 	movx	@dptr,a
      000B5D 74 02            [12] 3313 	mov	a,#0x02
      000B5F A3               [24] 3314 	inc	dptr
      000B60 F0               [24] 3315 	movx	@dptr,a
      000B61 90r00r01         [24] 3316 	mov	dptr,#_receiveDataBuffer
      000B64 12r05r9D         [24] 3317 	lcall	_hostCtrlTransfer
                                   3318 ;	USBHost.c:556: if (res != ERR_SUCCESS) {
      000B67 E5 82            [12] 3319 	mov	a,dpl
      000B69 FF               [12] 3320 	mov	r7,a
      000B6A 60 03            [24] 3321 	jz	00106$
                                   3322 ;	USBHost.c:557: return res;
      000B6C 8F 82            [24] 3323 	mov	dpl,r7
      000B6E 22               [24] 3324 	ret
      000B6F                       3325 00106$:
                                   3326 ;	USBHost.c:560: return ERR_SUCCESS;
      000B6F 75 82 00         [24] 3327 	mov	dpl,#0x00
                                   3328 ;	USBHost.c:561: }
      000B72 22               [24] 3329 	ret
                                   3330 ;------------------------------------------------------------
                                   3331 ;Allocation info for local variables in function 'resetHubDevices'
                                   3332 ;------------------------------------------------------------
                                   3333 ;hubindex                  Allocated with name '_resetHubDevices_hubindex_65536_150'
                                   3334 ;hiddevice                 Allocated with name '_resetHubDevices_hiddevice_65536_151'
                                   3335 ;------------------------------------------------------------
                                   3336 ;	USBHost.c:575: void resetHubDevices(uint8_t hubindex)
                                   3337 ;	-----------------------------------------
                                   3338 ;	 function resetHubDevices
                                   3339 ;	-----------------------------------------
      000B73                       3340 _resetHubDevices:
      000B73 E5 82            [12] 3341 	mov	a,dpl
      000B75 90r03r0F         [24] 3342 	mov	dptr,#_resetHubDevices_hubindex_65536_150
      000B78 F0               [24] 3343 	movx	@dptr,a
                                   3344 ;	USBHost.c:578: VendorProductID[hubindex].idVendorL = 0;
      000B79 E0               [24] 3345 	movx	a,@dptr
      000B7A FF               [12] 3346 	mov	r7,a
      000B7B 75 F0 10         [24] 3347 	mov	b,#0x10
      000B7E A4               [48] 3348 	mul	ab
      000B7F FD               [12] 3349 	mov	r5,a
      000B80 AE F0            [24] 3350 	mov	r6,b
      000B82 24rB1            [12] 3351 	add	a,#_VendorProductID
      000B84 F5 82            [12] 3352 	mov	dpl,a
      000B86 EE               [12] 3353 	mov	a,r6
      000B87 34s02            [12] 3354 	addc	a,#(_VendorProductID >> 8)
      000B89 F5 83            [12] 3355 	mov	dph,a
      000B8B E4               [12] 3356 	clr	a
      000B8C F0               [24] 3357 	movx	@dptr,a
      000B8D A3               [24] 3358 	inc	dptr
      000B8E F0               [24] 3359 	movx	@dptr,a
      000B8F A3               [24] 3360 	inc	dptr
      000B90 F0               [24] 3361 	movx	@dptr,a
      000B91 A3               [24] 3362 	inc	dptr
      000B92 F0               [24] 3363 	movx	@dptr,a
                                   3364 ;	USBHost.c:579: VendorProductID[hubindex].idVendorH = 0;
      000B93 ED               [12] 3365 	mov	a,r5
      000B94 24rB1            [12] 3366 	add	a,#_VendorProductID
      000B96 FD               [12] 3367 	mov	r5,a
      000B97 EE               [12] 3368 	mov	a,r6
      000B98 34s02            [12] 3369 	addc	a,#(_VendorProductID >> 8)
      000B9A FE               [12] 3370 	mov	r6,a
      000B9B 8D 82            [24] 3371 	mov	dpl,r5
      000B9D 8E 83            [24] 3372 	mov	dph,r6
      000B9F A3               [24] 3373 	inc	dptr
      000BA0 A3               [24] 3374 	inc	dptr
      000BA1 A3               [24] 3375 	inc	dptr
      000BA2 A3               [24] 3376 	inc	dptr
      000BA3 E4               [12] 3377 	clr	a
      000BA4 F0               [24] 3378 	movx	@dptr,a
      000BA5 A3               [24] 3379 	inc	dptr
      000BA6 F0               [24] 3380 	movx	@dptr,a
      000BA7 A3               [24] 3381 	inc	dptr
      000BA8 F0               [24] 3382 	movx	@dptr,a
      000BA9 A3               [24] 3383 	inc	dptr
      000BAA F0               [24] 3384 	movx	@dptr,a
                                   3385 ;	USBHost.c:580: VendorProductID[hubindex].idProductL = 0;
      000BAB 74 08            [12] 3386 	mov	a,#0x08
      000BAD 2D               [12] 3387 	add	a,r5
      000BAE F5 82            [12] 3388 	mov	dpl,a
      000BB0 E4               [12] 3389 	clr	a
      000BB1 3E               [12] 3390 	addc	a,r6
      000BB2 F5 83            [12] 3391 	mov	dph,a
      000BB4 E4               [12] 3392 	clr	a
      000BB5 F0               [24] 3393 	movx	@dptr,a
      000BB6 A3               [24] 3394 	inc	dptr
      000BB7 F0               [24] 3395 	movx	@dptr,a
      000BB8 A3               [24] 3396 	inc	dptr
      000BB9 F0               [24] 3397 	movx	@dptr,a
      000BBA A3               [24] 3398 	inc	dptr
      000BBB F0               [24] 3399 	movx	@dptr,a
                                   3400 ;	USBHost.c:581: VendorProductID[hubindex].idProductH = 0;
      000BBC 74 0C            [12] 3401 	mov	a,#0x0c
      000BBE 2D               [12] 3402 	add	a,r5
      000BBF F5 82            [12] 3403 	mov	dpl,a
      000BC1 E4               [12] 3404 	clr	a
      000BC2 3E               [12] 3405 	addc	a,r6
      000BC3 F5 83            [12] 3406 	mov	dph,a
      000BC5 E4               [12] 3407 	clr	a
      000BC6 F0               [24] 3408 	movx	@dptr,a
      000BC7 A3               [24] 3409 	inc	dptr
      000BC8 F0               [24] 3410 	movx	@dptr,a
      000BC9 A3               [24] 3411 	inc	dptr
      000BCA F0               [24] 3412 	movx	@dptr,a
      000BCB A3               [24] 3413 	inc	dptr
      000BCC F0               [24] 3414 	movx	@dptr,a
                                   3415 ;	USBHost.c:583: for (hiddevice = 0; hiddevice < MAX_HID_DEVICES; hiddevice++) {
      000BCD 7E 00            [12] 3416 	mov	r6,#0x00
      000BCF                       3417 00104$:
                                   3418 ;	USBHost.c:584: if (HIDdevice[hiddevice].rootHub == hubindex) {
      000BCF EE               [12] 3419 	mov	a,r6
      000BD0 75 F0 16         [24] 3420 	mov	b,#0x16
      000BD3 A4               [48] 3421 	mul	ab
      000BD4 24r01            [12] 3422 	add	a,#_HIDdevice
      000BD6 FC               [12] 3423 	mov	r4,a
      000BD7 74s02            [12] 3424 	mov	a,#(_HIDdevice >> 8)
      000BD9 35 F0            [12] 3425 	addc	a,b
      000BDB FD               [12] 3426 	mov	r5,a
      000BDC 74 01            [12] 3427 	mov	a,#0x01
      000BDE 2C               [12] 3428 	add	a,r4
      000BDF FA               [12] 3429 	mov	r2,a
      000BE0 E4               [12] 3430 	clr	a
      000BE1 3D               [12] 3431 	addc	a,r5
      000BE2 FB               [12] 3432 	mov	r3,a
      000BE3 8A 82            [24] 3433 	mov	dpl,r2
      000BE5 8B 83            [24] 3434 	mov	dph,r3
      000BE7 E0               [24] 3435 	movx	a,@dptr
      000BE8 B5 07 29         [24] 3436 	cjne	a,ar7,00105$
                                   3437 ;	USBHost.c:585: HIDdevice[hiddevice].connected = 0;
      000BEB 8C 82            [24] 3438 	mov	dpl,r4
      000BED 8D 83            [24] 3439 	mov	dph,r5
      000BEF E4               [12] 3440 	clr	a
      000BF0 F0               [24] 3441 	movx	@dptr,a
                                   3442 ;	USBHost.c:586: HIDdevice[hiddevice].rootHub = 0;
      000BF1 8A 82            [24] 3443 	mov	dpl,r2
      000BF3 8B 83            [24] 3444 	mov	dph,r3
      000BF5 F0               [24] 3445 	movx	@dptr,a
                                   3446 ;	USBHost.c:587: HIDdevice[hiddevice].interface = 0;
      000BF6 8C 82            [24] 3447 	mov	dpl,r4
      000BF8 8D 83            [24] 3448 	mov	dph,r5
      000BFA A3               [24] 3449 	inc	dptr
      000BFB A3               [24] 3450 	inc	dptr
      000BFC F0               [24] 3451 	movx	@dptr,a
                                   3452 ;	USBHost.c:588: HIDdevice[hiddevice].endPoint = 0;
      000BFD 8C 82            [24] 3453 	mov	dpl,r4
      000BFF 8D 83            [24] 3454 	mov	dph,r5
      000C01 A3               [24] 3455 	inc	dptr
      000C02 A3               [24] 3456 	inc	dptr
      000C03 A3               [24] 3457 	inc	dptr
      000C04 F0               [24] 3458 	movx	@dptr,a
                                   3459 ;	USBHost.c:589: HIDdevice[hiddevice].type = 0;
      000C05 8C 82            [24] 3460 	mov	dpl,r4
      000C07 8D 83            [24] 3461 	mov	dph,r5
      000C09 A3               [24] 3462 	inc	dptr
      000C0A A3               [24] 3463 	inc	dptr
      000C0B A3               [24] 3464 	inc	dptr
      000C0C A3               [24] 3465 	inc	dptr
      000C0D F0               [24] 3466 	movx	@dptr,a
      000C0E A3               [24] 3467 	inc	dptr
      000C0F F0               [24] 3468 	movx	@dptr,a
      000C10 A3               [24] 3469 	inc	dptr
      000C11 F0               [24] 3470 	movx	@dptr,a
      000C12 A3               [24] 3471 	inc	dptr
      000C13 F0               [24] 3472 	movx	@dptr,a
      000C14                       3473 00105$:
                                   3474 ;	USBHost.c:583: for (hiddevice = 0; hiddevice < MAX_HID_DEVICES; hiddevice++) {
      000C14 0E               [12] 3475 	inc	r6
      000C15 BE 08 00         [24] 3476 	cjne	r6,#0x08,00119$
      000C18                       3477 00119$:
      000C18 40 B5            [24] 3478 	jc	00104$
                                   3479 ;	USBHost.c:592: }
      000C1A 22               [24] 3480 	ret
                                   3481 ;------------------------------------------------------------
                                   3482 ;Allocation info for local variables in function 'pollHIDdevice'
                                   3483 ;------------------------------------------------------------
                                   3484 ;sloc0                     Allocated with name '_pollHIDdevice_sloc0_1_0'
                                   3485 ;dx                        Allocated with name '_pollHIDdevice_PARM_2'
                                   3486 ;dy                        Allocated with name '_pollHIDdevice_PARM_3'
                                   3487 ;dwheel                    Allocated with name '_pollHIDdevice_PARM_4'
                                   3488 ;buttons                   Allocated with name '_pollHIDdevice_buttons_65536_155'
                                   3489 ;res                       Allocated with name '_pollHIDdevice_res_65536_156'
                                   3490 ;hiddevice                 Allocated with name '_pollHIDdevice_hiddevice_65536_156'
                                   3491 ;len                       Allocated with name '_pollHIDdevice_len_65536_156'
                                   3492 ;report                    Allocated with name '_pollHIDdevice_report_65536_156'
                                   3493 ;map                       Allocated with name '_pollHIDdevice_map_65536_156'
                                   3494 ;------------------------------------------------------------
                                   3495 ;	USBHost.c:594: void pollHIDdevice(uint32_t * buttons, int32_t * dx, int32_t * dy, int32_t * dwheel)
                                   3496 ;	-----------------------------------------
                                   3497 ;	 function pollHIDdevice
                                   3498 ;	-----------------------------------------
      000C1B                       3499 _pollHIDdevice:
      000C1B AF F0            [24] 3500 	mov	r7,b
      000C1D AE 83            [24] 3501 	mov	r6,dph
      000C1F E5 82            [12] 3502 	mov	a,dpl
      000C21 90r03r19         [24] 3503 	mov	dptr,#_pollHIDdevice_buttons_65536_155
      000C24 F0               [24] 3504 	movx	@dptr,a
      000C25 EE               [12] 3505 	mov	a,r6
      000C26 A3               [24] 3506 	inc	dptr
      000C27 F0               [24] 3507 	movx	@dptr,a
      000C28 EF               [12] 3508 	mov	a,r7
      000C29 A3               [24] 3509 	inc	dptr
      000C2A F0               [24] 3510 	movx	@dptr,a
                                   3511 ;	USBHost.c:602: for (hiddevice = 0; hiddevice < MAX_HID_DEVICES; hiddevice++) {
      000C2B 7F 00            [12] 3512 	mov	r7,#0x00
      000C2D                       3513 00123$:
                                   3514 ;	USBHost.c:603: if (HIDdevice[hiddevice].connected && HIDdevice[hiddevice].type == REPORT_USAGE_MOUSE) {
      000C2D EF               [12] 3515 	mov	a,r7
      000C2E 75 F0 16         [24] 3516 	mov	b,#0x16
      000C31 A4               [48] 3517 	mul	ab
      000C32 FD               [12] 3518 	mov	r5,a
      000C33 AE F0            [24] 3519 	mov	r6,b
      000C35 24r01            [12] 3520 	add	a,#_HIDdevice
      000C37 FB               [12] 3521 	mov	r3,a
      000C38 EE               [12] 3522 	mov	a,r6
      000C39 34s02            [12] 3523 	addc	a,#(_HIDdevice >> 8)
      000C3B FC               [12] 3524 	mov	r4,a
      000C3C 8B 82            [24] 3525 	mov	dpl,r3
      000C3E 8C 83            [24] 3526 	mov	dph,r4
      000C40 E0               [24] 3527 	movx	a,@dptr
      000C41 70 03            [24] 3528 	jnz	00187$
      000C43 02r0Fr6A         [24] 3529 	ljmp	00124$
      000C46                       3530 00187$:
      000C46 ED               [12] 3531 	mov	a,r5
      000C47 24r01            [12] 3532 	add	a,#_HIDdevice
      000C49 FD               [12] 3533 	mov	r5,a
      000C4A EE               [12] 3534 	mov	a,r6
      000C4B 34s02            [12] 3535 	addc	a,#(_HIDdevice >> 8)
      000C4D FE               [12] 3536 	mov	r6,a
      000C4E 8D 82            [24] 3537 	mov	dpl,r5
      000C50 8E 83            [24] 3538 	mov	dph,r6
      000C52 A3               [24] 3539 	inc	dptr
      000C53 A3               [24] 3540 	inc	dptr
      000C54 A3               [24] 3541 	inc	dptr
      000C55 A3               [24] 3542 	inc	dptr
      000C56 E0               [24] 3543 	movx	a,@dptr
      000C57 F9               [12] 3544 	mov	r1,a
      000C58 A3               [24] 3545 	inc	dptr
      000C59 E0               [24] 3546 	movx	a,@dptr
      000C5A FA               [12] 3547 	mov	r2,a
      000C5B A3               [24] 3548 	inc	dptr
      000C5C E0               [24] 3549 	movx	a,@dptr
      000C5D FB               [12] 3550 	mov	r3,a
      000C5E A3               [24] 3551 	inc	dptr
      000C5F E0               [24] 3552 	movx	a,@dptr
      000C60 FC               [12] 3553 	mov	r4,a
      000C61 B9 02 0B         [24] 3554 	cjne	r1,#0x02,00188$
      000C64 BA 00 08         [24] 3555 	cjne	r2,#0x00,00188$
      000C67 BB 00 05         [24] 3556 	cjne	r3,#0x00,00188$
      000C6A BC 00 02         [24] 3557 	cjne	r4,#0x00,00188$
      000C6D 80 03            [24] 3558 	sjmp	00189$
      000C6F                       3559 00188$:
      000C6F 02r0Fr6A         [24] 3560 	ljmp	00124$
      000C72                       3561 00189$:
                                   3562 ;	USBHost.c:604: selectHubPort(HIDdevice[hiddevice].rootHub, 0);
      000C72 8D 82            [24] 3563 	mov	dpl,r5
      000C74 8E 83            [24] 3564 	mov	dph,r6
      000C76 A3               [24] 3565 	inc	dptr
      000C77 E0               [24] 3566 	movx	a,@dptr
      000C78 FC               [12] 3567 	mov	r4,a
      000C79 90r02rE9         [24] 3568 	mov	dptr,#_selectHubPort_PARM_2
      000C7C E4               [12] 3569 	clr	a
      000C7D F0               [24] 3570 	movx	@dptr,a
      000C7E 8C 82            [24] 3571 	mov	dpl,r4
      000C80 C0 07            [24] 3572 	push	ar7
      000C82 C0 06            [24] 3573 	push	ar6
      000C84 C0 05            [24] 3574 	push	ar5
      000C86 12r03rAA         [24] 3575 	lcall	_selectHubPort
      000C89 D0 05            [24] 3576 	pop	ar5
      000C8B D0 06            [24] 3577 	pop	ar6
      000C8D D0 07            [24] 3578 	pop	ar7
                                   3579 ;	USBHost.c:605: res = hostTransfer(USB_PID_IN << 4 | HIDdevice[hiddevice].endPoint & 0x7F,
      000C8F 8D 82            [24] 3580 	mov	dpl,r5
      000C91 8E 83            [24] 3581 	mov	dph,r6
      000C93 A3               [24] 3582 	inc	dptr
      000C94 A3               [24] 3583 	inc	dptr
      000C95 A3               [24] 3584 	inc	dptr
      000C96 E0               [24] 3585 	movx	a,@dptr
      000C97 FE               [12] 3586 	mov	r6,a
      000C98 74 7F            [12] 3587 	mov	a,#0x7f
      000C9A 5E               [12] 3588 	anl	a,r6
      000C9B 44 90            [12] 3589 	orl	a,#0x90
      000C9D FD               [12] 3590 	mov	r5,a
                                   3591 ;	USBHost.c:606: HIDdevice[hiddevice].endPoint & 0x80 ? bUH_R_TOG | bUH_T_TOG : 0, 0);
      000C9E EE               [12] 3592 	mov	a,r6
      000C9F 30 E7 06         [24] 3593 	jnb	acc.7,00127$
      000CA2 7C C0            [12] 3594 	mov	r4,#0xc0
      000CA4 7E 00            [12] 3595 	mov	r6,#0x00
      000CA6 80 04            [24] 3596 	sjmp	00128$
      000CA8                       3597 00127$:
      000CA8 7C 00            [12] 3598 	mov	r4,#0x00
      000CAA 7E 00            [12] 3599 	mov	r6,#0x00
      000CAC                       3600 00128$:
      000CAC 90r02rEB         [24] 3601 	mov	dptr,#_hostTransfer_PARM_2
      000CAF EC               [12] 3602 	mov	a,r4
      000CB0 F0               [24] 3603 	movx	@dptr,a
      000CB1 90r02rEC         [24] 3604 	mov	dptr,#_hostTransfer_PARM_3
      000CB4 E4               [12] 3605 	clr	a
      000CB5 F0               [24] 3606 	movx	@dptr,a
      000CB6 A3               [24] 3607 	inc	dptr
      000CB7 F0               [24] 3608 	movx	@dptr,a
      000CB8 8D 82            [24] 3609 	mov	dpl,r5
      000CBA C0 07            [24] 3610 	push	ar7
      000CBC 12r03rDC         [24] 3611 	lcall	_hostTransfer
      000CBF E5 82            [12] 3612 	mov	a,dpl
      000CC1 D0 07            [24] 3613 	pop	ar7
                                   3614 ;	USBHost.c:607: if (res == ERR_SUCCESS) {
      000CC3 60 03            [24] 3615 	jz	00191$
      000CC5 02r0Fr6A         [24] 3616 	ljmp	00124$
      000CC8                       3617 00191$:
                                   3618 ;	USBHost.c:608: HIDdevice[hiddevice].endPoint ^= 0x80;
      000CC8 EF               [12] 3619 	mov	a,r7
      000CC9 75 F0 16         [24] 3620 	mov	b,#0x16
      000CCC A4               [48] 3621 	mul	ab
      000CCD 24r01            [12] 3622 	add	a,#_HIDdevice
      000CCF FD               [12] 3623 	mov	r5,a
      000CD0 74s02            [12] 3624 	mov	a,#(_HIDdevice >> 8)
      000CD2 35 F0            [12] 3625 	addc	a,b
      000CD4 FE               [12] 3626 	mov	r6,a
      000CD5 74 03            [12] 3627 	mov	a,#0x03
      000CD7 2D               [12] 3628 	add	a,r5
      000CD8 FB               [12] 3629 	mov	r3,a
      000CD9 E4               [12] 3630 	clr	a
      000CDA 3E               [12] 3631 	addc	a,r6
      000CDB FC               [12] 3632 	mov	r4,a
      000CDC 8B 82            [24] 3633 	mov	dpl,r3
      000CDE 8C 83            [24] 3634 	mov	dph,r4
      000CE0 E0               [24] 3635 	movx	a,@dptr
      000CE1 FA               [12] 3636 	mov	r2,a
      000CE2 63 02 80         [24] 3637 	xrl	ar2,#0x80
      000CE5 8B 82            [24] 3638 	mov	dpl,r3
      000CE7 8C 83            [24] 3639 	mov	dph,r4
      000CE9 EA               [12] 3640 	mov	a,r2
      000CEA F0               [24] 3641 	movx	@dptr,a
                                   3642 ;	USBHost.c:609: len = USB_RX_LEN;
      000CEB 90r03r1C         [24] 3643 	mov	dptr,#_pollHIDdevice_len_65536_156
      000CEE E5 D1            [12] 3644 	mov	a,_USB_RX_LEN
      000CF0 F0               [24] 3645 	movx	@dptr,a
                                   3646 ;	USBHost.c:610: if (len) {
      000CF1 E0               [24] 3647 	movx	a,@dptr
      000CF2 70 03            [24] 3648 	jnz	00192$
      000CF4 02r0Fr6A         [24] 3649 	ljmp	00124$
      000CF7                       3650 00192$:
                                   3651 ;	USBHost.c:611: map = &HIDdevice[hiddevice].mouse_map;
      000CF7 74 08            [12] 3652 	mov	a,#0x08
      000CF9 2D               [12] 3653 	add	a,r5
      000CFA FB               [12] 3654 	mov	r3,a
      000CFB E4               [12] 3655 	clr	a
      000CFC 3E               [12] 3656 	addc	a,r6
      000CFD FC               [12] 3657 	mov	r4,a
                                   3658 ;	USBHost.c:612: report = RxBuffer;
      000CFE 90r03r1D         [24] 3659 	mov	dptr,#_pollHIDdevice_report_65536_156
      000D01 74 00            [12] 3660 	mov	a,#_RxBuffer
      000D03 F0               [24] 3661 	movx	@dptr,a
      000D04 74 00            [12] 3662 	mov	a,#(_RxBuffer >> 8)
      000D06 A3               [24] 3663 	inc	dptr
      000D07 F0               [24] 3664 	movx	@dptr,a
                                   3665 ;	USBHost.c:613: if (map->report_id != 0) {
      000D08 8B 82            [24] 3666 	mov	dpl,r3
      000D0A 8C 83            [24] 3667 	mov	dph,r4
      000D0C E0               [24] 3668 	movx	a,@dptr
      000D0D FA               [12] 3669 	mov	r2,a
      000D0E 60 15            [24] 3670 	jz	00104$
                                   3671 ;	USBHost.c:614: if (report[0] != map->report_id) {
      000D10 90 00 00         [24] 3672 	mov	dptr,#_RxBuffer
      000D13 E0               [24] 3673 	movx	a,@dptr
      000D14 F9               [12] 3674 	mov	r1,a
      000D15 B5 02 02         [24] 3675 	cjne	a,ar2,00194$
      000D18 80 01            [24] 3676 	sjmp	00102$
      000D1A                       3677 00194$:
                                   3678 ;	USBHost.c:616: return;
      000D1A 22               [24] 3679 	ret
      000D1B                       3680 00102$:
                                   3681 ;	USBHost.c:618: report++;
      000D1B 90r03r1D         [24] 3682 	mov	dptr,#_pollHIDdevice_report_65536_156
      000D1E 74 01            [12] 3683 	mov	a,#0x01
      000D20 F0               [24] 3684 	movx	@dptr,a
      000D21 74 00            [12] 3685 	mov	a,#(_RxBuffer >> 8)
      000D23 A3               [24] 3686 	inc	dptr
      000D24 F0               [24] 3687 	movx	@dptr,a
      000D25                       3688 00104$:
                                   3689 ;	USBHost.c:621: if (len - (map->report_id?1:0) < (map->report_length_bits + 7) >> 3) {
      000D25 90r03r1C         [24] 3690 	mov	dptr,#_pollHIDdevice_len_65536_156
      000D28 E0               [24] 3691 	movx	a,@dptr
      000D29 F9               [12] 3692 	mov	r1,a
      000D2A 7A 00            [12] 3693 	mov	r2,#0x00
      000D2C 8B 82            [24] 3694 	mov	dpl,r3
      000D2E 8C 83            [24] 3695 	mov	dph,r4
      000D30 E0               [24] 3696 	movx	a,@dptr
      000D31 60 06            [24] 3697 	jz	00129$
      000D33 7B 01            [12] 3698 	mov	r3,#0x01
      000D35 7C 00            [12] 3699 	mov	r4,#0x00
      000D37 80 04            [24] 3700 	sjmp	00130$
      000D39                       3701 00129$:
      000D39 7B 00            [12] 3702 	mov	r3,#0x00
      000D3B 7C 00            [12] 3703 	mov	r4,#0x00
      000D3D                       3704 00130$:
      000D3D E9               [12] 3705 	mov	a,r1
      000D3E C3               [12] 3706 	clr	c
      000D3F 9B               [12] 3707 	subb	a,r3
      000D40 F9               [12] 3708 	mov	r1,a
      000D41 EA               [12] 3709 	mov	a,r2
      000D42 9C               [12] 3710 	subb	a,r4
      000D43 FA               [12] 3711 	mov	r2,a
      000D44 74 15            [12] 3712 	mov	a,#0x15
      000D46 2D               [12] 3713 	add	a,r5
      000D47 F5 82            [12] 3714 	mov	dpl,a
      000D49 E4               [12] 3715 	clr	a
      000D4A 3E               [12] 3716 	addc	a,r6
      000D4B F5 83            [12] 3717 	mov	dph,a
      000D4D E0               [24] 3718 	movx	a,@dptr
      000D4E FC               [12] 3719 	mov	r4,a
      000D4F 7B 00            [12] 3720 	mov	r3,#0x00
      000D51 74 07            [12] 3721 	mov	a,#0x07
      000D53 2C               [12] 3722 	add	a,r4
      000D54 FC               [12] 3723 	mov	r4,a
      000D55 E4               [12] 3724 	clr	a
      000D56 3B               [12] 3725 	addc	a,r3
      000D57 C4               [12] 3726 	swap	a
      000D58 23               [12] 3727 	rl	a
      000D59 CC               [12] 3728 	xch	a,r4
      000D5A C4               [12] 3729 	swap	a
      000D5B 23               [12] 3730 	rl	a
      000D5C 54 1F            [12] 3731 	anl	a,#0x1f
      000D5E 6C               [12] 3732 	xrl	a,r4
      000D5F CC               [12] 3733 	xch	a,r4
      000D60 54 1F            [12] 3734 	anl	a,#0x1f
      000D62 CC               [12] 3735 	xch	a,r4
      000D63 6C               [12] 3736 	xrl	a,r4
      000D64 CC               [12] 3737 	xch	a,r4
      000D65 30 E4 02         [24] 3738 	jnb	acc.4,00196$
      000D68 44 E0            [12] 3739 	orl	a,#0xe0
      000D6A                       3740 00196$:
      000D6A FB               [12] 3741 	mov	r3,a
      000D6B C3               [12] 3742 	clr	c
      000D6C E9               [12] 3743 	mov	a,r1
      000D6D 9C               [12] 3744 	subb	a,r4
      000D6E EA               [12] 3745 	mov	a,r2
      000D6F 64 80            [12] 3746 	xrl	a,#0x80
      000D71 8B F0            [24] 3747 	mov	b,r3
      000D73 63 F0 80         [24] 3748 	xrl	b,#0x80
      000D76 95 F0            [12] 3749 	subb	a,b
      000D78 50 01            [24] 3750 	jnc	00106$
                                   3751 ;	USBHost.c:624: return;
      000D7A 22               [24] 3752 	ret
      000D7B                       3753 00106$:
                                   3754 ;	USBHost.c:628: if (map->buttons_bit_size > 0) {
      000D7B 74 0B            [12] 3755 	mov	a,#0x0b
      000D7D 2D               [12] 3756 	add	a,r5
      000D7E F5 82            [12] 3757 	mov	dpl,a
      000D80 E4               [12] 3758 	clr	a
      000D81 3E               [12] 3759 	addc	a,r6
      000D82 F5 83            [12] 3760 	mov	dph,a
      000D84 E0               [24] 3761 	movx	a,@dptr
      000D85 FC               [12] 3762 	mov	r4,a
      000D86 60 70            [24] 3763 	jz	00108$
                                   3764 ;	USBHost.c:629: *buttons = (uint32_t)extract_field(report, map->buttons_bit_offset,
      000D88 C0 07            [24] 3765 	push	ar7
      000D8A 90r03r19         [24] 3766 	mov	dptr,#_pollHIDdevice_buttons_65536_155
      000D8D E0               [24] 3767 	movx	a,@dptr
      000D8E F5*06            [12] 3768 	mov	_pollHIDdevice_sloc0_1_0,a
      000D90 A3               [24] 3769 	inc	dptr
      000D91 E0               [24] 3770 	movx	a,@dptr
      000D92 F5*07            [12] 3771 	mov	(_pollHIDdevice_sloc0_1_0 + 1),a
      000D94 A3               [24] 3772 	inc	dptr
      000D95 E0               [24] 3773 	movx	a,@dptr
      000D96 F5*08            [12] 3774 	mov	(_pollHIDdevice_sloc0_1_0 + 2),a
      000D98 90r03r1D         [24] 3775 	mov	dptr,#_pollHIDdevice_report_65536_156
      000D9B E0               [24] 3776 	movx	a,@dptr
      000D9C F8               [12] 3777 	mov	r0,a
      000D9D A3               [24] 3778 	inc	dptr
      000D9E E0               [24] 3779 	movx	a,@dptr
      000D9F FB               [12] 3780 	mov	r3,a
      000DA0 7F 00            [12] 3781 	mov	r7,#0x00
      000DA2 74 09            [12] 3782 	mov	a,#0x09
      000DA4 2D               [12] 3783 	add	a,r5
      000DA5 F5 82            [12] 3784 	mov	dpl,a
      000DA7 E4               [12] 3785 	clr	a
      000DA8 3E               [12] 3786 	addc	a,r6
      000DA9 F5 83            [12] 3787 	mov	dph,a
      000DAB E0               [24] 3788 	movx	a,@dptr
      000DAC F9               [12] 3789 	mov	r1,a
      000DAD A3               [24] 3790 	inc	dptr
      000DAE E0               [24] 3791 	movx	a,@dptr
      000DAF FA               [12] 3792 	mov	r2,a
                                   3793 ;	USBHost.c:630: map->buttons_bit_size, 0);
      000DB0 90r02rD7         [24] 3794 	mov	dptr,#_extract_field_PARM_2
      000DB3 E9               [12] 3795 	mov	a,r1
      000DB4 F0               [24] 3796 	movx	@dptr,a
      000DB5 EA               [12] 3797 	mov	a,r2
      000DB6 A3               [24] 3798 	inc	dptr
      000DB7 F0               [24] 3799 	movx	@dptr,a
      000DB8 90r02rD9         [24] 3800 	mov	dptr,#_extract_field_PARM_3
      000DBB EC               [12] 3801 	mov	a,r4
      000DBC F0               [24] 3802 	movx	@dptr,a
      000DBD 90r02rDA         [24] 3803 	mov	dptr,#_extract_field_PARM_4
      000DC0 E4               [12] 3804 	clr	a
      000DC1 F0               [24] 3805 	movx	@dptr,a
      000DC2 88 82            [24] 3806 	mov	dpl,r0
      000DC4 8B 83            [24] 3807 	mov	dph,r3
      000DC6 8F F0            [24] 3808 	mov	b,r7
      000DC8 C0 06            [24] 3809 	push	ar6
      000DCA C0 05            [24] 3810 	push	ar5
      000DCC 12r00r00         [24] 3811 	lcall	_extract_field
      000DCF AC 82            [24] 3812 	mov	r4,dpl
      000DD1 AA 83            [24] 3813 	mov	r2,dph
      000DD3 AB F0            [24] 3814 	mov	r3,b
      000DD5 FF               [12] 3815 	mov	r7,a
      000DD6 D0 05            [24] 3816 	pop	ar5
      000DD8 D0 06            [24] 3817 	pop	ar6
      000DDA 85*06 82         [24] 3818 	mov	dpl,_pollHIDdevice_sloc0_1_0
      000DDD 85*07 83         [24] 3819 	mov	dph,(_pollHIDdevice_sloc0_1_0 + 1)
      000DE0 85*08 F0         [24] 3820 	mov	b,(_pollHIDdevice_sloc0_1_0 + 2)
      000DE3 EC               [12] 3821 	mov	a,r4
      000DE4 12r00r00         [24] 3822 	lcall	__gptrput
      000DE7 A3               [24] 3823 	inc	dptr
      000DE8 EA               [12] 3824 	mov	a,r2
      000DE9 12r00r00         [24] 3825 	lcall	__gptrput
      000DEC A3               [24] 3826 	inc	dptr
      000DED EB               [12] 3827 	mov	a,r3
      000DEE 12r00r00         [24] 3828 	lcall	__gptrput
      000DF1 A3               [24] 3829 	inc	dptr
      000DF2 EF               [12] 3830 	mov	a,r7
      000DF3 12r00r00         [24] 3831 	lcall	__gptrput
                                   3832 ;	USBHost.c:602: for (hiddevice = 0; hiddevice < MAX_HID_DEVICES; hiddevice++) {
      000DF6 D0 07            [24] 3833 	pop	ar7
                                   3834 ;	USBHost.c:630: map->buttons_bit_size, 0);
      000DF8                       3835 00108$:
                                   3836 ;	USBHost.c:633: if (map->x_bit_size > 0) {
      000DF8 74 0E            [12] 3837 	mov	a,#0x0e
      000DFA 2D               [12] 3838 	add	a,r5
      000DFB F5 82            [12] 3839 	mov	dpl,a
      000DFD E4               [12] 3840 	clr	a
      000DFE 3E               [12] 3841 	addc	a,r6
      000DFF F5 83            [12] 3842 	mov	dph,a
      000E01 E0               [24] 3843 	movx	a,@dptr
      000E02 FC               [12] 3844 	mov	r4,a
      000E03 60 71            [24] 3845 	jz	00110$
                                   3846 ;	USBHost.c:634: *dx = extract_field(report, map->x_bit_offset,
      000E05 C0 07            [24] 3847 	push	ar7
      000E07 90r03r10         [24] 3848 	mov	dptr,#_pollHIDdevice_PARM_2
      000E0A E0               [24] 3849 	movx	a,@dptr
      000E0B F5*06            [12] 3850 	mov	_pollHIDdevice_sloc0_1_0,a
      000E0D A3               [24] 3851 	inc	dptr
      000E0E E0               [24] 3852 	movx	a,@dptr
      000E0F F5*07            [12] 3853 	mov	(_pollHIDdevice_sloc0_1_0 + 1),a
      000E11 A3               [24] 3854 	inc	dptr
      000E12 E0               [24] 3855 	movx	a,@dptr
      000E13 F5*08            [12] 3856 	mov	(_pollHIDdevice_sloc0_1_0 + 2),a
      000E15 90r03r1D         [24] 3857 	mov	dptr,#_pollHIDdevice_report_65536_156
      000E18 E0               [24] 3858 	movx	a,@dptr
      000E19 F8               [12] 3859 	mov	r0,a
      000E1A A3               [24] 3860 	inc	dptr
      000E1B E0               [24] 3861 	movx	a,@dptr
      000E1C FB               [12] 3862 	mov	r3,a
      000E1D 7F 00            [12] 3863 	mov	r7,#0x00
      000E1F 74 0C            [12] 3864 	mov	a,#0x0c
      000E21 2D               [12] 3865 	add	a,r5
      000E22 F5 82            [12] 3866 	mov	dpl,a
      000E24 E4               [12] 3867 	clr	a
      000E25 3E               [12] 3868 	addc	a,r6
      000E26 F5 83            [12] 3869 	mov	dph,a
      000E28 E0               [24] 3870 	movx	a,@dptr
      000E29 F9               [12] 3871 	mov	r1,a
      000E2A A3               [24] 3872 	inc	dptr
      000E2B E0               [24] 3873 	movx	a,@dptr
      000E2C FA               [12] 3874 	mov	r2,a
                                   3875 ;	USBHost.c:635: map->x_bit_size, 1);
      000E2D 90r02rD7         [24] 3876 	mov	dptr,#_extract_field_PARM_2
      000E30 E9               [12] 3877 	mov	a,r1
      000E31 F0               [24] 3878 	movx	@dptr,a
      000E32 EA               [12] 3879 	mov	a,r2
      000E33 A3               [24] 3880 	inc	dptr
      000E34 F0               [24] 3881 	movx	@dptr,a
      000E35 90r02rD9         [24] 3882 	mov	dptr,#_extract_field_PARM_3
      000E38 EC               [12] 3883 	mov	a,r4
      000E39 F0               [24] 3884 	movx	@dptr,a
      000E3A 90r02rDA         [24] 3885 	mov	dptr,#_extract_field_PARM_4
      000E3D 74 01            [12] 3886 	mov	a,#0x01
      000E3F F0               [24] 3887 	movx	@dptr,a
      000E40 88 82            [24] 3888 	mov	dpl,r0
      000E42 8B 83            [24] 3889 	mov	dph,r3
      000E44 8F F0            [24] 3890 	mov	b,r7
      000E46 C0 06            [24] 3891 	push	ar6
      000E48 C0 05            [24] 3892 	push	ar5
      000E4A 12r00r00         [24] 3893 	lcall	_extract_field
      000E4D AC 82            [24] 3894 	mov	r4,dpl
      000E4F AA 83            [24] 3895 	mov	r2,dph
      000E51 AB F0            [24] 3896 	mov	r3,b
      000E53 FF               [12] 3897 	mov	r7,a
      000E54 D0 05            [24] 3898 	pop	ar5
      000E56 D0 06            [24] 3899 	pop	ar6
      000E58 85*06 82         [24] 3900 	mov	dpl,_pollHIDdevice_sloc0_1_0
      000E5B 85*07 83         [24] 3901 	mov	dph,(_pollHIDdevice_sloc0_1_0 + 1)
      000E5E 85*08 F0         [24] 3902 	mov	b,(_pollHIDdevice_sloc0_1_0 + 2)
      000E61 EC               [12] 3903 	mov	a,r4
      000E62 12r00r00         [24] 3904 	lcall	__gptrput
      000E65 A3               [24] 3905 	inc	dptr
      000E66 EA               [12] 3906 	mov	a,r2
      000E67 12r00r00         [24] 3907 	lcall	__gptrput
      000E6A A3               [24] 3908 	inc	dptr
      000E6B EB               [12] 3909 	mov	a,r3
      000E6C 12r00r00         [24] 3910 	lcall	__gptrput
      000E6F A3               [24] 3911 	inc	dptr
      000E70 EF               [12] 3912 	mov	a,r7
      000E71 12r00r00         [24] 3913 	lcall	__gptrput
                                   3914 ;	USBHost.c:602: for (hiddevice = 0; hiddevice < MAX_HID_DEVICES; hiddevice++) {
      000E74 D0 07            [24] 3915 	pop	ar7
                                   3916 ;	USBHost.c:635: map->x_bit_size, 1);
      000E76                       3917 00110$:
                                   3918 ;	USBHost.c:638: if (map->y_bit_size > 0) {
      000E76 74 11            [12] 3919 	mov	a,#0x11
      000E78 2D               [12] 3920 	add	a,r5
      000E79 F5 82            [12] 3921 	mov	dpl,a
      000E7B E4               [12] 3922 	clr	a
      000E7C 3E               [12] 3923 	addc	a,r6
      000E7D F5 83            [12] 3924 	mov	dph,a
      000E7F E0               [24] 3925 	movx	a,@dptr
      000E80 FC               [12] 3926 	mov	r4,a
      000E81 60 71            [24] 3927 	jz	00112$
                                   3928 ;	USBHost.c:639: *dy = extract_field(report, map->y_bit_offset,
      000E83 C0 07            [24] 3929 	push	ar7
      000E85 90r03r13         [24] 3930 	mov	dptr,#_pollHIDdevice_PARM_3
      000E88 E0               [24] 3931 	movx	a,@dptr
      000E89 F5*06            [12] 3932 	mov	_pollHIDdevice_sloc0_1_0,a
      000E8B A3               [24] 3933 	inc	dptr
      000E8C E0               [24] 3934 	movx	a,@dptr
      000E8D F5*07            [12] 3935 	mov	(_pollHIDdevice_sloc0_1_0 + 1),a
      000E8F A3               [24] 3936 	inc	dptr
      000E90 E0               [24] 3937 	movx	a,@dptr
      000E91 F5*08            [12] 3938 	mov	(_pollHIDdevice_sloc0_1_0 + 2),a
      000E93 90r03r1D         [24] 3939 	mov	dptr,#_pollHIDdevice_report_65536_156
      000E96 E0               [24] 3940 	movx	a,@dptr
      000E97 F8               [12] 3941 	mov	r0,a
      000E98 A3               [24] 3942 	inc	dptr
      000E99 E0               [24] 3943 	movx	a,@dptr
      000E9A FB               [12] 3944 	mov	r3,a
      000E9B 7F 00            [12] 3945 	mov	r7,#0x00
      000E9D 74 0F            [12] 3946 	mov	a,#0x0f
      000E9F 2D               [12] 3947 	add	a,r5
      000EA0 F5 82            [12] 3948 	mov	dpl,a
      000EA2 E4               [12] 3949 	clr	a
      000EA3 3E               [12] 3950 	addc	a,r6
      000EA4 F5 83            [12] 3951 	mov	dph,a
      000EA6 E0               [24] 3952 	movx	a,@dptr
      000EA7 F9               [12] 3953 	mov	r1,a
      000EA8 A3               [24] 3954 	inc	dptr
      000EA9 E0               [24] 3955 	movx	a,@dptr
      000EAA FA               [12] 3956 	mov	r2,a
                                   3957 ;	USBHost.c:640: map->y_bit_size, 1);
      000EAB 90r02rD7         [24] 3958 	mov	dptr,#_extract_field_PARM_2
      000EAE E9               [12] 3959 	mov	a,r1
      000EAF F0               [24] 3960 	movx	@dptr,a
      000EB0 EA               [12] 3961 	mov	a,r2
      000EB1 A3               [24] 3962 	inc	dptr
      000EB2 F0               [24] 3963 	movx	@dptr,a
      000EB3 90r02rD9         [24] 3964 	mov	dptr,#_extract_field_PARM_3
      000EB6 EC               [12] 3965 	mov	a,r4
      000EB7 F0               [24] 3966 	movx	@dptr,a
      000EB8 90r02rDA         [24] 3967 	mov	dptr,#_extract_field_PARM_4
      000EBB 74 01            [12] 3968 	mov	a,#0x01
      000EBD F0               [24] 3969 	movx	@dptr,a
      000EBE 88 82            [24] 3970 	mov	dpl,r0
      000EC0 8B 83            [24] 3971 	mov	dph,r3
      000EC2 8F F0            [24] 3972 	mov	b,r7
      000EC4 C0 06            [24] 3973 	push	ar6
      000EC6 C0 05            [24] 3974 	push	ar5
      000EC8 12r00r00         [24] 3975 	lcall	_extract_field
      000ECB AC 82            [24] 3976 	mov	r4,dpl
      000ECD AA 83            [24] 3977 	mov	r2,dph
      000ECF AB F0            [24] 3978 	mov	r3,b
      000ED1 FF               [12] 3979 	mov	r7,a
      000ED2 D0 05            [24] 3980 	pop	ar5
      000ED4 D0 06            [24] 3981 	pop	ar6
      000ED6 85*06 82         [24] 3982 	mov	dpl,_pollHIDdevice_sloc0_1_0
      000ED9 85*07 83         [24] 3983 	mov	dph,(_pollHIDdevice_sloc0_1_0 + 1)
      000EDC 85*08 F0         [24] 3984 	mov	b,(_pollHIDdevice_sloc0_1_0 + 2)
      000EDF EC               [12] 3985 	mov	a,r4
      000EE0 12r00r00         [24] 3986 	lcall	__gptrput
      000EE3 A3               [24] 3987 	inc	dptr
      000EE4 EA               [12] 3988 	mov	a,r2
      000EE5 12r00r00         [24] 3989 	lcall	__gptrput
      000EE8 A3               [24] 3990 	inc	dptr
      000EE9 EB               [12] 3991 	mov	a,r3
      000EEA 12r00r00         [24] 3992 	lcall	__gptrput
      000EED A3               [24] 3993 	inc	dptr
      000EEE EF               [12] 3994 	mov	a,r7
      000EEF 12r00r00         [24] 3995 	lcall	__gptrput
                                   3996 ;	USBHost.c:602: for (hiddevice = 0; hiddevice < MAX_HID_DEVICES; hiddevice++) {
      000EF2 D0 07            [24] 3997 	pop	ar7
                                   3998 ;	USBHost.c:640: map->y_bit_size, 1);
      000EF4                       3999 00112$:
                                   4000 ;	USBHost.c:643: if (map->wheel_bit_size > 0) {
      000EF4 74 14            [12] 4001 	mov	a,#0x14
      000EF6 2D               [12] 4002 	add	a,r5
      000EF7 F5 82            [12] 4003 	mov	dpl,a
      000EF9 E4               [12] 4004 	clr	a
      000EFA 3E               [12] 4005 	addc	a,r6
      000EFB F5 83            [12] 4006 	mov	dph,a
      000EFD E0               [24] 4007 	movx	a,@dptr
      000EFE FC               [12] 4008 	mov	r4,a
      000EFF 60 69            [24] 4009 	jz	00124$
                                   4010 ;	USBHost.c:644: *dwheel = extract_field(report, map->wheel_bit_offset,
      000F01 C0 07            [24] 4011 	push	ar7
      000F03 90r03r16         [24] 4012 	mov	dptr,#_pollHIDdevice_PARM_4
      000F06 E0               [24] 4013 	movx	a,@dptr
      000F07 F5*06            [12] 4014 	mov	_pollHIDdevice_sloc0_1_0,a
      000F09 A3               [24] 4015 	inc	dptr
      000F0A E0               [24] 4016 	movx	a,@dptr
      000F0B F5*07            [12] 4017 	mov	(_pollHIDdevice_sloc0_1_0 + 1),a
      000F0D A3               [24] 4018 	inc	dptr
      000F0E E0               [24] 4019 	movx	a,@dptr
      000F0F F5*08            [12] 4020 	mov	(_pollHIDdevice_sloc0_1_0 + 2),a
      000F11 90r03r1D         [24] 4021 	mov	dptr,#_pollHIDdevice_report_65536_156
      000F14 E0               [24] 4022 	movx	a,@dptr
      000F15 F8               [12] 4023 	mov	r0,a
      000F16 A3               [24] 4024 	inc	dptr
      000F17 E0               [24] 4025 	movx	a,@dptr
      000F18 FB               [12] 4026 	mov	r3,a
      000F19 7F 00            [12] 4027 	mov	r7,#0x00
      000F1B 74 12            [12] 4028 	mov	a,#0x12
      000F1D 2D               [12] 4029 	add	a,r5
      000F1E F5 82            [12] 4030 	mov	dpl,a
      000F20 E4               [12] 4031 	clr	a
      000F21 3E               [12] 4032 	addc	a,r6
      000F22 F5 83            [12] 4033 	mov	dph,a
      000F24 E0               [24] 4034 	movx	a,@dptr
      000F25 FD               [12] 4035 	mov	r5,a
      000F26 A3               [24] 4036 	inc	dptr
      000F27 E0               [24] 4037 	movx	a,@dptr
      000F28 FE               [12] 4038 	mov	r6,a
                                   4039 ;	USBHost.c:645: map->wheel_bit_size, 1);
      000F29 90r02rD7         [24] 4040 	mov	dptr,#_extract_field_PARM_2
      000F2C ED               [12] 4041 	mov	a,r5
      000F2D F0               [24] 4042 	movx	@dptr,a
      000F2E EE               [12] 4043 	mov	a,r6
      000F2F A3               [24] 4044 	inc	dptr
      000F30 F0               [24] 4045 	movx	@dptr,a
      000F31 90r02rD9         [24] 4046 	mov	dptr,#_extract_field_PARM_3
      000F34 EC               [12] 4047 	mov	a,r4
      000F35 F0               [24] 4048 	movx	@dptr,a
      000F36 90r02rDA         [24] 4049 	mov	dptr,#_extract_field_PARM_4
      000F39 74 01            [12] 4050 	mov	a,#0x01
      000F3B F0               [24] 4051 	movx	@dptr,a
      000F3C 88 82            [24] 4052 	mov	dpl,r0
      000F3E 8B 83            [24] 4053 	mov	dph,r3
      000F40 8F F0            [24] 4054 	mov	b,r7
      000F42 12r00r00         [24] 4055 	lcall	_extract_field
      000F45 AC 82            [24] 4056 	mov	r4,dpl
      000F47 AD 83            [24] 4057 	mov	r5,dph
      000F49 AE F0            [24] 4058 	mov	r6,b
      000F4B FF               [12] 4059 	mov	r7,a
      000F4C 85*06 82         [24] 4060 	mov	dpl,_pollHIDdevice_sloc0_1_0
      000F4F 85*07 83         [24] 4061 	mov	dph,(_pollHIDdevice_sloc0_1_0 + 1)
      000F52 85*08 F0         [24] 4062 	mov	b,(_pollHIDdevice_sloc0_1_0 + 2)
      000F55 EC               [12] 4063 	mov	a,r4
      000F56 12r00r00         [24] 4064 	lcall	__gptrput
      000F59 A3               [24] 4065 	inc	dptr
      000F5A ED               [12] 4066 	mov	a,r5
      000F5B 12r00r00         [24] 4067 	lcall	__gptrput
      000F5E A3               [24] 4068 	inc	dptr
      000F5F EE               [12] 4069 	mov	a,r6
      000F60 12r00r00         [24] 4070 	lcall	__gptrput
      000F63 A3               [24] 4071 	inc	dptr
      000F64 EF               [12] 4072 	mov	a,r7
      000F65 12r00r00         [24] 4073 	lcall	__gptrput
                                   4074 ;	USBHost.c:602: for (hiddevice = 0; hiddevice < MAX_HID_DEVICES; hiddevice++) {
      000F68 D0 07            [24] 4075 	pop	ar7
                                   4076 ;	USBHost.c:648: DEBUG_OUT("Mouse id:%d: butt=0x%lX, dx=%ld, dy=%ld, dwheel=%ld\n",
      000F6A                       4077 00124$:
                                   4078 ;	USBHost.c:602: for (hiddevice = 0; hiddevice < MAX_HID_DEVICES; hiddevice++) {
      000F6A 0F               [12] 4079 	inc	r7
      000F6B BF 08 00         [24] 4080 	cjne	r7,#0x08,00202$
      000F6E                       4081 00202$:
      000F6E 50 03            [24] 4082 	jnc	00203$
      000F70 02r0Cr2D         [24] 4083 	ljmp	00123$
      000F73                       4084 00203$:
                                   4085 ;	USBHost.c:654: }
      000F73 22               [24] 4086 	ret
                                   4087 ;------------------------------------------------------------
                                   4088 ;Allocation info for local variables in function 'parseHIDDeviceReport'
                                   4089 ;------------------------------------------------------------
                                   4090 ;sloc0                     Allocated with name '_parseHIDDeviceReport_sloc0_1_0'
                                   4091 ;sloc1                     Allocated with name '_parseHIDDeviceReport_sloc1_1_0'
                                   4092 ;sloc2                     Allocated with name '_parseHIDDeviceReport_sloc2_1_0'
                                   4093 ;sloc3                     Allocated with name '_parseHIDDeviceReport_sloc3_1_0'
                                   4094 ;sloc4                     Allocated with name '_parseHIDDeviceReport_sloc4_1_0'
                                   4095 ;sloc5                     Allocated with name '_parseHIDDeviceReport_sloc5_1_0'
                                   4096 ;sloc6                     Allocated with name '_parseHIDDeviceReport_sloc6_1_0'
                                   4097 ;sloc7                     Allocated with name '_parseHIDDeviceReport_sloc7_1_0'
                                   4098 ;sloc8                     Allocated with name '_parseHIDDeviceReport_sloc8_1_0'
                                   4099 ;sloc9                     Allocated with name '_parseHIDDeviceReport_sloc9_1_0'
                                   4100 ;sloc10                    Allocated with name '_parseHIDDeviceReport_sloc10_1_0'
                                   4101 ;length                    Allocated with name '_parseHIDDeviceReport_PARM_2'
                                   4102 ;CurrentDevice             Allocated with name '_parseHIDDeviceReport_PARM_3'
                                   4103 ;report                    Allocated with name '_parseHIDDeviceReport_report_65536_169'
                                   4104 ;i                         Allocated with name '_parseHIDDeviceReport_i_65536_170'
                                   4105 ;j                         Allocated with name '_parseHIDDeviceReport_j_65536_170'
                                   4106 ;level                     Allocated with name '_parseHIDDeviceReport_level_65536_170'
                                   4107 ;isUsageSet                Allocated with name '_parseHIDDeviceReport_isUsageSet_65536_170'
                                   4108 ;tag                       Allocated with name '_parseHIDDeviceReport_tag_65536_170'
                                   4109 ;tag_size                  Allocated with name '_parseHIDDeviceReport_tag_size_65536_170'
                                   4110 ;data                      Allocated with name '_parseHIDDeviceReport_data_65536_170'
                                   4111 ;usage_page                Allocated with name '_parseHIDDeviceReport_usage_page_65536_170'
                                   4112 ;usageX                    Allocated with name '_parseHIDDeviceReport_usageX_65536_170'
                                   4113 ;usageY                    Allocated with name '_parseHIDDeviceReport_usageY_65536_170'
                                   4114 ;usageW                    Allocated with name '_parseHIDDeviceReport_usageW_65536_170'
                                   4115 ;logical_min               Allocated with name '_parseHIDDeviceReport_logical_min_65536_170'
                                   4116 ;logical_max               Allocated with name '_parseHIDDeviceReport_logical_max_65536_170'
                                   4117 ;report_size               Allocated with name '_parseHIDDeviceReport_report_size_65536_170'
                                   4118 ;report_count              Allocated with name '_parseHIDDeviceReport_report_count_65536_170'
                                   4119 ;current_bit_offset        Allocated with name '_parseHIDDeviceReport_current_bit_offset_65536_170'
                                   4120 ;used_reports              Allocated with name '_parseHIDDeviceReport_used_reports_65536_170'
                                   4121 ;map                       Allocated with name '_parseHIDDeviceReport_map_65536_170'
                                   4122 ;------------------------------------------------------------
                                   4123 ;	USBHost.c:656: static void parseHIDDeviceReport(uint8_t __xdata *report, uint16_t length, uint8_t CurrentDevice)
                                   4124 ;	-----------------------------------------
                                   4125 ;	 function parseHIDDeviceReport
                                   4126 ;	-----------------------------------------
      000F74                       4127 _parseHIDDeviceReport:
      000F74 AF 83            [24] 4128 	mov	r7,dph
      000F76 E5 82            [12] 4129 	mov	a,dpl
      000F78 90r03r22         [24] 4130 	mov	dptr,#_parseHIDDeviceReport_report_65536_169
      000F7B F0               [24] 4131 	movx	@dptr,a
      000F7C EF               [12] 4132 	mov	a,r7
      000F7D A3               [24] 4133 	inc	dptr
      000F7E F0               [24] 4134 	movx	@dptr,a
                                   4135 ;	USBHost.c:658: __xdata uint16_t i = 0;
      000F7F 90r03r24         [24] 4136 	mov	dptr,#_parseHIDDeviceReport_i_65536_170
      000F82 E4               [12] 4137 	clr	a
      000F83 F0               [24] 4138 	movx	@dptr,a
      000F84 A3               [24] 4139 	inc	dptr
      000F85 F0               [24] 4140 	movx	@dptr,a
                                   4141 ;	USBHost.c:660: __xdata uint8_t level = 0;
      000F86 90r03r26         [24] 4142 	mov	dptr,#_parseHIDDeviceReport_level_65536_170
      000F89 F0               [24] 4143 	movx	@dptr,a
                                   4144 ;	USBHost.c:661: __xdata uint8_t isUsageSet = 0;
      000F8A 90r03r27         [24] 4145 	mov	dptr,#_parseHIDDeviceReport_isUsageSet_65536_170
      000F8D F0               [24] 4146 	movx	@dptr,a
                                   4147 ;	USBHost.c:666: __xdata uint32_t usage_page = 0;
      000F8E 90r03r2E         [24] 4148 	mov	dptr,#_parseHIDDeviceReport_usage_page_65536_170
      000F91 F0               [24] 4149 	movx	@dptr,a
      000F92 A3               [24] 4150 	inc	dptr
      000F93 F0               [24] 4151 	movx	@dptr,a
      000F94 A3               [24] 4152 	inc	dptr
      000F95 F0               [24] 4153 	movx	@dptr,a
      000F96 A3               [24] 4154 	inc	dptr
      000F97 F0               [24] 4155 	movx	@dptr,a
                                   4156 ;	USBHost.c:667: __xdata uint32_t usageX = 0;
      000F98 90r03r32         [24] 4157 	mov	dptr,#_parseHIDDeviceReport_usageX_65536_170
      000F9B F0               [24] 4158 	movx	@dptr,a
      000F9C A3               [24] 4159 	inc	dptr
      000F9D F0               [24] 4160 	movx	@dptr,a
      000F9E A3               [24] 4161 	inc	dptr
      000F9F F0               [24] 4162 	movx	@dptr,a
      000FA0 A3               [24] 4163 	inc	dptr
      000FA1 F0               [24] 4164 	movx	@dptr,a
                                   4165 ;	USBHost.c:668: __xdata uint32_t usageY = 0;
      000FA2 90r03r36         [24] 4166 	mov	dptr,#_parseHIDDeviceReport_usageY_65536_170
      000FA5 F0               [24] 4167 	movx	@dptr,a
      000FA6 A3               [24] 4168 	inc	dptr
      000FA7 F0               [24] 4169 	movx	@dptr,a
      000FA8 A3               [24] 4170 	inc	dptr
      000FA9 F0               [24] 4171 	movx	@dptr,a
      000FAA A3               [24] 4172 	inc	dptr
      000FAB F0               [24] 4173 	movx	@dptr,a
                                   4174 ;	USBHost.c:669: __xdata uint32_t usageW = 0;
      000FAC 90r03r3A         [24] 4175 	mov	dptr,#_parseHIDDeviceReport_usageW_65536_170
      000FAF F0               [24] 4176 	movx	@dptr,a
      000FB0 A3               [24] 4177 	inc	dptr
      000FB1 F0               [24] 4178 	movx	@dptr,a
      000FB2 A3               [24] 4179 	inc	dptr
      000FB3 F0               [24] 4180 	movx	@dptr,a
      000FB4 A3               [24] 4181 	inc	dptr
      000FB5 F0               [24] 4182 	movx	@dptr,a
                                   4183 ;	USBHost.c:672: __xdata uint8_t report_size = 0;
      000FB6 90r03r3E         [24] 4184 	mov	dptr,#_parseHIDDeviceReport_report_size_65536_170
      000FB9 F0               [24] 4185 	movx	@dptr,a
                                   4186 ;	USBHost.c:673: __xdata uint8_t report_count = 0;
      000FBA 90r03r3F         [24] 4187 	mov	dptr,#_parseHIDDeviceReport_report_count_65536_170
      000FBD F0               [24] 4188 	movx	@dptr,a
                                   4189 ;	USBHost.c:674: __xdata uint16_t current_bit_offset = 0;
      000FBE 90r03r40         [24] 4190 	mov	dptr,#_parseHIDDeviceReport_current_bit_offset_65536_170
      000FC1 F0               [24] 4191 	movx	@dptr,a
      000FC2 A3               [24] 4192 	inc	dptr
      000FC3 F0               [24] 4193 	movx	@dptr,a
                                   4194 ;	USBHost.c:677: MouseReportMap *map = &HIDdevice[CurrentDevice].mouse_map;
      000FC4 90r03r21         [24] 4195 	mov	dptr,#_parseHIDDeviceReport_PARM_3
      000FC7 E0               [24] 4196 	movx	a,@dptr
      000FC8 75 F0 16         [24] 4197 	mov	b,#0x16
      000FCB A4               [48] 4198 	mul	ab
      000FCC 24r01            [12] 4199 	add	a,#_HIDdevice
      000FCE FE               [12] 4200 	mov	r6,a
      000FCF 74s02            [12] 4201 	mov	a,#(_HIDdevice >> 8)
      000FD1 35 F0            [12] 4202 	addc	a,b
      000FD3 FF               [12] 4203 	mov	r7,a
      000FD4 74 08            [12] 4204 	mov	a,#0x08
      000FD6 2E               [12] 4205 	add	a,r6
      000FD7 FC               [12] 4206 	mov	r4,a
      000FD8 E4               [12] 4207 	clr	a
      000FD9 3F               [12] 4208 	addc	a,r7
      000FDA FB               [12] 4209 	mov	r3,a
      000FDB 7D 00            [12] 4210 	mov	r5,#0x00
                                   4211 ;	USBHost.c:678: memset(map, 0, sizeof(MouseReportMap));
      000FDD 8C 00            [24] 4212 	mov	ar0,r4
      000FDF 8B 01            [24] 4213 	mov	ar1,r3
      000FE1 8D 02            [24] 4214 	mov	ar2,r5
      000FE3 90r00r00         [24] 4215 	mov	dptr,#_memset_PARM_2
      000FE6 E4               [12] 4216 	clr	a
      000FE7 F0               [24] 4217 	movx	@dptr,a
      000FE8 90r00r00         [24] 4218 	mov	dptr,#_memset_PARM_3
      000FEB 74 0E            [12] 4219 	mov	a,#0x0e
      000FED F0               [24] 4220 	movx	@dptr,a
      000FEE E4               [12] 4221 	clr	a
      000FEF A3               [24] 4222 	inc	dptr
      000FF0 F0               [24] 4223 	movx	@dptr,a
      000FF1 88 82            [24] 4224 	mov	dpl,r0
      000FF3 89 83            [24] 4225 	mov	dph,r1
      000FF5 8A F0            [24] 4226 	mov	b,r2
      000FF7 C0 07            [24] 4227 	push	ar7
      000FF9 C0 06            [24] 4228 	push	ar6
      000FFB C0 05            [24] 4229 	push	ar5
      000FFD C0 04            [24] 4230 	push	ar4
      000FFF C0 03            [24] 4231 	push	ar3
      001001 12r00r00         [24] 4232 	lcall	_memset
      001004 D0 03            [24] 4233 	pop	ar3
      001006 D0 04            [24] 4234 	pop	ar4
      001008 D0 05            [24] 4235 	pop	ar5
      00100A D0 06            [24] 4236 	pop	ar6
      00100C D0 07            [24] 4237 	pop	ar7
                                   4238 ;	USBHost.c:682: while (i < length) {
      00100E 90r03r22         [24] 4239 	mov	dptr,#_parseHIDDeviceReport_report_65536_169
      001011 E0               [24] 4240 	movx	a,@dptr
      001012 F5*1E            [12] 4241 	mov	_parseHIDDeviceReport_sloc10_1_0,a
      001014 A3               [24] 4242 	inc	dptr
      001015 E0               [24] 4243 	movx	a,@dptr
      001016 F5*1F            [12] 4244 	mov	(_parseHIDDeviceReport_sloc10_1_0 + 1),a
      001018 85*1E*09         [24] 4245 	mov	_parseHIDDeviceReport_sloc0_1_0,_parseHIDDeviceReport_sloc10_1_0
      00101B 85*1F*0A         [24] 4246 	mov	(_parseHIDDeviceReport_sloc0_1_0 + 1),(_parseHIDDeviceReport_sloc10_1_0 + 1)
      00101E 74 04            [12] 4247 	mov	a,#0x04
      001020 2E               [12] 4248 	add	a,r6
      001021 F5*12            [12] 4249 	mov	_parseHIDDeviceReport_sloc5_1_0,a
      001023 E4               [12] 4250 	clr	a
      001024 3F               [12] 4251 	addc	a,r7
      001025 F5*13            [12] 4252 	mov	(_parseHIDDeviceReport_sloc5_1_0 + 1),a
      001027 90r03r1F         [24] 4253 	mov	dptr,#_parseHIDDeviceReport_PARM_2
      00102A E0               [24] 4254 	movx	a,@dptr
      00102B F5*0B            [12] 4255 	mov	_parseHIDDeviceReport_sloc1_1_0,a
      00102D A3               [24] 4256 	inc	dptr
      00102E E0               [24] 4257 	movx	a,@dptr
      00102F F5*0C            [12] 4258 	mov	(_parseHIDDeviceReport_sloc1_1_0 + 1),a
      001031                       4259 00175$:
      001031 90r03r24         [24] 4260 	mov	dptr,#_parseHIDDeviceReport_i_65536_170
      001034 E0               [24] 4261 	movx	a,@dptr
      001035 F5*0D            [12] 4262 	mov	_parseHIDDeviceReport_sloc2_1_0,a
      001037 A3               [24] 4263 	inc	dptr
      001038 E0               [24] 4264 	movx	a,@dptr
      001039 F5*0E            [12] 4265 	mov	(_parseHIDDeviceReport_sloc2_1_0 + 1),a
      00103B C3               [12] 4266 	clr	c
      00103C E5*0D            [12] 4267 	mov	a,_parseHIDDeviceReport_sloc2_1_0
      00103E 95*0B            [12] 4268 	subb	a,_parseHIDDeviceReport_sloc1_1_0
      001040 E5*0E            [12] 4269 	mov	a,(_parseHIDDeviceReport_sloc2_1_0 + 1)
      001042 95*0C            [12] 4270 	subb	a,(_parseHIDDeviceReport_sloc1_1_0 + 1)
      001044 40 03            [24] 4271 	jc	00361$
      001046 02r16rBE         [24] 4272 	ljmp	00177$
      001049                       4273 00361$:
                                   4274 ;	USBHost.c:683: tag = report[i] & 0b11111100;
      001049 E5*0D            [12] 4275 	mov	a,_parseHIDDeviceReport_sloc2_1_0
      00104B 25*1E            [12] 4276 	add	a,_parseHIDDeviceReport_sloc10_1_0
      00104D F5 82            [12] 4277 	mov	dpl,a
      00104F E5*0E            [12] 4278 	mov	a,(_parseHIDDeviceReport_sloc2_1_0 + 1)
      001051 35*1F            [12] 4279 	addc	a,(_parseHIDDeviceReport_sloc10_1_0 + 1)
      001053 F5 83            [12] 4280 	mov	dph,a
      001055 E0               [24] 4281 	movx	a,@dptr
      001056 F8               [12] 4282 	mov	r0,a
      001057 90r03r28         [24] 4283 	mov	dptr,#_parseHIDDeviceReport_tag_65536_170
      00105A 74 FC            [12] 4284 	mov	a,#0xfc
      00105C 58               [12] 4285 	anl	a,r0
      00105D F0               [24] 4286 	movx	@dptr,a
                                   4287 ;	USBHost.c:684: tag_size = report[i] & 0b00000011;
      00105E 53 00 03         [24] 4288 	anl	ar0,#0x03
      001061 90r03r29         [24] 4289 	mov	dptr,#_parseHIDDeviceReport_tag_size_65536_170
      001064 E8               [12] 4290 	mov	a,r0
      001065 F0               [24] 4291 	movx	@dptr,a
                                   4292 ;	USBHost.c:685: data = 0;
      001066 90r03r2A         [24] 4293 	mov	dptr,#_parseHIDDeviceReport_data_65536_170
      001069 E4               [12] 4294 	clr	a
      00106A F0               [24] 4295 	movx	@dptr,a
      00106B A3               [24] 4296 	inc	dptr
      00106C F0               [24] 4297 	movx	@dptr,a
      00106D A3               [24] 4298 	inc	dptr
      00106E F0               [24] 4299 	movx	@dptr,a
      00106F A3               [24] 4300 	inc	dptr
      001070 F0               [24] 4301 	movx	@dptr,a
                                   4302 ;	USBHost.c:687: if (tag_size == 3) {
      001071 B8 03 06         [24] 4303 	cjne	r0,#0x03,00194$
                                   4304 ;	USBHost.c:688: tag_size = 4;
      001074 90r03r29         [24] 4305 	mov	dptr,#_parseHIDDeviceReport_tag_size_65536_170
      001077 74 04            [12] 4306 	mov	a,#0x04
      001079 F0               [24] 4307 	movx	@dptr,a
                                   4308 ;	USBHost.c:691: for (j = 0; j < tag_size; j++) {
      00107A                       4309 00194$:
      00107A 90r03r24         [24] 4310 	mov	dptr,#_parseHIDDeviceReport_i_65536_170
      00107D E0               [24] 4311 	movx	a,@dptr
      00107E F5*0D            [12] 4312 	mov	_parseHIDDeviceReport_sloc2_1_0,a
      001080 A3               [24] 4313 	inc	dptr
      001081 E0               [24] 4314 	movx	a,@dptr
      001082 F5*0E            [12] 4315 	mov	(_parseHIDDeviceReport_sloc2_1_0 + 1),a
      001084 90r03r29         [24] 4316 	mov	dptr,#_parseHIDDeviceReport_tag_size_65536_170
      001087 E0               [24] 4317 	movx	a,@dptr
      001088 F5*16            [12] 4318 	mov	_parseHIDDeviceReport_sloc7_1_0,a
      00108A 75*0F 00         [24] 4319 	mov	_parseHIDDeviceReport_sloc3_1_0,#0x00
      00108D                       4320 00181$:
      00108D C3               [12] 4321 	clr	c
      00108E E5*0F            [12] 4322 	mov	a,_parseHIDDeviceReport_sloc3_1_0
      001090 95*16            [12] 4323 	subb	a,_parseHIDDeviceReport_sloc7_1_0
      001092 50 7C            [24] 4324 	jnc	00105$
                                   4325 ;	USBHost.c:692: if (i + 1 + j < length) {
      001094 85*0D*10         [24] 4326 	mov	_parseHIDDeviceReport_sloc4_1_0,_parseHIDDeviceReport_sloc2_1_0
      001097 85*0E*11         [24] 4327 	mov	(_parseHIDDeviceReport_sloc4_1_0 + 1),(_parseHIDDeviceReport_sloc2_1_0 + 1)
      00109A 74 01            [12] 4328 	mov	a,#0x01
      00109C 25*10            [12] 4329 	add	a,_parseHIDDeviceReport_sloc4_1_0
      00109E F9               [12] 4330 	mov	r1,a
      00109F E4               [12] 4331 	clr	a
      0010A0 35*11            [12] 4332 	addc	a,(_parseHIDDeviceReport_sloc4_1_0 + 1)
      0010A2 FA               [12] 4333 	mov	r2,a
      0010A3 AE*0F            [24] 4334 	mov	r6,_parseHIDDeviceReport_sloc3_1_0
      0010A5 7F 00            [12] 4335 	mov	r7,#0x00
      0010A7 8E*14            [24] 4336 	mov	_parseHIDDeviceReport_sloc6_1_0,r6
      0010A9 8F*15            [24] 4337 	mov	(_parseHIDDeviceReport_sloc6_1_0 + 1),r7
      0010AB E5*14            [12] 4338 	mov	a,_parseHIDDeviceReport_sloc6_1_0
      0010AD 29               [12] 4339 	add	a,r1
      0010AE F9               [12] 4340 	mov	r1,a
      0010AF E5*15            [12] 4341 	mov	a,(_parseHIDDeviceReport_sloc6_1_0 + 1)
      0010B1 3A               [12] 4342 	addc	a,r2
      0010B2 FA               [12] 4343 	mov	r2,a
      0010B3 C3               [12] 4344 	clr	c
      0010B4 E9               [12] 4345 	mov	a,r1
      0010B5 95*0B            [12] 4346 	subb	a,_parseHIDDeviceReport_sloc1_1_0
      0010B7 EA               [12] 4347 	mov	a,r2
      0010B8 95*0C            [12] 4348 	subb	a,(_parseHIDDeviceReport_sloc1_1_0 + 1)
      0010BA 50 4F            [24] 4349 	jnc	00182$
                                   4350 ;	USBHost.c:693: data |= ((uint32_t)(report[i + 1 + j])) << (j << 3);
      0010BC 74 01            [12] 4351 	mov	a,#0x01
      0010BE 25*10            [12] 4352 	add	a,_parseHIDDeviceReport_sloc4_1_0
      0010C0 FE               [12] 4353 	mov	r6,a
      0010C1 E4               [12] 4354 	clr	a
      0010C2 35*11            [12] 4355 	addc	a,(_parseHIDDeviceReport_sloc4_1_0 + 1)
      0010C4 FF               [12] 4356 	mov	r7,a
      0010C5 E5*14            [12] 4357 	mov	a,_parseHIDDeviceReport_sloc6_1_0
      0010C7 2E               [12] 4358 	add	a,r6
      0010C8 FE               [12] 4359 	mov	r6,a
      0010C9 E5*15            [12] 4360 	mov	a,(_parseHIDDeviceReport_sloc6_1_0 + 1)
      0010CB 3F               [12] 4361 	addc	a,r7
      0010CC FF               [12] 4362 	mov	r7,a
      0010CD EE               [12] 4363 	mov	a,r6
      0010CE 25*09            [12] 4364 	add	a,_parseHIDDeviceReport_sloc0_1_0
      0010D0 F5 82            [12] 4365 	mov	dpl,a
      0010D2 EF               [12] 4366 	mov	a,r7
      0010D3 35*0A            [12] 4367 	addc	a,(_parseHIDDeviceReport_sloc0_1_0 + 1)
      0010D5 F5 83            [12] 4368 	mov	dph,a
      0010D7 E0               [24] 4369 	movx	a,@dptr
      0010D8 F9               [12] 4370 	mov	r1,a
      0010D9 E4               [12] 4371 	clr	a
      0010DA FA               [12] 4372 	mov	r2,a
      0010DB FE               [12] 4373 	mov	r6,a
      0010DC FF               [12] 4374 	mov	r7,a
      0010DD E5*0F            [12] 4375 	mov	a,_parseHIDDeviceReport_sloc3_1_0
      0010DF C4               [12] 4376 	swap	a
      0010E0 03               [12] 4377 	rr	a
      0010E1 54 F8            [12] 4378 	anl	a,#0xf8
      0010E3 F8               [12] 4379 	mov	r0,a
      0010E4 88 F0            [24] 4380 	mov	b,r0
      0010E6 05 F0            [12] 4381 	inc	b
      0010E8 80 0C            [24] 4382 	sjmp	00367$
      0010EA                       4383 00366$:
      0010EA E9               [12] 4384 	mov	a,r1
      0010EB 29               [12] 4385 	add	a,r1
      0010EC F9               [12] 4386 	mov	r1,a
      0010ED EA               [12] 4387 	mov	a,r2
      0010EE 33               [12] 4388 	rlc	a
      0010EF FA               [12] 4389 	mov	r2,a
      0010F0 EE               [12] 4390 	mov	a,r6
      0010F1 33               [12] 4391 	rlc	a
      0010F2 FE               [12] 4392 	mov	r6,a
      0010F3 EF               [12] 4393 	mov	a,r7
      0010F4 33               [12] 4394 	rlc	a
      0010F5 FF               [12] 4395 	mov	r7,a
      0010F6                       4396 00367$:
      0010F6 D5 F0 F1         [24] 4397 	djnz	b,00366$
      0010F9 90r03r2A         [24] 4398 	mov	dptr,#_parseHIDDeviceReport_data_65536_170
      0010FC E0               [24] 4399 	movx	a,@dptr
      0010FD 49               [12] 4400 	orl	a,r1
      0010FE F0               [24] 4401 	movx	@dptr,a
      0010FF A3               [24] 4402 	inc	dptr
      001100 E0               [24] 4403 	movx	a,@dptr
      001101 4A               [12] 4404 	orl	a,r2
      001102 F0               [24] 4405 	movx	@dptr,a
      001103 A3               [24] 4406 	inc	dptr
      001104 E0               [24] 4407 	movx	a,@dptr
      001105 4E               [12] 4408 	orl	a,r6
      001106 F0               [24] 4409 	movx	@dptr,a
      001107 A3               [24] 4410 	inc	dptr
      001108 E0               [24] 4411 	movx	a,@dptr
      001109 4F               [12] 4412 	orl	a,r7
      00110A F0               [24] 4413 	movx	@dptr,a
                                   4414 ;	USBHost.c:909: DEBUG_OUT("Mouse Map: ID:%u, buttons@%d:%d, x@%d:%d, y@%d:%d, wheel@%d:%d, total_bits:%d\n",
                                   4415 ;	USBHost.c:693: data |= ((uint32_t)(report[i + 1 + j])) << (j << 3);
      00110B                       4416 00182$:
                                   4417 ;	USBHost.c:691: for (j = 0; j < tag_size; j++) {
      00110B 05*0F            [12] 4418 	inc	_parseHIDDeviceReport_sloc3_1_0
      00110D 02r10r8D         [24] 4419 	ljmp	00181$
      001110                       4420 00105$:
                                   4421 ;	USBHost.c:697: for (j = 0; j < level - (tag == REPORT_COLLECTION_END ? 1 : 0); j++) {
      001110 90r03r26         [24] 4422 	mov	dptr,#_parseHIDDeviceReport_level_65536_170
      001113 E0               [24] 4423 	movx	a,@dptr
      001114 F5*0F            [12] 4424 	mov	_parseHIDDeviceReport_sloc3_1_0,a
      001116 90r03r28         [24] 4425 	mov	dptr,#_parseHIDDeviceReport_tag_65536_170
      001119 E0               [24] 4426 	movx	a,@dptr
      00111A FE               [12] 4427 	mov	r6,a
      00111B E4               [12] 4428 	clr	a
      00111C BE C0 01         [24] 4429 	cjne	r6,#0xc0,00368$
      00111F 04               [12] 4430 	inc	a
      001120                       4431 00368$:
      001120 F5*16            [12] 4432 	mov	_parseHIDDeviceReport_sloc7_1_0,a
      001122 78 00            [12] 4433 	mov	r0,#0x00
      001124                       4434 00184$:
      001124 85*0F*14         [24] 4435 	mov	_parseHIDDeviceReport_sloc6_1_0,_parseHIDDeviceReport_sloc3_1_0
      001127 75*15 00         [24] 4436 	mov	(_parseHIDDeviceReport_sloc6_1_0 + 1),#0x00
      00112A E5*16            [12] 4437 	mov	a,_parseHIDDeviceReport_sloc7_1_0
      00112C 60 08            [24] 4438 	jz	00188$
      00112E 75*10 01         [24] 4439 	mov	_parseHIDDeviceReport_sloc4_1_0,#0x01
      001131 75*11 00         [24] 4440 	mov	(_parseHIDDeviceReport_sloc4_1_0 + 1),#0x00
      001134 80 05            [24] 4441 	sjmp	00189$
      001136                       4442 00188$:
      001136 E4               [12] 4443 	clr	a
      001137 F5*10            [12] 4444 	mov	_parseHIDDeviceReport_sloc4_1_0,a
      001139 F5*11            [12] 4445 	mov	(_parseHIDDeviceReport_sloc4_1_0 + 1),a
      00113B                       4446 00189$:
      00113B E5*14            [12] 4447 	mov	a,_parseHIDDeviceReport_sloc6_1_0
      00113D C3               [12] 4448 	clr	c
      00113E 95*10            [12] 4449 	subb	a,_parseHIDDeviceReport_sloc4_1_0
      001140 F9               [12] 4450 	mov	r1,a
      001141 E5*15            [12] 4451 	mov	a,(_parseHIDDeviceReport_sloc6_1_0 + 1)
      001143 95*11            [12] 4452 	subb	a,(_parseHIDDeviceReport_sloc4_1_0 + 1)
      001145 FA               [12] 4453 	mov	r2,a
      001146 88 06            [24] 4454 	mov	ar6,r0
      001148 7F 00            [12] 4455 	mov	r7,#0x00
      00114A C3               [12] 4456 	clr	c
      00114B EE               [12] 4457 	mov	a,r6
      00114C 99               [12] 4458 	subb	a,r1
      00114D EF               [12] 4459 	mov	a,r7
      00114E 64 80            [12] 4460 	xrl	a,#0x80
      001150 8A F0            [24] 4461 	mov	b,r2
      001152 63 F0 80         [24] 4462 	xrl	b,#0x80
      001155 95 F0            [12] 4463 	subb	a,b
      001157 50 03            [24] 4464 	jnc	00106$
      001159 08               [12] 4465 	inc	r0
      00115A 80 C8            [24] 4466 	sjmp	00184$
      00115C                       4467 00106$:
                                   4468 ;	USBHost.c:701: switch (tag) {
      00115C 90r03r28         [24] 4469 	mov	dptr,#_parseHIDDeviceReport_tag_65536_170
      00115F E0               [24] 4470 	movx	a,@dptr
      001160 FF               [12] 4471 	mov	r7,a
      001161 BF 04 02         [24] 4472 	cjne	r7,#0x04,00372$
      001164 80 63            [24] 4473 	sjmp	00107$
      001166                       4474 00372$:
      001166 BF 08 03         [24] 4475 	cjne	r7,#0x08,00373$
      001169 02r12r15         [24] 4476 	ljmp	00115$
      00116C                       4477 00373$:
      00116C BF 14 03         [24] 4478 	cjne	r7,#0x14,00374$
      00116F 02r16r99         [24] 4479 	ljmp	00174$
      001172                       4480 00374$:
      001172 BF 18 03         [24] 4481 	cjne	r7,#0x18,00375$
      001175 02r16r99         [24] 4482 	ljmp	00174$
      001178                       4483 00375$:
      001178 BF 24 03         [24] 4484 	cjne	r7,#0x24,00376$
      00117B 02r16r99         [24] 4485 	ljmp	00174$
      00117E                       4486 00376$:
      00117E BF 28 03         [24] 4487 	cjne	r7,#0x28,00377$
      001181 02r16r99         [24] 4488 	ljmp	00174$
      001184                       4489 00377$:
      001184 BF 34 03         [24] 4490 	cjne	r7,#0x34,00378$
      001187 02r16r99         [24] 4491 	ljmp	00174$
      00118A                       4492 00378$:
      00118A BF 44 03         [24] 4493 	cjne	r7,#0x44,00379$
      00118D 02r16r99         [24] 4494 	ljmp	00174$
      001190                       4495 00379$:
      001190 BF 64 03         [24] 4496 	cjne	r7,#0x64,00380$
      001193 02r16r99         [24] 4497 	ljmp	00174$
      001196                       4498 00380$:
      001196 BF 74 03         [24] 4499 	cjne	r7,#0x74,00381$
      001199 02r16r4C         [24] 4500 	ljmp	00167$
      00119C                       4501 00381$:
      00119C BF 80 03         [24] 4502 	cjne	r7,#0x80,00382$
      00119F 02r13r63         [24] 4503 	ljmp	00147$
      0011A2                       4504 00382$:
      0011A2 BF 84 03         [24] 4505 	cjne	r7,#0x84,00383$
      0011A5 02r16r61         [24] 4506 	ljmp	00168$
      0011A8                       4507 00383$:
      0011A8 BF 90 03         [24] 4508 	cjne	r7,#0x90,00384$
      0011AB 02r16r99         [24] 4509 	ljmp	00174$
      0011AE                       4510 00384$:
      0011AE BF 94 03         [24] 4511 	cjne	r7,#0x94,00385$
      0011B1 02r16r86         [24] 4512 	ljmp	00172$
      0011B4                       4513 00385$:
      0011B4 BF A0 03         [24] 4514 	cjne	r7,#0xa0,00386$
      0011B7 02r13r50         [24] 4515 	ljmp	00144$
      0011BA                       4516 00386$:
      0011BA BF B0 03         [24] 4517 	cjne	r7,#0xb0,00387$
      0011BD 02r16r99         [24] 4518 	ljmp	00174$
      0011C0                       4519 00387$:
      0011C0 BF C0 03         [24] 4520 	cjne	r7,#0xc0,00388$
      0011C3 02r13r5A         [24] 4521 	ljmp	00145$
      0011C6                       4522 00388$:
      0011C6 02r16r99         [24] 4523 	ljmp	00174$
                                   4524 ;	USBHost.c:702: case REPORT_USAGE_PAGE:
      0011C9                       4525 00107$:
                                   4526 ;	USBHost.c:703: usage_page = data;
      0011C9 90r03r2A         [24] 4527 	mov	dptr,#_parseHIDDeviceReport_data_65536_170
      0011CC E0               [24] 4528 	movx	a,@dptr
      0011CD F5*17            [12] 4529 	mov	_parseHIDDeviceReport_sloc8_1_0,a
      0011CF A3               [24] 4530 	inc	dptr
      0011D0 E0               [24] 4531 	movx	a,@dptr
      0011D1 F5*18            [12] 4532 	mov	(_parseHIDDeviceReport_sloc8_1_0 + 1),a
      0011D3 A3               [24] 4533 	inc	dptr
      0011D4 E0               [24] 4534 	movx	a,@dptr
      0011D5 F5*19            [12] 4535 	mov	(_parseHIDDeviceReport_sloc8_1_0 + 2),a
      0011D7 A3               [24] 4536 	inc	dptr
      0011D8 E0               [24] 4537 	movx	a,@dptr
      0011D9 F5*1A            [12] 4538 	mov	(_parseHIDDeviceReport_sloc8_1_0 + 3),a
      0011DB 90r03r2E         [24] 4539 	mov	dptr,#_parseHIDDeviceReport_usage_page_65536_170
      0011DE E5*17            [12] 4540 	mov	a,_parseHIDDeviceReport_sloc8_1_0
      0011E0 F0               [24] 4541 	movx	@dptr,a
      0011E1 E5*18            [12] 4542 	mov	a,(_parseHIDDeviceReport_sloc8_1_0 + 1)
      0011E3 A3               [24] 4543 	inc	dptr
      0011E4 F0               [24] 4544 	movx	@dptr,a
      0011E5 E5*19            [12] 4545 	mov	a,(_parseHIDDeviceReport_sloc8_1_0 + 2)
      0011E7 A3               [24] 4546 	inc	dptr
      0011E8 F0               [24] 4547 	movx	@dptr,a
      0011E9 E5*1A            [12] 4548 	mov	a,(_parseHIDDeviceReport_sloc8_1_0 + 3)
      0011EB A3               [24] 4549 	inc	dptr
      0011EC F0               [24] 4550 	movx	@dptr,a
                                   4551 ;	USBHost.c:705: switch (usage_page) {
      0011ED 74 01            [12] 4552 	mov	a,#0x01
      0011EF B5*17 0D         [24] 4553 	cjne	a,_parseHIDDeviceReport_sloc8_1_0,00389$
      0011F2 14               [12] 4554 	dec	a
      0011F3 B5*18 09         [24] 4555 	cjne	a,(_parseHIDDeviceReport_sloc8_1_0 + 1),00389$
      0011F6 B5*19 06         [24] 4556 	cjne	a,(_parseHIDDeviceReport_sloc8_1_0 + 2),00389$
      0011F9 B5*1A 03         [24] 4557 	cjne	a,(_parseHIDDeviceReport_sloc8_1_0 + 3),00389$
      0011FC 02r16r99         [24] 4558 	ljmp	00174$
      0011FF                       4559 00389$:
      0011FF 74 07            [12] 4560 	mov	a,#0x07
      001201 B5*17 0D         [24] 4561 	cjne	a,_parseHIDDeviceReport_sloc8_1_0,00390$
      001204 E4               [12] 4562 	clr	a
      001205 B5*18 09         [24] 4563 	cjne	a,(_parseHIDDeviceReport_sloc8_1_0 + 1),00390$
      001208 B5*19 06         [24] 4564 	cjne	a,(_parseHIDDeviceReport_sloc8_1_0 + 2),00390$
      00120B B5*1A 03         [24] 4565 	cjne	a,(_parseHIDDeviceReport_sloc8_1_0 + 3),00390$
      00120E D3               [12] 4566 	setb	c
      00120F 80 01            [24] 4567 	sjmp	00391$
      001211                       4568 00390$:
      001211 C3               [12] 4569 	clr	c
      001212                       4570 00391$:
                                   4571 ;	USBHost.c:725: break;
      001212 02r16r99         [24] 4572 	ljmp	00174$
                                   4573 ;	USBHost.c:727: case REPORT_USAGE:
      001215                       4574 00115$:
                                   4575 ;	USBHost.c:728: if (!isUsageSet) {
      001215 90r03r27         [24] 4576 	mov	dptr,#_parseHIDDeviceReport_isUsageSet_65536_170
      001218 E0               [24] 4577 	movx	a,@dptr
      001219 70 4F            [24] 4578 	jnz	00119$
                                   4579 ;	USBHost.c:729: if (data == REPORT_USAGE_MOUSE) {
      00121B 90r03r2A         [24] 4580 	mov	dptr,#_parseHIDDeviceReport_data_65536_170
      00121E E0               [24] 4581 	movx	a,@dptr
      00121F F5*17            [12] 4582 	mov	_parseHIDDeviceReport_sloc8_1_0,a
      001221 A3               [24] 4583 	inc	dptr
      001222 E0               [24] 4584 	movx	a,@dptr
      001223 F5*18            [12] 4585 	mov	(_parseHIDDeviceReport_sloc8_1_0 + 1),a
      001225 A3               [24] 4586 	inc	dptr
      001226 E0               [24] 4587 	movx	a,@dptr
      001227 F5*19            [12] 4588 	mov	(_parseHIDDeviceReport_sloc8_1_0 + 2),a
      001229 A3               [24] 4589 	inc	dptr
      00122A E0               [24] 4590 	movx	a,@dptr
      00122B F5*1A            [12] 4591 	mov	(_parseHIDDeviceReport_sloc8_1_0 + 3),a
      00122D 74 02            [12] 4592 	mov	a,#0x02
      00122F B5*17 0C         [24] 4593 	cjne	a,_parseHIDDeviceReport_sloc8_1_0,00393$
      001232 E4               [12] 4594 	clr	a
      001233 B5*18 08         [24] 4595 	cjne	a,(_parseHIDDeviceReport_sloc8_1_0 + 1),00393$
      001236 B5*19 05         [24] 4596 	cjne	a,(_parseHIDDeviceReport_sloc8_1_0 + 2),00393$
      001239 B5*1A 02         [24] 4597 	cjne	a,(_parseHIDDeviceReport_sloc8_1_0 + 3),00393$
      00123C 80 02            [24] 4598 	sjmp	00394$
      00123E                       4599 00393$:
      00123E 80 0F            [24] 4600 	sjmp	00117$
      001240                       4601 00394$:
                                   4602 ;	USBHost.c:730: flash_led(); //  .
      001240 C0 05            [24] 4603 	push	ar5
      001242 C0 04            [24] 4604 	push	ar4
      001244 C0 03            [24] 4605 	push	ar3
      001246 12r00r00         [24] 4606 	lcall	_flash_led
      001249 D0 03            [24] 4607 	pop	ar3
      00124B D0 04            [24] 4608 	pop	ar4
      00124D D0 05            [24] 4609 	pop	ar5
      00124F                       4610 00117$:
                                   4611 ;	USBHost.c:732: HIDdevice[CurrentDevice].type = data;
      00124F 85*12 82         [24] 4612 	mov	dpl,_parseHIDDeviceReport_sloc5_1_0
      001252 85*13 83         [24] 4613 	mov	dph,(_parseHIDDeviceReport_sloc5_1_0 + 1)
      001255 E5*17            [12] 4614 	mov	a,_parseHIDDeviceReport_sloc8_1_0
      001257 F0               [24] 4615 	movx	@dptr,a
      001258 E5*18            [12] 4616 	mov	a,(_parseHIDDeviceReport_sloc8_1_0 + 1)
      00125A A3               [24] 4617 	inc	dptr
      00125B F0               [24] 4618 	movx	@dptr,a
      00125C E5*19            [12] 4619 	mov	a,(_parseHIDDeviceReport_sloc8_1_0 + 2)
      00125E A3               [24] 4620 	inc	dptr
      00125F F0               [24] 4621 	movx	@dptr,a
      001260 E5*1A            [12] 4622 	mov	a,(_parseHIDDeviceReport_sloc8_1_0 + 3)
      001262 A3               [24] 4623 	inc	dptr
      001263 F0               [24] 4624 	movx	@dptr,a
                                   4625 ;	USBHost.c:733: isUsageSet = 1;
      001264 90r03r27         [24] 4626 	mov	dptr,#_parseHIDDeviceReport_isUsageSet_65536_170
      001267 74 01            [12] 4627 	mov	a,#0x01
      001269 F0               [24] 4628 	movx	@dptr,a
      00126A                       4629 00119$:
                                   4630 ;	USBHost.c:736: switch (data) {
      00126A 90r03r2A         [24] 4631 	mov	dptr,#_parseHIDDeviceReport_data_65536_170
      00126D E0               [24] 4632 	movx	a,@dptr
      00126E F5*17            [12] 4633 	mov	_parseHIDDeviceReport_sloc8_1_0,a
      001270 A3               [24] 4634 	inc	dptr
      001271 E0               [24] 4635 	movx	a,@dptr
      001272 F5*18            [12] 4636 	mov	(_parseHIDDeviceReport_sloc8_1_0 + 1),a
      001274 A3               [24] 4637 	inc	dptr
      001275 E0               [24] 4638 	movx	a,@dptr
      001276 F5*19            [12] 4639 	mov	(_parseHIDDeviceReport_sloc8_1_0 + 2),a
      001278 A3               [24] 4640 	inc	dptr
      001279 E0               [24] 4641 	movx	a,@dptr
      00127A F5*1A            [12] 4642 	mov	(_parseHIDDeviceReport_sloc8_1_0 + 3),a
      00127C C3               [12] 4643 	clr	c
      00127D 74 38            [12] 4644 	mov	a,#0x38
      00127F 95*17            [12] 4645 	subb	a,_parseHIDDeviceReport_sloc8_1_0
      001281 E4               [12] 4646 	clr	a
      001282 95*18            [12] 4647 	subb	a,(_parseHIDDeviceReport_sloc8_1_0 + 1)
      001284 E4               [12] 4648 	clr	a
      001285 95*19            [12] 4649 	subb	a,(_parseHIDDeviceReport_sloc8_1_0 + 2)
      001287 E4               [12] 4650 	clr	a
      001288 95*1A            [12] 4651 	subb	a,(_parseHIDDeviceReport_sloc8_1_0 + 3)
      00128A 50 03            [24] 4652 	jnc	00395$
      00128C 02r16r99         [24] 4653 	ljmp	00174$
      00128F                       4654 00395$:
      00128F E5*17            [12] 4655 	mov	a,_parseHIDDeviceReport_sloc8_1_0
      001291 24 0B            [12] 4656 	add	a,#(00396$-3-.)
      001293 83               [24] 4657 	movc	a,@a+pc
      001294 F5 82            [12] 4658 	mov	dpl,a
      001296 E5*17            [12] 4659 	mov	a,_parseHIDDeviceReport_sloc8_1_0
      001298 24 3D            [12] 4660 	add	a,#(00397$-3-.)
      00129A 83               [24] 4661 	movc	a,@a+pc
      00129B F5 83            [12] 4662 	mov	dph,a
      00129D E4               [12] 4663 	clr	a
      00129E 73               [24] 4664 	jmp	@a+dptr
      00129F                       4665 00396$:
      00129Fr99                    4666 	.db	00174$
      0012A0r99                    4667 	.db	00174$
      0012A1r99                    4668 	.db	00174$
      0012A2r99                    4669 	.db	00174$
      0012A3r99                    4670 	.db	00174$
      0012A4r99                    4671 	.db	00174$
      0012A5r99                    4672 	.db	00174$
      0012A6r99                    4673 	.db	00174$
      0012A7r99                    4674 	.db	00174$
      0012A8r99                    4675 	.db	00174$
      0012A9r99                    4676 	.db	00174$
      0012AAr99                    4677 	.db	00174$
      0012ABr99                    4678 	.db	00174$
      0012ACr99                    4679 	.db	00174$
      0012ADr99                    4680 	.db	00174$
      0012AEr99                    4681 	.db	00174$
      0012AFr99                    4682 	.db	00174$
      0012B0r99                    4683 	.db	00174$
      0012B1r99                    4684 	.db	00174$
      0012B2r99                    4685 	.db	00174$
      0012B3r99                    4686 	.db	00174$
      0012B4r99                    4687 	.db	00174$
      0012B5r99                    4688 	.db	00174$
      0012B6r99                    4689 	.db	00174$
      0012B7r99                    4690 	.db	00174$
      0012B8r99                    4691 	.db	00174$
      0012B9r99                    4692 	.db	00174$
      0012BAr99                    4693 	.db	00174$
      0012BBr99                    4694 	.db	00174$
      0012BCr99                    4695 	.db	00174$
      0012BDr99                    4696 	.db	00174$
      0012BEr99                    4697 	.db	00174$
      0012BFr99                    4698 	.db	00174$
      0012C0r99                    4699 	.db	00174$
      0012C1r99                    4700 	.db	00174$
      0012C2r99                    4701 	.db	00174$
      0012C3r99                    4702 	.db	00174$
      0012C4r99                    4703 	.db	00174$
      0012C5r99                    4704 	.db	00174$
      0012C6r99                    4705 	.db	00174$
      0012C7r99                    4706 	.db	00174$
      0012C8r99                    4707 	.db	00174$
      0012C9r99                    4708 	.db	00174$
      0012CAr99                    4709 	.db	00174$
      0012CBr99                    4710 	.db	00174$
      0012CCr99                    4711 	.db	00174$
      0012CDr99                    4712 	.db	00174$
      0012CEr99                    4713 	.db	00174$
      0012CFr11                    4714 	.db	00130$
      0012D0r26                    4715 	.db	00131$
      0012D1r99                    4716 	.db	00174$
      0012D2r99                    4717 	.db	00174$
      0012D3r99                    4718 	.db	00174$
      0012D4r99                    4719 	.db	00174$
      0012D5r99                    4720 	.db	00174$
      0012D6r99                    4721 	.db	00174$
      0012D7r3B                    4722 	.db	00133$
      0012D8                       4723 00397$:
      0012D8s16                    4724 	.db	00174$>>8
      0012D9s16                    4725 	.db	00174$>>8
      0012DAs16                    4726 	.db	00174$>>8
      0012DBs16                    4727 	.db	00174$>>8
      0012DCs16                    4728 	.db	00174$>>8
      0012DDs16                    4729 	.db	00174$>>8
      0012DEs16                    4730 	.db	00174$>>8
      0012DFs16                    4731 	.db	00174$>>8
      0012E0s16                    4732 	.db	00174$>>8
      0012E1s16                    4733 	.db	00174$>>8
      0012E2s16                    4734 	.db	00174$>>8
      0012E3s16                    4735 	.db	00174$>>8
      0012E4s16                    4736 	.db	00174$>>8
      0012E5s16                    4737 	.db	00174$>>8
      0012E6s16                    4738 	.db	00174$>>8
      0012E7s16                    4739 	.db	00174$>>8
      0012E8s16                    4740 	.db	00174$>>8
      0012E9s16                    4741 	.db	00174$>>8
      0012EAs16                    4742 	.db	00174$>>8
      0012EBs16                    4743 	.db	00174$>>8
      0012ECs16                    4744 	.db	00174$>>8
      0012EDs16                    4745 	.db	00174$>>8
      0012EEs16                    4746 	.db	00174$>>8
      0012EFs16                    4747 	.db	00174$>>8
      0012F0s16                    4748 	.db	00174$>>8
      0012F1s16                    4749 	.db	00174$>>8
      0012F2s16                    4750 	.db	00174$>>8
      0012F3s16                    4751 	.db	00174$>>8
      0012F4s16                    4752 	.db	00174$>>8
      0012F5s16                    4753 	.db	00174$>>8
      0012F6s16                    4754 	.db	00174$>>8
      0012F7s16                    4755 	.db	00174$>>8
      0012F8s16                    4756 	.db	00174$>>8
      0012F9s16                    4757 	.db	00174$>>8
      0012FAs16                    4758 	.db	00174$>>8
      0012FBs16                    4759 	.db	00174$>>8
      0012FCs16                    4760 	.db	00174$>>8
      0012FDs16                    4761 	.db	00174$>>8
      0012FEs16                    4762 	.db	00174$>>8
      0012FFs16                    4763 	.db	00174$>>8
      001300s16                    4764 	.db	00174$>>8
      001301s16                    4765 	.db	00174$>>8
      001302s16                    4766 	.db	00174$>>8
      001303s16                    4767 	.db	00174$>>8
      001304s16                    4768 	.db	00174$>>8
      001305s16                    4769 	.db	00174$>>8
      001306s16                    4770 	.db	00174$>>8
      001307s16                    4771 	.db	00174$>>8
      001308s13                    4772 	.db	00130$>>8
      001309s13                    4773 	.db	00131$>>8
      00130As16                    4774 	.db	00174$>>8
      00130Bs16                    4775 	.db	00174$>>8
      00130Cs16                    4776 	.db	00174$>>8
      00130Ds16                    4777 	.db	00174$>>8
      00130Es16                    4778 	.db	00174$>>8
      00130Fs16                    4779 	.db	00174$>>8
      001310s13                    4780 	.db	00133$>>8
                                   4781 ;	USBHost.c:767: case REPORT_USAGE_X:
      001311                       4782 00130$:
                                   4783 ;	USBHost.c:769: usageX = data;
      001311 90r03r32         [24] 4784 	mov	dptr,#_parseHIDDeviceReport_usageX_65536_170
      001314 E5*17            [12] 4785 	mov	a,_parseHIDDeviceReport_sloc8_1_0
      001316 F0               [24] 4786 	movx	@dptr,a
      001317 E5*18            [12] 4787 	mov	a,(_parseHIDDeviceReport_sloc8_1_0 + 1)
      001319 A3               [24] 4788 	inc	dptr
      00131A F0               [24] 4789 	movx	@dptr,a
      00131B E5*19            [12] 4790 	mov	a,(_parseHIDDeviceReport_sloc8_1_0 + 2)
      00131D A3               [24] 4791 	inc	dptr
      00131E F0               [24] 4792 	movx	@dptr,a
      00131F E5*1A            [12] 4793 	mov	a,(_parseHIDDeviceReport_sloc8_1_0 + 3)
      001321 A3               [24] 4794 	inc	dptr
      001322 F0               [24] 4795 	movx	@dptr,a
                                   4796 ;	USBHost.c:770: break;
      001323 02r16r99         [24] 4797 	ljmp	00174$
                                   4798 ;	USBHost.c:771: case REPORT_USAGE_Y:
      001326                       4799 00131$:
                                   4800 ;	USBHost.c:773: usageY = data;
      001326 90r03r36         [24] 4801 	mov	dptr,#_parseHIDDeviceReport_usageY_65536_170
      001329 E5*17            [12] 4802 	mov	a,_parseHIDDeviceReport_sloc8_1_0
      00132B F0               [24] 4803 	movx	@dptr,a
      00132C E5*18            [12] 4804 	mov	a,(_parseHIDDeviceReport_sloc8_1_0 + 1)
      00132E A3               [24] 4805 	inc	dptr
      00132F F0               [24] 4806 	movx	@dptr,a
      001330 E5*19            [12] 4807 	mov	a,(_parseHIDDeviceReport_sloc8_1_0 + 2)
      001332 A3               [24] 4808 	inc	dptr
      001333 F0               [24] 4809 	movx	@dptr,a
      001334 E5*1A            [12] 4810 	mov	a,(_parseHIDDeviceReport_sloc8_1_0 + 3)
      001336 A3               [24] 4811 	inc	dptr
      001337 F0               [24] 4812 	movx	@dptr,a
                                   4813 ;	USBHost.c:774: break;
      001338 02r16r99         [24] 4814 	ljmp	00174$
                                   4815 ;	USBHost.c:778: case REPORT_USAGE_WHEEL:
      00133B                       4816 00133$:
                                   4817 ;	USBHost.c:780: usageW = data;
      00133B 90r03r3A         [24] 4818 	mov	dptr,#_parseHIDDeviceReport_usageW_65536_170
      00133E E5*17            [12] 4819 	mov	a,_parseHIDDeviceReport_sloc8_1_0
      001340 F0               [24] 4820 	movx	@dptr,a
      001341 E5*18            [12] 4821 	mov	a,(_parseHIDDeviceReport_sloc8_1_0 + 1)
      001343 A3               [24] 4822 	inc	dptr
      001344 F0               [24] 4823 	movx	@dptr,a
      001345 E5*19            [12] 4824 	mov	a,(_parseHIDDeviceReport_sloc8_1_0 + 2)
      001347 A3               [24] 4825 	inc	dptr
      001348 F0               [24] 4826 	movx	@dptr,a
      001349 E5*1A            [12] 4827 	mov	a,(_parseHIDDeviceReport_sloc8_1_0 + 3)
      00134B A3               [24] 4828 	inc	dptr
      00134C F0               [24] 4829 	movx	@dptr,a
                                   4830 ;	USBHost.c:781: break;
      00134D 02r16r99         [24] 4831 	ljmp	00174$
                                   4832 ;	USBHost.c:811: case REPORT_COLLECTION:
      001350                       4833 00144$:
                                   4834 ;	USBHost.c:813: level++;
      001350 90r03r26         [24] 4835 	mov	dptr,#_parseHIDDeviceReport_level_65536_170
      001353 E0               [24] 4836 	movx	a,@dptr
      001354 24 01            [12] 4837 	add	a,#0x01
      001356 F0               [24] 4838 	movx	@dptr,a
                                   4839 ;	USBHost.c:814: break;
      001357 02r16r99         [24] 4840 	ljmp	00174$
                                   4841 ;	USBHost.c:815: case REPORT_COLLECTION_END:
      00135A                       4842 00145$:
                                   4843 ;	USBHost.c:817: level--;
      00135A 90r03r26         [24] 4844 	mov	dptr,#_parseHIDDeviceReport_level_65536_170
      00135D E0               [24] 4845 	movx	a,@dptr
      00135E 14               [12] 4846 	dec	a
      00135F F0               [24] 4847 	movx	@dptr,a
                                   4848 ;	USBHost.c:818: break;
      001360 02r16r99         [24] 4849 	ljmp	00174$
                                   4850 ;	USBHost.c:822: case REPORT_INPUT:
      001363                       4851 00147$:
                                   4852 ;	USBHost.c:824: used_reports = 0;
      001363 90r03r42         [24] 4853 	mov	dptr,#_parseHIDDeviceReport_used_reports_65536_170
      001366 E4               [12] 4854 	clr	a
      001367 F0               [24] 4855 	movx	@dptr,a
                                   4856 ;	USBHost.c:825: if (HIDdevice[CurrentDevice].type == REPORT_USAGE_MOUSE) {
      001368 85*12 82         [24] 4857 	mov	dpl,_parseHIDDeviceReport_sloc5_1_0
      00136B 85*13 83         [24] 4858 	mov	dph,(_parseHIDDeviceReport_sloc5_1_0 + 1)
      00136E E0               [24] 4859 	movx	a,@dptr
      00136F F8               [12] 4860 	mov	r0,a
      001370 A3               [24] 4861 	inc	dptr
      001371 E0               [24] 4862 	movx	a,@dptr
      001372 FA               [12] 4863 	mov	r2,a
      001373 A3               [24] 4864 	inc	dptr
      001374 E0               [24] 4865 	movx	a,@dptr
      001375 FE               [12] 4866 	mov	r6,a
      001376 A3               [24] 4867 	inc	dptr
      001377 E0               [24] 4868 	movx	a,@dptr
      001378 FF               [12] 4869 	mov	r7,a
      001379 B8 02 0B         [24] 4870 	cjne	r0,#0x02,00398$
      00137C BA 00 08         [24] 4871 	cjne	r2,#0x00,00398$
      00137F BE 00 05         [24] 4872 	cjne	r6,#0x00,00398$
      001382 BF 00 02         [24] 4873 	cjne	r7,#0x00,00398$
      001385 80 03            [24] 4874 	sjmp	00399$
      001387                       4875 00398$:
      001387 02r15rE6         [24] 4876 	ljmp	00162$
      00138A                       4877 00399$:
                                   4878 ;	USBHost.c:828: if (usage_page == 0x09) { // Button Page
      00138A 90r03r2E         [24] 4879 	mov	dptr,#_parseHIDDeviceReport_usage_page_65536_170
      00138D E0               [24] 4880 	movx	a,@dptr
      00138E F5*17            [12] 4881 	mov	_parseHIDDeviceReport_sloc8_1_0,a
      001390 A3               [24] 4882 	inc	dptr
      001391 E0               [24] 4883 	movx	a,@dptr
      001392 F5*18            [12] 4884 	mov	(_parseHIDDeviceReport_sloc8_1_0 + 1),a
      001394 A3               [24] 4885 	inc	dptr
      001395 E0               [24] 4886 	movx	a,@dptr
      001396 F5*19            [12] 4887 	mov	(_parseHIDDeviceReport_sloc8_1_0 + 2),a
      001398 A3               [24] 4888 	inc	dptr
      001399 E0               [24] 4889 	movx	a,@dptr
      00139A F5*1A            [12] 4890 	mov	(_parseHIDDeviceReport_sloc8_1_0 + 3),a
      00139C 74 09            [12] 4891 	mov	a,#0x09
      00139E B5*17 0C         [24] 4892 	cjne	a,_parseHIDDeviceReport_sloc8_1_0,00400$
      0013A1 E4               [12] 4893 	clr	a
      0013A2 B5*18 08         [24] 4894 	cjne	a,(_parseHIDDeviceReport_sloc8_1_0 + 1),00400$
      0013A5 B5*19 05         [24] 4895 	cjne	a,(_parseHIDDeviceReport_sloc8_1_0 + 2),00400$
      0013A8 B5*1A 02         [24] 4896 	cjne	a,(_parseHIDDeviceReport_sloc8_1_0 + 3),00400$
      0013AB 80 02            [24] 4897 	sjmp	00401$
      0013AD                       4898 00400$:
      0013AD 80 59            [24] 4899 	sjmp	00159$
      0013AF                       4900 00401$:
                                   4901 ;	USBHost.c:829: if (map->buttons_bit_size == 0) {
      0013AF 74 03            [12] 4902 	mov	a,#0x03
      0013B1 2C               [12] 4903 	add	a,r4
      0013B2 F5*1B            [12] 4904 	mov	_parseHIDDeviceReport_sloc9_1_0,a
      0013B4 E4               [12] 4905 	clr	a
      0013B5 3B               [12] 4906 	addc	a,r3
      0013B6 F5*1C            [12] 4907 	mov	(_parseHIDDeviceReport_sloc9_1_0 + 1),a
      0013B8 8D*1D            [24] 4908 	mov	(_parseHIDDeviceReport_sloc9_1_0 + 2),r5
      0013BA 85*1B 82         [24] 4909 	mov	dpl,_parseHIDDeviceReport_sloc9_1_0
      0013BD 85*1C 83         [24] 4910 	mov	dph,(_parseHIDDeviceReport_sloc9_1_0 + 1)
      0013C0 85*1D F0         [24] 4911 	mov	b,(_parseHIDDeviceReport_sloc9_1_0 + 2)
      0013C3 12r00r00         [24] 4912 	lcall	__gptrget
      0013C6 60 03            [24] 4913 	jz	00402$
      0013C8 02r15rE6         [24] 4914 	ljmp	00162$
      0013CB                       4915 00402$:
                                   4916 ;	USBHost.c:830: map->buttons_bit_offset = current_bit_offset;
      0013CB 74 01            [12] 4917 	mov	a,#0x01
      0013CD 2C               [12] 4918 	add	a,r4
      0013CE F9               [12] 4919 	mov	r1,a
      0013CF E4               [12] 4920 	clr	a
      0013D0 3B               [12] 4921 	addc	a,r3
      0013D1 FA               [12] 4922 	mov	r2,a
      0013D2 8D 07            [24] 4923 	mov	ar7,r5
      0013D4 90r03r40         [24] 4924 	mov	dptr,#_parseHIDDeviceReport_current_bit_offset_65536_170
      0013D7 E0               [24] 4925 	movx	a,@dptr
      0013D8 F8               [12] 4926 	mov	r0,a
      0013D9 A3               [24] 4927 	inc	dptr
      0013DA E0               [24] 4928 	movx	a,@dptr
      0013DB FE               [12] 4929 	mov	r6,a
      0013DC 89 82            [24] 4930 	mov	dpl,r1
      0013DE 8A 83            [24] 4931 	mov	dph,r2
      0013E0 8F F0            [24] 4932 	mov	b,r7
      0013E2 E8               [12] 4933 	mov	a,r0
      0013E3 12r00r00         [24] 4934 	lcall	__gptrput
      0013E6 A3               [24] 4935 	inc	dptr
      0013E7 EE               [12] 4936 	mov	a,r6
      0013E8 12r00r00         [24] 4937 	lcall	__gptrput
                                   4938 ;	USBHost.c:831: map->buttons_bit_size = report_size * report_count;
      0013EB 90r03r3F         [24] 4939 	mov	dptr,#_parseHIDDeviceReport_report_count_65536_170
      0013EE E0               [24] 4940 	movx	a,@dptr
      0013EF FF               [12] 4941 	mov	r7,a
      0013F0 90r03r3E         [24] 4942 	mov	dptr,#_parseHIDDeviceReport_report_size_65536_170
      0013F3 E0               [24] 4943 	movx	a,@dptr
      0013F4 F5 F0            [12] 4944 	mov	b,a
      0013F6 EF               [12] 4945 	mov	a,r7
      0013F7 A4               [48] 4946 	mul	ab
      0013F8 FF               [12] 4947 	mov	r7,a
      0013F9 85*1B 82         [24] 4948 	mov	dpl,_parseHIDDeviceReport_sloc9_1_0
      0013FC 85*1C 83         [24] 4949 	mov	dph,(_parseHIDDeviceReport_sloc9_1_0 + 1)
      0013FF 85*1D F0         [24] 4950 	mov	b,(_parseHIDDeviceReport_sloc9_1_0 + 2)
      001402 12r00r00         [24] 4951 	lcall	__gptrput
                                   4952 ;	USBHost.c:832: DEBUG_OUT("Buttons: offset=%d, size=%d\n",
      001405 02r15rE6         [24] 4953 	ljmp	00162$
      001408                       4954 00159$:
                                   4955 ;	USBHost.c:836: else if (usage_page == 0x01) { // Generic Desktop Page
      001408 74 01            [12] 4956 	mov	a,#0x01
      00140A B5*17 0C         [24] 4957 	cjne	a,_parseHIDDeviceReport_sloc8_1_0,00403$
      00140D 14               [12] 4958 	dec	a
      00140E B5*18 08         [24] 4959 	cjne	a,(_parseHIDDeviceReport_sloc8_1_0 + 1),00403$
      001411 B5*19 05         [24] 4960 	cjne	a,(_parseHIDDeviceReport_sloc8_1_0 + 2),00403$
      001414 B5*1A 02         [24] 4961 	cjne	a,(_parseHIDDeviceReport_sloc8_1_0 + 3),00403$
      001417 80 03            [24] 4962 	sjmp	00404$
      001419                       4963 00403$:
      001419 02r15rE6         [24] 4964 	ljmp	00162$
      00141C                       4965 00404$:
                                   4966 ;	USBHost.c:837: if (usageX == 0x30) { // X
      00141C 90r03r32         [24] 4967 	mov	dptr,#_parseHIDDeviceReport_usageX_65536_170
      00141F E0               [24] 4968 	movx	a,@dptr
      001420 F8               [12] 4969 	mov	r0,a
      001421 A3               [24] 4970 	inc	dptr
      001422 E0               [24] 4971 	movx	a,@dptr
      001423 FA               [12] 4972 	mov	r2,a
      001424 A3               [24] 4973 	inc	dptr
      001425 E0               [24] 4974 	movx	a,@dptr
      001426 FE               [12] 4975 	mov	r6,a
      001427 A3               [24] 4976 	inc	dptr
      001428 E0               [24] 4977 	movx	a,@dptr
      001429 FF               [12] 4978 	mov	r7,a
      00142A B8 30 0B         [24] 4979 	cjne	r0,#0x30,00405$
      00142D BA 00 08         [24] 4980 	cjne	r2,#0x00,00405$
      001430 BE 00 05         [24] 4981 	cjne	r6,#0x00,00405$
      001433 BF 00 02         [24] 4982 	cjne	r7,#0x00,00405$
      001436 80 02            [24] 4983 	sjmp	00406$
      001438                       4984 00405$:
      001438 80 7C            [24] 4985 	sjmp	00151$
      00143A                       4986 00406$:
                                   4987 ;	USBHost.c:838: usageX = 0;
      00143A 90r03r32         [24] 4988 	mov	dptr,#_parseHIDDeviceReport_usageX_65536_170
      00143D E4               [12] 4989 	clr	a
      00143E F0               [24] 4990 	movx	@dptr,a
      00143F A3               [24] 4991 	inc	dptr
      001440 F0               [24] 4992 	movx	@dptr,a
      001441 A3               [24] 4993 	inc	dptr
      001442 F0               [24] 4994 	movx	@dptr,a
      001443 A3               [24] 4995 	inc	dptr
      001444 F0               [24] 4996 	movx	@dptr,a
                                   4997 ;	USBHost.c:839: map->x_bit_offset = current_bit_offset;
      001445 74 04            [12] 4998 	mov	a,#0x04
      001447 2C               [12] 4999 	add	a,r4
      001448 F8               [12] 5000 	mov	r0,a
      001449 E4               [12] 5001 	clr	a
      00144A 3B               [12] 5002 	addc	a,r3
      00144B FE               [12] 5003 	mov	r6,a
      00144C 8D 07            [24] 5004 	mov	ar7,r5
      00144E 90r03r40         [24] 5005 	mov	dptr,#_parseHIDDeviceReport_current_bit_offset_65536_170
      001451 E0               [24] 5006 	movx	a,@dptr
      001452 F9               [12] 5007 	mov	r1,a
      001453 A3               [24] 5008 	inc	dptr
      001454 E0               [24] 5009 	movx	a,@dptr
      001455 FA               [12] 5010 	mov	r2,a
      001456 88 82            [24] 5011 	mov	dpl,r0
      001458 8E 83            [24] 5012 	mov	dph,r6
      00145A 8F F0            [24] 5013 	mov	b,r7
      00145C E9               [12] 5014 	mov	a,r1
      00145D 12r00r00         [24] 5015 	lcall	__gptrput
      001460 A3               [24] 5016 	inc	dptr
      001461 EA               [12] 5017 	mov	a,r2
      001462 12r00r00         [24] 5018 	lcall	__gptrput
                                   5019 ;	USBHost.c:840: map->x_bit_size = report_size;
      001465 74 06            [12] 5020 	mov	a,#0x06
      001467 2C               [12] 5021 	add	a,r4
      001468 F5*1B            [12] 5022 	mov	_parseHIDDeviceReport_sloc9_1_0,a
      00146A E4               [12] 5023 	clr	a
      00146B 3B               [12] 5024 	addc	a,r3
      00146C F5*1C            [12] 5025 	mov	(_parseHIDDeviceReport_sloc9_1_0 + 1),a
      00146E 8D*1D            [24] 5026 	mov	(_parseHIDDeviceReport_sloc9_1_0 + 2),r5
      001470 90r03r3E         [24] 5027 	mov	dptr,#_parseHIDDeviceReport_report_size_65536_170
      001473 E0               [24] 5028 	movx	a,@dptr
      001474 F5*17            [12] 5029 	mov	_parseHIDDeviceReport_sloc8_1_0,a
      001476 85*1B 82         [24] 5030 	mov	dpl,_parseHIDDeviceReport_sloc9_1_0
      001479 85*1C 83         [24] 5031 	mov	dph,(_parseHIDDeviceReport_sloc9_1_0 + 1)
      00147C 85*1D F0         [24] 5032 	mov	b,(_parseHIDDeviceReport_sloc9_1_0 + 2)
      00147F 12r00r00         [24] 5033 	lcall	__gptrput
                                   5034 ;	USBHost.c:841: map->report_length_bits = current_bit_offset + report_size;
      001482 74 0D            [12] 5035 	mov	a,#0x0d
      001484 2C               [12] 5036 	add	a,r4
      001485 F5*1B            [12] 5037 	mov	_parseHIDDeviceReport_sloc9_1_0,a
      001487 E4               [12] 5038 	clr	a
      001488 3B               [12] 5039 	addc	a,r3
      001489 F5*1C            [12] 5040 	mov	(_parseHIDDeviceReport_sloc9_1_0 + 1),a
      00148B 8D*1D            [24] 5041 	mov	(_parseHIDDeviceReport_sloc9_1_0 + 2),r5
      00148D 89 07            [24] 5042 	mov	ar7,r1
      00148F E5*17            [12] 5043 	mov	a,_parseHIDDeviceReport_sloc8_1_0
      001491 2F               [12] 5044 	add	a,r7
      001492 85*1B 82         [24] 5045 	mov	dpl,_parseHIDDeviceReport_sloc9_1_0
      001495 85*1C 83         [24] 5046 	mov	dph,(_parseHIDDeviceReport_sloc9_1_0 + 1)
      001498 85*1D F0         [24] 5047 	mov	b,(_parseHIDDeviceReport_sloc9_1_0 + 2)
      00149B 12r00r00         [24] 5048 	lcall	__gptrput
                                   5049 ;	USBHost.c:842: current_bit_offset += report_size;
      00149E AE*17            [24] 5050 	mov	r6,_parseHIDDeviceReport_sloc8_1_0
      0014A0 7F 00            [12] 5051 	mov	r7,#0x00
      0014A2 EE               [12] 5052 	mov	a,r6
      0014A3 29               [12] 5053 	add	a,r1
      0014A4 F9               [12] 5054 	mov	r1,a
      0014A5 EF               [12] 5055 	mov	a,r7
      0014A6 3A               [12] 5056 	addc	a,r2
      0014A7 FA               [12] 5057 	mov	r2,a
      0014A8 90r03r40         [24] 5058 	mov	dptr,#_parseHIDDeviceReport_current_bit_offset_65536_170
      0014AB E9               [12] 5059 	mov	a,r1
      0014AC F0               [24] 5060 	movx	@dptr,a
      0014AD EA               [12] 5061 	mov	a,r2
      0014AE A3               [24] 5062 	inc	dptr
      0014AF F0               [24] 5063 	movx	@dptr,a
                                   5064 ;	USBHost.c:843: used_reports++;
      0014B0 90r03r42         [24] 5065 	mov	dptr,#_parseHIDDeviceReport_used_reports_65536_170
      0014B3 74 01            [12] 5066 	mov	a,#0x01
      0014B5 F0               [24] 5067 	movx	@dptr,a
                                   5068 ;	USBHost.c:909: DEBUG_OUT("Mouse Map: ID:%u, buttons@%d:%d, x@%d:%d, y@%d:%d, wheel@%d:%d, total_bits:%d\n",
                                   5069 ;	USBHost.c:844: DEBUG_OUT("X: offset=%d, size=%d\n",
      0014B6                       5070 00151$:
                                   5071 ;	USBHost.c:847: if (usageY == 0x31) { // Y
      0014B6 90r03r36         [24] 5072 	mov	dptr,#_parseHIDDeviceReport_usageY_65536_170
      0014B9 E0               [24] 5073 	movx	a,@dptr
      0014BA F8               [12] 5074 	mov	r0,a
      0014BB A3               [24] 5075 	inc	dptr
      0014BC E0               [24] 5076 	movx	a,@dptr
      0014BD FA               [12] 5077 	mov	r2,a
      0014BE A3               [24] 5078 	inc	dptr
      0014BF E0               [24] 5079 	movx	a,@dptr
      0014C0 FE               [12] 5080 	mov	r6,a
      0014C1 A3               [24] 5081 	inc	dptr
      0014C2 E0               [24] 5082 	movx	a,@dptr
      0014C3 FF               [12] 5083 	mov	r7,a
      0014C4 B8 31 0B         [24] 5084 	cjne	r0,#0x31,00407$
      0014C7 BA 00 08         [24] 5085 	cjne	r2,#0x00,00407$
      0014CA BE 00 05         [24] 5086 	cjne	r6,#0x00,00407$
      0014CD BF 00 02         [24] 5087 	cjne	r7,#0x00,00407$
      0014D0 80 03            [24] 5088 	sjmp	00408$
      0014D2                       5089 00407$:
      0014D2 02r15r52         [24] 5090 	ljmp	00153$
      0014D5                       5091 00408$:
                                   5092 ;	USBHost.c:848: usageY = 0;
      0014D5 90r03r36         [24] 5093 	mov	dptr,#_parseHIDDeviceReport_usageY_65536_170
      0014D8 E4               [12] 5094 	clr	a
      0014D9 F0               [24] 5095 	movx	@dptr,a
      0014DA A3               [24] 5096 	inc	dptr
      0014DB F0               [24] 5097 	movx	@dptr,a
      0014DC A3               [24] 5098 	inc	dptr
      0014DD F0               [24] 5099 	movx	@dptr,a
      0014DE A3               [24] 5100 	inc	dptr
      0014DF F0               [24] 5101 	movx	@dptr,a
                                   5102 ;	USBHost.c:849: map->y_bit_offset = current_bit_offset;
      0014E0 74 07            [12] 5103 	mov	a,#0x07
      0014E2 2C               [12] 5104 	add	a,r4
      0014E3 F8               [12] 5105 	mov	r0,a
      0014E4 E4               [12] 5106 	clr	a
      0014E5 3B               [12] 5107 	addc	a,r3
      0014E6 FE               [12] 5108 	mov	r6,a
      0014E7 8D 07            [24] 5109 	mov	ar7,r5
      0014E9 90r03r40         [24] 5110 	mov	dptr,#_parseHIDDeviceReport_current_bit_offset_65536_170
      0014EC E0               [24] 5111 	movx	a,@dptr
      0014ED F9               [12] 5112 	mov	r1,a
      0014EE A3               [24] 5113 	inc	dptr
      0014EF E0               [24] 5114 	movx	a,@dptr
      0014F0 FA               [12] 5115 	mov	r2,a
      0014F1 88 82            [24] 5116 	mov	dpl,r0
      0014F3 8E 83            [24] 5117 	mov	dph,r6
      0014F5 8F F0            [24] 5118 	mov	b,r7
      0014F7 E9               [12] 5119 	mov	a,r1
      0014F8 12r00r00         [24] 5120 	lcall	__gptrput
      0014FB A3               [24] 5121 	inc	dptr
      0014FC EA               [12] 5122 	mov	a,r2
      0014FD 12r00r00         [24] 5123 	lcall	__gptrput
                                   5124 ;	USBHost.c:850: map->y_bit_size = report_size;
      001500 74 09            [12] 5125 	mov	a,#0x09
      001502 2C               [12] 5126 	add	a,r4
      001503 F5*1B            [12] 5127 	mov	_parseHIDDeviceReport_sloc9_1_0,a
      001505 E4               [12] 5128 	clr	a
      001506 3B               [12] 5129 	addc	a,r3
      001507 F5*1C            [12] 5130 	mov	(_parseHIDDeviceReport_sloc9_1_0 + 1),a
      001509 8D*1D            [24] 5131 	mov	(_parseHIDDeviceReport_sloc9_1_0 + 2),r5
      00150B 90r03r3E         [24] 5132 	mov	dptr,#_parseHIDDeviceReport_report_size_65536_170
      00150E E0               [24] 5133 	movx	a,@dptr
      00150F F5*17            [12] 5134 	mov	_parseHIDDeviceReport_sloc8_1_0,a
      001511 85*1B 82         [24] 5135 	mov	dpl,_parseHIDDeviceReport_sloc9_1_0
      001514 85*1C 83         [24] 5136 	mov	dph,(_parseHIDDeviceReport_sloc9_1_0 + 1)
      001517 85*1D F0         [24] 5137 	mov	b,(_parseHIDDeviceReport_sloc9_1_0 + 2)
      00151A 12r00r00         [24] 5138 	lcall	__gptrput
                                   5139 ;	USBHost.c:851: map->report_length_bits = current_bit_offset + report_size;
      00151D 74 0D            [12] 5140 	mov	a,#0x0d
      00151F 2C               [12] 5141 	add	a,r4
      001520 F5*1B            [12] 5142 	mov	_parseHIDDeviceReport_sloc9_1_0,a
      001522 E4               [12] 5143 	clr	a
      001523 3B               [12] 5144 	addc	a,r3
      001524 F5*1C            [12] 5145 	mov	(_parseHIDDeviceReport_sloc9_1_0 + 1),a
      001526 8D*1D            [24] 5146 	mov	(_parseHIDDeviceReport_sloc9_1_0 + 2),r5
      001528 89 07            [24] 5147 	mov	ar7,r1
      00152A E5*17            [12] 5148 	mov	a,_parseHIDDeviceReport_sloc8_1_0
      00152C 2F               [12] 5149 	add	a,r7
      00152D 85*1B 82         [24] 5150 	mov	dpl,_parseHIDDeviceReport_sloc9_1_0
      001530 85*1C 83         [24] 5151 	mov	dph,(_parseHIDDeviceReport_sloc9_1_0 + 1)
      001533 85*1D F0         [24] 5152 	mov	b,(_parseHIDDeviceReport_sloc9_1_0 + 2)
      001536 12r00r00         [24] 5153 	lcall	__gptrput
                                   5154 ;	USBHost.c:852: current_bit_offset += report_size;
      001539 AE*17            [24] 5155 	mov	r6,_parseHIDDeviceReport_sloc8_1_0
      00153B 7F 00            [12] 5156 	mov	r7,#0x00
      00153D EE               [12] 5157 	mov	a,r6
      00153E 29               [12] 5158 	add	a,r1
      00153F F9               [12] 5159 	mov	r1,a
      001540 EF               [12] 5160 	mov	a,r7
      001541 3A               [12] 5161 	addc	a,r2
      001542 FA               [12] 5162 	mov	r2,a
      001543 90r03r40         [24] 5163 	mov	dptr,#_parseHIDDeviceReport_current_bit_offset_65536_170
      001546 E9               [12] 5164 	mov	a,r1
      001547 F0               [24] 5165 	movx	@dptr,a
      001548 EA               [12] 5166 	mov	a,r2
      001549 A3               [24] 5167 	inc	dptr
      00154A F0               [24] 5168 	movx	@dptr,a
                                   5169 ;	USBHost.c:853: used_reports++;
      00154B 90r03r42         [24] 5170 	mov	dptr,#_parseHIDDeviceReport_used_reports_65536_170
      00154E E0               [24] 5171 	movx	a,@dptr
      00154F 24 01            [12] 5172 	add	a,#0x01
      001551 F0               [24] 5173 	movx	@dptr,a
                                   5174 ;	USBHost.c:909: DEBUG_OUT("Mouse Map: ID:%u, buttons@%d:%d, x@%d:%d, y@%d:%d, wheel@%d:%d, total_bits:%d\n",
                                   5175 ;	USBHost.c:854: DEBUG_OUT("Y: offset=%d, size=%d\n",
      001552                       5176 00153$:
                                   5177 ;	USBHost.c:857: if (usageW == 0x38) { // Wheel
      001552 90r03r3A         [24] 5178 	mov	dptr,#_parseHIDDeviceReport_usageW_65536_170
      001555 E0               [24] 5179 	movx	a,@dptr
      001556 F8               [12] 5180 	mov	r0,a
      001557 A3               [24] 5181 	inc	dptr
      001558 E0               [24] 5182 	movx	a,@dptr
      001559 FA               [12] 5183 	mov	r2,a
      00155A A3               [24] 5184 	inc	dptr
      00155B E0               [24] 5185 	movx	a,@dptr
      00155C FE               [12] 5186 	mov	r6,a
      00155D A3               [24] 5187 	inc	dptr
      00155E E0               [24] 5188 	movx	a,@dptr
      00155F FF               [12] 5189 	mov	r7,a
      001560 B8 38 0B         [24] 5190 	cjne	r0,#0x38,00409$
      001563 BA 00 08         [24] 5191 	cjne	r2,#0x00,00409$
      001566 BE 00 05         [24] 5192 	cjne	r6,#0x00,00409$
      001569 BF 00 02         [24] 5193 	cjne	r7,#0x00,00409$
      00156C 80 02            [24] 5194 	sjmp	00410$
      00156E                       5195 00409$:
      00156E 80 76            [24] 5196 	sjmp	00162$
      001570                       5197 00410$:
                                   5198 ;	USBHost.c:858: usageW = 0;
      001570 90r03r3A         [24] 5199 	mov	dptr,#_parseHIDDeviceReport_usageW_65536_170
      001573 E4               [12] 5200 	clr	a
      001574 F0               [24] 5201 	movx	@dptr,a
      001575 A3               [24] 5202 	inc	dptr
      001576 F0               [24] 5203 	movx	@dptr,a
      001577 A3               [24] 5204 	inc	dptr
      001578 F0               [24] 5205 	movx	@dptr,a
      001579 A3               [24] 5206 	inc	dptr
      00157A F0               [24] 5207 	movx	@dptr,a
                                   5208 ;	USBHost.c:859: map->wheel_bit_offset = current_bit_offset;
      00157B 74 0A            [12] 5209 	mov	a,#0x0a
      00157D 2C               [12] 5210 	add	a,r4
      00157E F8               [12] 5211 	mov	r0,a
      00157F E4               [12] 5212 	clr	a
      001580 3B               [12] 5213 	addc	a,r3
      001581 FE               [12] 5214 	mov	r6,a
      001582 8D 07            [24] 5215 	mov	ar7,r5
      001584 90r03r40         [24] 5216 	mov	dptr,#_parseHIDDeviceReport_current_bit_offset_65536_170
      001587 E0               [24] 5217 	movx	a,@dptr
      001588 F9               [12] 5218 	mov	r1,a
      001589 A3               [24] 5219 	inc	dptr
      00158A E0               [24] 5220 	movx	a,@dptr
      00158B FA               [12] 5221 	mov	r2,a
      00158C 88 82            [24] 5222 	mov	dpl,r0
      00158E 8E 83            [24] 5223 	mov	dph,r6
      001590 8F F0            [24] 5224 	mov	b,r7
      001592 E9               [12] 5225 	mov	a,r1
      001593 12r00r00         [24] 5226 	lcall	__gptrput
      001596 A3               [24] 5227 	inc	dptr
      001597 EA               [12] 5228 	mov	a,r2
      001598 12r00r00         [24] 5229 	lcall	__gptrput
                                   5230 ;	USBHost.c:860: map->wheel_bit_size = report_size;
      00159B 74 0C            [12] 5231 	mov	a,#0x0c
      00159D 2C               [12] 5232 	add	a,r4
      00159E F5*1B            [12] 5233 	mov	_parseHIDDeviceReport_sloc9_1_0,a
      0015A0 E4               [12] 5234 	clr	a
      0015A1 3B               [12] 5235 	addc	a,r3
      0015A2 F5*1C            [12] 5236 	mov	(_parseHIDDeviceReport_sloc9_1_0 + 1),a
      0015A4 8D*1D            [24] 5237 	mov	(_parseHIDDeviceReport_sloc9_1_0 + 2),r5
      0015A6 90r03r3E         [24] 5238 	mov	dptr,#_parseHIDDeviceReport_report_size_65536_170
      0015A9 E0               [24] 5239 	movx	a,@dptr
      0015AA F5*17            [12] 5240 	mov	_parseHIDDeviceReport_sloc8_1_0,a
      0015AC 85*1B 82         [24] 5241 	mov	dpl,_parseHIDDeviceReport_sloc9_1_0
      0015AF 85*1C 83         [24] 5242 	mov	dph,(_parseHIDDeviceReport_sloc9_1_0 + 1)
      0015B2 85*1D F0         [24] 5243 	mov	b,(_parseHIDDeviceReport_sloc9_1_0 + 2)
      0015B5 12r00r00         [24] 5244 	lcall	__gptrput
                                   5245 ;	USBHost.c:861: map->report_length_bits = current_bit_offset + report_size;
      0015B8 74 0D            [12] 5246 	mov	a,#0x0d
      0015BA 2C               [12] 5247 	add	a,r4
      0015BB F5*1B            [12] 5248 	mov	_parseHIDDeviceReport_sloc9_1_0,a
      0015BD E4               [12] 5249 	clr	a
      0015BE 3B               [12] 5250 	addc	a,r3
      0015BF F5*1C            [12] 5251 	mov	(_parseHIDDeviceReport_sloc9_1_0 + 1),a
      0015C1 8D*1D            [24] 5252 	mov	(_parseHIDDeviceReport_sloc9_1_0 + 2),r5
      0015C3 89 07            [24] 5253 	mov	ar7,r1
      0015C5 E5*17            [12] 5254 	mov	a,_parseHIDDeviceReport_sloc8_1_0
      0015C7 2F               [12] 5255 	add	a,r7
      0015C8 85*1B 82         [24] 5256 	mov	dpl,_parseHIDDeviceReport_sloc9_1_0
      0015CB 85*1C 83         [24] 5257 	mov	dph,(_parseHIDDeviceReport_sloc9_1_0 + 1)
      0015CE 85*1D F0         [24] 5258 	mov	b,(_parseHIDDeviceReport_sloc9_1_0 + 2)
      0015D1 12r00r00         [24] 5259 	lcall	__gptrput
                                   5260 ;	USBHost.c:862: current_bit_offset += report_size;
      0015D4 AE*17            [24] 5261 	mov	r6,_parseHIDDeviceReport_sloc8_1_0
      0015D6 7F 00            [12] 5262 	mov	r7,#0x00
      0015D8 EE               [12] 5263 	mov	a,r6
      0015D9 29               [12] 5264 	add	a,r1
      0015DA F9               [12] 5265 	mov	r1,a
      0015DB EF               [12] 5266 	mov	a,r7
      0015DC 3A               [12] 5267 	addc	a,r2
      0015DD FA               [12] 5268 	mov	r2,a
      0015DE 90r03r40         [24] 5269 	mov	dptr,#_parseHIDDeviceReport_current_bit_offset_65536_170
      0015E1 E9               [12] 5270 	mov	a,r1
      0015E2 F0               [24] 5271 	movx	@dptr,a
      0015E3 EA               [12] 5272 	mov	a,r2
      0015E4 A3               [24] 5273 	inc	dptr
      0015E5 F0               [24] 5274 	movx	@dptr,a
                                   5275 ;	USBHost.c:909: DEBUG_OUT("Mouse Map: ID:%u, buttons@%d:%d, x@%d:%d, y@%d:%d, wheel@%d:%d, total_bits:%d\n",
                                   5276 ;	USBHost.c:863: DEBUG_OUT("Wheel: offset=%d, size=%d\n",
      0015E6                       5277 00162$:
                                   5278 ;	USBHost.c:868: if (used_reports > report_count) {
      0015E6 90r03r42         [24] 5279 	mov	dptr,#_parseHIDDeviceReport_used_reports_65536_170
      0015E9 E0               [24] 5280 	movx	a,@dptr
      0015EA FF               [12] 5281 	mov	r7,a
      0015EB 90r03r3F         [24] 5282 	mov	dptr,#_parseHIDDeviceReport_report_count_65536_170
      0015EE E0               [24] 5283 	movx	a,@dptr
      0015EF FE               [12] 5284 	mov	r6,a
      0015F0 C3               [12] 5285 	clr	c
      0015F1 9F               [12] 5286 	subb	a,r7
      0015F2 50 05            [24] 5287 	jnc	00164$
                                   5288 ;	USBHost.c:869: used_reports = report_count;
      0015F4 90r03r42         [24] 5289 	mov	dptr,#_parseHIDDeviceReport_used_reports_65536_170
      0015F7 EE               [12] 5290 	mov	a,r6
      0015F8 F0               [24] 5291 	movx	@dptr,a
                                   5292 ;	USBHost.c:870: DEBUG_OUT("Error: HID report parsing error. used reports: %d, all reports: %d\n",
      0015F9                       5293 00164$:
                                   5294 ;	USBHost.c:873: current_bit_offset += report_size * (report_count - used_reports);
      0015F9 90r03r3F         [24] 5295 	mov	dptr,#_parseHIDDeviceReport_report_count_65536_170
      0015FC E0               [24] 5296 	movx	a,@dptr
      0015FD FF               [12] 5297 	mov	r7,a
      0015FE 7E 00            [12] 5298 	mov	r6,#0x00
      001600 90r03r42         [24] 5299 	mov	dptr,#_parseHIDDeviceReport_used_reports_65536_170
      001603 E0               [24] 5300 	movx	a,@dptr
      001604 F8               [12] 5301 	mov	r0,a
      001605 7A 00            [12] 5302 	mov	r2,#0x00
      001607 EF               [12] 5303 	mov	a,r7
      001608 C3               [12] 5304 	clr	c
      001609 98               [12] 5305 	subb	a,r0
      00160A FF               [12] 5306 	mov	r7,a
      00160B EE               [12] 5307 	mov	a,r6
      00160C 9A               [12] 5308 	subb	a,r2
      00160D FE               [12] 5309 	mov	r6,a
      00160E 90r03r3E         [24] 5310 	mov	dptr,#_parseHIDDeviceReport_report_size_65536_170
      001611 E0               [24] 5311 	movx	a,@dptr
      001612 F9               [12] 5312 	mov	r1,a
      001613 7A 00            [12] 5313 	mov	r2,#0x00
      001615 90r00r00         [24] 5314 	mov	dptr,#__mulint_PARM_2
      001618 EF               [12] 5315 	mov	a,r7
      001619 F0               [24] 5316 	movx	@dptr,a
      00161A EE               [12] 5317 	mov	a,r6
      00161B A3               [24] 5318 	inc	dptr
      00161C F0               [24] 5319 	movx	@dptr,a
      00161D 89 82            [24] 5320 	mov	dpl,r1
      00161F 8A 83            [24] 5321 	mov	dph,r2
      001621 C0 05            [24] 5322 	push	ar5
      001623 C0 04            [24] 5323 	push	ar4
      001625 C0 03            [24] 5324 	push	ar3
      001627 12r00r00         [24] 5325 	lcall	__mulint
      00162A AE 82            [24] 5326 	mov	r6,dpl
      00162C AF 83            [24] 5327 	mov	r7,dph
      00162E D0 03            [24] 5328 	pop	ar3
      001630 D0 04            [24] 5329 	pop	ar4
      001632 D0 05            [24] 5330 	pop	ar5
      001634 90r03r40         [24] 5331 	mov	dptr,#_parseHIDDeviceReport_current_bit_offset_65536_170
      001637 E0               [24] 5332 	movx	a,@dptr
      001638 F9               [12] 5333 	mov	r1,a
      001639 A3               [24] 5334 	inc	dptr
      00163A E0               [24] 5335 	movx	a,@dptr
      00163B FA               [12] 5336 	mov	r2,a
      00163C EE               [12] 5337 	mov	a,r6
      00163D 29               [12] 5338 	add	a,r1
      00163E F9               [12] 5339 	mov	r1,a
      00163F EF               [12] 5340 	mov	a,r7
      001640 3A               [12] 5341 	addc	a,r2
      001641 FA               [12] 5342 	mov	r2,a
      001642 90r03r40         [24] 5343 	mov	dptr,#_parseHIDDeviceReport_current_bit_offset_65536_170
      001645 E9               [12] 5344 	mov	a,r1
      001646 F0               [24] 5345 	movx	@dptr,a
      001647 EA               [12] 5346 	mov	a,r2
      001648 A3               [24] 5347 	inc	dptr
      001649 F0               [24] 5348 	movx	@dptr,a
                                   5349 ;	USBHost.c:875: break;
                                   5350 ;	USBHost.c:882: case REPORT_REPORT_SIZE:
      00164A 80 4D            [24] 5351 	sjmp	00174$
      00164C                       5352 00167$:
                                   5353 ;	USBHost.c:883: report_size = data;
      00164C 90r03r2A         [24] 5354 	mov	dptr,#_parseHIDDeviceReport_data_65536_170
      00164F E0               [24] 5355 	movx	a,@dptr
      001650 F8               [12] 5356 	mov	r0,a
      001651 A3               [24] 5357 	inc	dptr
      001652 E0               [24] 5358 	movx	a,@dptr
      001653 FA               [12] 5359 	mov	r2,a
      001654 A3               [24] 5360 	inc	dptr
      001655 E0               [24] 5361 	movx	a,@dptr
      001656 FE               [12] 5362 	mov	r6,a
      001657 A3               [24] 5363 	inc	dptr
      001658 E0               [24] 5364 	movx	a,@dptr
      001659 FF               [12] 5365 	mov	r7,a
      00165A 90r03r3E         [24] 5366 	mov	dptr,#_parseHIDDeviceReport_report_size_65536_170
      00165D E8               [12] 5367 	mov	a,r0
      00165E F0               [24] 5368 	movx	@dptr,a
                                   5369 ;	USBHost.c:885: break;
                                   5370 ;	USBHost.c:886: case REPORT_REPORT_ID:
      00165F 80 38            [24] 5371 	sjmp	00174$
      001661                       5372 00168$:
                                   5373 ;	USBHost.c:887: if (!map->report_id) {
      001661 8C 82            [24] 5374 	mov	dpl,r4
      001663 8B 83            [24] 5375 	mov	dph,r3
      001665 8D F0            [24] 5376 	mov	b,r5
      001667 12r00r00         [24] 5377 	lcall	__gptrget
      00166A 70 2D            [24] 5378 	jnz	00174$
                                   5379 ;	USBHost.c:888: map->report_id = data;
      00166C 90r03r2A         [24] 5380 	mov	dptr,#_parseHIDDeviceReport_data_65536_170
      00166F E0               [24] 5381 	movx	a,@dptr
      001670 F8               [12] 5382 	mov	r0,a
      001671 A3               [24] 5383 	inc	dptr
      001672 E0               [24] 5384 	movx	a,@dptr
      001673 FA               [12] 5385 	mov	r2,a
      001674 A3               [24] 5386 	inc	dptr
      001675 E0               [24] 5387 	movx	a,@dptr
      001676 FE               [12] 5388 	mov	r6,a
      001677 A3               [24] 5389 	inc	dptr
      001678 E0               [24] 5390 	movx	a,@dptr
      001679 FF               [12] 5391 	mov	r7,a
      00167A 8C 82            [24] 5392 	mov	dpl,r4
      00167C 8B 83            [24] 5393 	mov	dph,r3
      00167E 8D F0            [24] 5394 	mov	b,r5
      001680 E8               [12] 5395 	mov	a,r0
      001681 12r00r00         [24] 5396 	lcall	__gptrput
                                   5397 ;	USBHost.c:889: DEBUG_OUT("Report ID(updated): %lu\n", data);
                                   5398 ;	USBHost.c:894: case REPORT_REPORT_COUNT:
      001684 80 13            [24] 5399 	sjmp	00174$
      001686                       5400 00172$:
                                   5401 ;	USBHost.c:895: report_count = data;
      001686 90r03r2A         [24] 5402 	mov	dptr,#_parseHIDDeviceReport_data_65536_170
      001689 E0               [24] 5403 	movx	a,@dptr
      00168A F8               [12] 5404 	mov	r0,a
      00168B A3               [24] 5405 	inc	dptr
      00168C E0               [24] 5406 	movx	a,@dptr
      00168D FA               [12] 5407 	mov	r2,a
      00168E A3               [24] 5408 	inc	dptr
      00168F E0               [24] 5409 	movx	a,@dptr
      001690 FE               [12] 5410 	mov	r6,a
      001691 A3               [24] 5411 	inc	dptr
      001692 E0               [24] 5412 	movx	a,@dptr
      001693 FF               [12] 5413 	mov	r7,a
      001694 90r03r3F         [24] 5414 	mov	dptr,#_parseHIDDeviceReport_report_count_65536_170
      001697 E8               [12] 5415 	mov	a,r0
      001698 F0               [24] 5416 	movx	@dptr,a
                                   5417 ;	USBHost.c:900: }
      001699                       5418 00174$:
                                   5419 ;	USBHost.c:902: i += tag_size + 1;
      001699 90r03r29         [24] 5420 	mov	dptr,#_parseHIDDeviceReport_tag_size_65536_170
      00169C E0               [24] 5421 	movx	a,@dptr
      00169D FF               [12] 5422 	mov	r7,a
      00169E 7E 00            [12] 5423 	mov	r6,#0x00
      0016A0 0F               [12] 5424 	inc	r7
      0016A1 BF 00 01         [24] 5425 	cjne	r7,#0x00,00413$
      0016A4 0E               [12] 5426 	inc	r6
      0016A5                       5427 00413$:
      0016A5 90r03r24         [24] 5428 	mov	dptr,#_parseHIDDeviceReport_i_65536_170
      0016A8 E0               [24] 5429 	movx	a,@dptr
      0016A9 F9               [12] 5430 	mov	r1,a
      0016AA A3               [24] 5431 	inc	dptr
      0016AB E0               [24] 5432 	movx	a,@dptr
      0016AC FA               [12] 5433 	mov	r2,a
      0016AD EF               [12] 5434 	mov	a,r7
      0016AE 29               [12] 5435 	add	a,r1
      0016AF F9               [12] 5436 	mov	r1,a
      0016B0 EE               [12] 5437 	mov	a,r6
      0016B1 3A               [12] 5438 	addc	a,r2
      0016B2 FA               [12] 5439 	mov	r2,a
      0016B3 90r03r24         [24] 5440 	mov	dptr,#_parseHIDDeviceReport_i_65536_170
      0016B6 E9               [12] 5441 	mov	a,r1
      0016B7 F0               [24] 5442 	movx	@dptr,a
      0016B8 EA               [12] 5443 	mov	a,r2
      0016B9 A3               [24] 5444 	inc	dptr
      0016BA F0               [24] 5445 	movx	@dptr,a
      0016BB 02r10r31         [24] 5446 	ljmp	00175$
      0016BE                       5447 00177$:
                                   5448 ;	USBHost.c:905: if (map->report_length_bits == 0) {
      0016BE 74 0D            [12] 5449 	mov	a,#0x0d
      0016C0 2C               [12] 5450 	add	a,r4
      0016C1 FF               [12] 5451 	mov	r7,a
      0016C2 E4               [12] 5452 	clr	a
      0016C3 3B               [12] 5453 	addc	a,r3
      0016C4 FE               [12] 5454 	mov	r6,a
      0016C5 8F 82            [24] 5455 	mov	dpl,r7
      0016C7 8E 83            [24] 5456 	mov	dph,r6
      0016C9 8D F0            [24] 5457 	mov	b,r5
      0016CB 12r00r00         [24] 5458 	lcall	__gptrget
      0016CE 70 12            [24] 5459 	jnz	00186$
                                   5460 ;	USBHost.c:906: map->report_length_bits = current_bit_offset;
      0016D0 90r03r40         [24] 5461 	mov	dptr,#_parseHIDDeviceReport_current_bit_offset_65536_170
      0016D3 E0               [24] 5462 	movx	a,@dptr
      0016D4 FB               [12] 5463 	mov	r3,a
      0016D5 A3               [24] 5464 	inc	dptr
      0016D6 E0               [24] 5465 	movx	a,@dptr
      0016D7 FC               [12] 5466 	mov	r4,a
      0016D8 8F 82            [24] 5467 	mov	dpl,r7
      0016DA 8E 83            [24] 5468 	mov	dph,r6
      0016DC 8D F0            [24] 5469 	mov	b,r5
      0016DE EB               [12] 5470 	mov	a,r3
                                   5471 ;	USBHost.c:909: DEBUG_OUT("Mouse Map: ID:%u, buttons@%d:%d, x@%d:%d, y@%d:%d, wheel@%d:%d, total_bits:%d\n",
                                   5472 ;	USBHost.c:916: }
      0016DF 02r00r00         [24] 5473 	ljmp	__gptrput
      0016E2                       5474 00186$:
      0016E2 22               [24] 5475 	ret
                                   5476 ;------------------------------------------------------------
                                   5477 ;Allocation info for local variables in function 'getHIDDeviceReport'
                                   5478 ;------------------------------------------------------------
                                   5479 ;CurrentDevice             Allocated with name '_getHIDDeviceReport_CurrentDevice_65536_195'
                                   5480 ;res                       Allocated with name '_getHIDDeviceReport_res_65536_196'
                                   5481 ;len                       Allocated with name '_getHIDDeviceReport_len_65536_196'
                                   5482 ;i                         Allocated with name '_getHIDDeviceReport_i_65536_196'
                                   5483 ;reportLen                 Allocated with name '_getHIDDeviceReport_reportLen_65536_196'
                                   5484 ;------------------------------------------------------------
                                   5485 ;	USBHost.c:918: static uint8_t getHIDDeviceReport(uint8_t CurrentDevice)
                                   5486 ;	-----------------------------------------
                                   5487 ;	 function getHIDDeviceReport
                                   5488 ;	-----------------------------------------
      0016E3                       5489 _getHIDDeviceReport:
      0016E3 E5 82            [12] 5490 	mov	a,dpl
      0016E5 90r03r43         [24] 5491 	mov	dptr,#_getHIDDeviceReport_CurrentDevice_65536_195
      0016E8 F0               [24] 5492 	movx	@dptr,a
                                   5493 ;	USBHost.c:924: fillTxBuffer(SetHIDIdleRequest, sizeof(SetHIDIdleRequest));
      0016E9 90r02rFD         [24] 5494 	mov	dptr,#_fillTxBuffer_PARM_2
      0016EC 74 08            [12] 5495 	mov	a,#0x08
      0016EE F0               [24] 5496 	movx	@dptr,a
      0016EF 90r00r30         [24] 5497 	mov	dptr,#_SetHIDIdleRequest
      0016F2 12r08r90         [24] 5498 	lcall	_fillTxBuffer
                                   5499 ;	USBHost.c:925: ((PXUSB_SETUP_REQ)TxBuffer)->wIndexL = HIDdevice[CurrentDevice].interface;
      0016F5 90r03r43         [24] 5500 	mov	dptr,#_getHIDDeviceReport_CurrentDevice_65536_195
      0016F8 E0               [24] 5501 	movx	a,@dptr
      0016F9 75 F0 16         [24] 5502 	mov	b,#0x16
      0016FC A4               [48] 5503 	mul	ab
      0016FD 24r01            [12] 5504 	add	a,#_HIDdevice
      0016FF FE               [12] 5505 	mov	r6,a
      001700 74s02            [12] 5506 	mov	a,#(_HIDdevice >> 8)
      001702 35 F0            [12] 5507 	addc	a,b
      001704 FF               [12] 5508 	mov	r7,a
      001705 74 02            [12] 5509 	mov	a,#0x02
      001707 2E               [12] 5510 	add	a,r6
      001708 FE               [12] 5511 	mov	r6,a
      001709 E4               [12] 5512 	clr	a
      00170A 3F               [12] 5513 	addc	a,r7
      00170B FF               [12] 5514 	mov	r7,a
      00170C 8E 82            [24] 5515 	mov	dpl,r6
      00170E 8F 83            [24] 5516 	mov	dph,r7
      001710 E0               [24] 5517 	movx	a,@dptr
      001711 90 01 04         [24] 5518 	mov	dptr,#(_TxBuffer + 0x0004)
      001714 F0               [24] 5519 	movx	@dptr,a
                                   5520 ;	USBHost.c:926: res = hostCtrlTransfer(receiveDataBuffer, &len, 0);
      001715 90r02rF1         [24] 5521 	mov	dptr,#_hostCtrlTransfer_PARM_2
      001718 74r44            [12] 5522 	mov	a,#_getHIDDeviceReport_len_65536_196
      00171A F0               [24] 5523 	movx	@dptr,a
      00171B 74s03            [12] 5524 	mov	a,#(_getHIDDeviceReport_len_65536_196 >> 8)
      00171D A3               [24] 5525 	inc	dptr
      00171E F0               [24] 5526 	movx	@dptr,a
      00171F E4               [12] 5527 	clr	a
      001720 A3               [24] 5528 	inc	dptr
      001721 F0               [24] 5529 	movx	@dptr,a
      001722 90r02rF4         [24] 5530 	mov	dptr,#_hostCtrlTransfer_PARM_3
      001725 F0               [24] 5531 	movx	@dptr,a
      001726 A3               [24] 5532 	inc	dptr
      001727 F0               [24] 5533 	movx	@dptr,a
      001728 90r00r01         [24] 5534 	mov	dptr,#_receiveDataBuffer
      00172B C0 07            [24] 5535 	push	ar7
      00172D C0 06            [24] 5536 	push	ar6
      00172F 12r05r9D         [24] 5537 	lcall	_hostCtrlTransfer
                                   5538 ;	USBHost.c:928: fillTxBuffer(GetHIDReport, sizeof(GetHIDReport));
      001732 90r02rFD         [24] 5539 	mov	dptr,#_fillTxBuffer_PARM_2
      001735 74 08            [12] 5540 	mov	a,#0x08
      001737 F0               [24] 5541 	movx	@dptr,a
      001738 90r00r38         [24] 5542 	mov	dptr,#_GetHIDReport
      00173B 12r08r90         [24] 5543 	lcall	_fillTxBuffer
      00173E D0 06            [24] 5544 	pop	ar6
      001740 D0 07            [24] 5545 	pop	ar7
                                   5546 ;	USBHost.c:929: ((PXUSB_SETUP_REQ)TxBuffer)->wIndexL = HIDdevice[CurrentDevice].interface;
      001742 8E 82            [24] 5547 	mov	dpl,r6
      001744 8F 83            [24] 5548 	mov	dph,r7
      001746 E0               [24] 5549 	movx	a,@dptr
      001747 90 01 04         [24] 5550 	mov	dptr,#(_TxBuffer + 0x0004)
      00174A F0               [24] 5551 	movx	@dptr,a
                                   5552 ;	USBHost.c:930: ((PXUSB_SETUP_REQ)TxBuffer)->wLengthL = (uint8_t)(reportLen & 255);
      00174B 7F 00            [12] 5553 	mov	r7,#0x00
      00174D 90 01 06         [24] 5554 	mov	dptr,#(_TxBuffer + 0x0006)
      001750 EF               [12] 5555 	mov	a,r7
      001751 F0               [24] 5556 	movx	@dptr,a
                                   5557 ;	USBHost.c:931: ((PXUSB_SETUP_REQ)TxBuffer)->wLengthH = (uint8_t)(reportLen >> 8);
      001752 90 01 07         [24] 5558 	mov	dptr,#(_TxBuffer + 0x0007)
      001755 74 02            [12] 5559 	mov	a,#0x02
      001757 F0               [24] 5560 	movx	@dptr,a
                                   5561 ;	USBHost.c:932: res = hostCtrlTransfer(receiveDataBuffer, &len, RECEIVE_BUFFER_LEN);
      001758 90r02rF1         [24] 5562 	mov	dptr,#_hostCtrlTransfer_PARM_2
      00175B 74r44            [12] 5563 	mov	a,#_getHIDDeviceReport_len_65536_196
      00175D F0               [24] 5564 	movx	@dptr,a
      00175E 74s03            [12] 5565 	mov	a,#(_getHIDDeviceReport_len_65536_196 >> 8)
      001760 A3               [24] 5566 	inc	dptr
      001761 F0               [24] 5567 	movx	@dptr,a
      001762 E4               [12] 5568 	clr	a
      001763 A3               [24] 5569 	inc	dptr
      001764 F0               [24] 5570 	movx	@dptr,a
      001765 90r02rF4         [24] 5571 	mov	dptr,#_hostCtrlTransfer_PARM_3
      001768 F0               [24] 5572 	movx	@dptr,a
      001769 74 02            [12] 5573 	mov	a,#0x02
      00176B A3               [24] 5574 	inc	dptr
      00176C F0               [24] 5575 	movx	@dptr,a
      00176D 90r00r01         [24] 5576 	mov	dptr,#_receiveDataBuffer
      001770 12r05r9D         [24] 5577 	lcall	_hostCtrlTransfer
                                   5578 ;	USBHost.c:933: if (res != ERR_SUCCESS) {
      001773 E5 82            [12] 5579 	mov	a,dpl
      001775 FF               [12] 5580 	mov	r7,a
      001776 60 03            [24] 5581 	jz	00111$
                                   5582 ;	USBHost.c:934: return res;
      001778 8F 82            [24] 5583 	mov	dpl,r7
                                   5584 ;	USBHost.c:937: for (i = 0; i < len; i++) {
      00177A 22               [24] 5585 	ret
      00177B                       5586 00111$:
      00177B 7E 00            [12] 5587 	mov	r6,#0x00
      00177D 7F 00            [12] 5588 	mov	r7,#0x00
      00177F                       5589 00105$:
      00177F 90r03r44         [24] 5590 	mov	dptr,#_getHIDDeviceReport_len_65536_196
      001782 E0               [24] 5591 	movx	a,@dptr
      001783 FC               [12] 5592 	mov	r4,a
      001784 A3               [24] 5593 	inc	dptr
      001785 E0               [24] 5594 	movx	a,@dptr
      001786 FD               [12] 5595 	mov	r5,a
      001787 C3               [12] 5596 	clr	c
      001788 EE               [12] 5597 	mov	a,r6
      001789 9C               [12] 5598 	subb	a,r4
      00178A EF               [12] 5599 	mov	a,r7
      00178B 9D               [12] 5600 	subb	a,r5
      00178C 50 07            [24] 5601 	jnc	00103$
      00178E 0E               [12] 5602 	inc	r6
      00178F BE 00 ED         [24] 5603 	cjne	r6,#0x00,00105$
      001792 0F               [12] 5604 	inc	r7
      001793 80 EA            [24] 5605 	sjmp	00105$
      001795                       5606 00103$:
                                   5607 ;	USBHost.c:942: parseHIDDeviceReport(receiveDataBuffer, len, CurrentDevice);
      001795 90r03r43         [24] 5608 	mov	dptr,#_getHIDDeviceReport_CurrentDevice_65536_195
      001798 E0               [24] 5609 	movx	a,@dptr
      001799 FF               [12] 5610 	mov	r7,a
      00179A 90r03r1F         [24] 5611 	mov	dptr,#_parseHIDDeviceReport_PARM_2
      00179D EC               [12] 5612 	mov	a,r4
      00179E F0               [24] 5613 	movx	@dptr,a
      00179F ED               [12] 5614 	mov	a,r5
      0017A0 A3               [24] 5615 	inc	dptr
      0017A1 F0               [24] 5616 	movx	@dptr,a
      0017A2 90r03r21         [24] 5617 	mov	dptr,#_parseHIDDeviceReport_PARM_3
      0017A5 EF               [12] 5618 	mov	a,r7
      0017A6 F0               [24] 5619 	movx	@dptr,a
      0017A7 90r00r01         [24] 5620 	mov	dptr,#_receiveDataBuffer
      0017AA 12r0Fr74         [24] 5621 	lcall	_parseHIDDeviceReport
                                   5622 ;	USBHost.c:943: return ERR_SUCCESS;
      0017AD 75 82 00         [24] 5623 	mov	dpl,#0x00
                                   5624 ;	USBHost.c:944: }
      0017B0 22               [24] 5625 	ret
                                   5626 ;------------------------------------------------------------
                                   5627 ;Allocation info for local variables in function 'readInterface'
                                   5628 ;------------------------------------------------------------
                                   5629 ;interface                 Allocated with name '_readInterface_PARM_2'
                                   5630 ;rootHubIndex              Allocated with name '_readInterface_rootHubIndex_65536_200'
                                   5631 ;------------------------------------------------------------
                                   5632 ;	USBHost.c:946: static void readInterface(uint8_t rootHubIndex, PXUSB_ITF_DESCR interface)
                                   5633 ;	-----------------------------------------
                                   5634 ;	 function readInterface
                                   5635 ;	-----------------------------------------
      0017B1                       5636 _readInterface:
                                   5637 ;	USBHost.c:953: DEBUG_OUT("  Interface Protocol %d\n", interface->bInterfaceProtocol);
                                   5638 ;	USBHost.c:954: }
      0017B1 22               [24] 5639 	ret
                                   5640 ;------------------------------------------------------------
                                   5641 ;Allocation info for local variables in function 'readHIDInterface'
                                   5642 ;------------------------------------------------------------
                                   5643 ;descriptor                Allocated with name '_readHIDInterface_PARM_2'
                                   5644 ;interface                 Allocated with name '_readHIDInterface_interface_65536_202'
                                   5645 ;------------------------------------------------------------
                                   5646 ;	USBHost.c:956: static void readHIDInterface(PXUSB_ITF_DESCR interface, PXUSB_HID_DESCR descriptor)
                                   5647 ;	-----------------------------------------
                                   5648 ;	 function readHIDInterface
                                   5649 ;	-----------------------------------------
      0017B2                       5650 _readHIDInterface:
                                   5651 ;	USBHost.c:963: DEBUG_OUT("  TypeX 0x%02X\n", descriptor->bDescriptorTypeX);
                                   5652 ;	USBHost.c:964: }
      0017B2 22               [24] 5653 	ret
                                   5654 ;------------------------------------------------------------
                                   5655 ;Allocation info for local variables in function 'initializeRootHubConnection'
                                   5656 ;------------------------------------------------------------
                                   5657 ;sloc0                     Allocated with name '_initializeRootHubConnection_sloc0_1_0'
                                   5658 ;sloc1                     Allocated with name '_initializeRootHubConnection_sloc1_1_0'
                                   5659 ;sloc2                     Allocated with name '_initializeRootHubConnection_sloc2_1_0'
                                   5660 ;sloc3                     Allocated with name '_initializeRootHubConnection_sloc3_1_0'
                                   5661 ;sloc4                     Allocated with name '_initializeRootHubConnection_sloc4_1_0'
                                   5662 ;sloc5                     Allocated with name '_initializeRootHubConnection_sloc5_1_0'
                                   5663 ;sloc6                     Allocated with name '_initializeRootHubConnection_sloc6_1_0'
                                   5664 ;sloc7                     Allocated with name '_initializeRootHubConnection_sloc7_1_0'
                                   5665 ;sloc8                     Allocated with name '_initializeRootHubConnection_sloc8_1_0'
                                   5666 ;rootHubIndex              Allocated with name '_initializeRootHubConnection_rootHubIndex_65536_204'
                                   5667 ;retry                     Allocated with name '_initializeRootHubConnection_retry_65536_205'
                                   5668 ;i                         Allocated with name '_initializeRootHubConnection_i_65536_205'
                                   5669 ;res                       Allocated with name '_initializeRootHubConnection_res_65536_205'
                                   5670 ;cfg                       Allocated with name '_initializeRootHubConnection_cfg_65536_205'
                                   5671 ;dv_cls                    Allocated with name '_initializeRootHubConnection_dv_cls_65536_205'
                                   5672 ;addr                      Allocated with name '_initializeRootHubConnection_addr_65536_205'
                                   5673 ;HIDDevice                 Allocated with name '_initializeRootHubConnection_HIDDevice_65536_205'
                                   5674 ;i                         Allocated with name '_initializeRootHubConnection_i_458752_216'
                                   5675 ;total                     Allocated with name '_initializeRootHubConnection_total_458752_216'
                                   5676 ;temp                      Allocated with name '_initializeRootHubConnection_temp_458752_216'
                                   5677 ;currentInterface          Allocated with name '_initializeRootHubConnection_currentInterface_458752_216'
                                   5678 ;interfaces                Allocated with name '_initializeRootHubConnection_interfaces_458752_216'
                                   5679 ;desc                      Allocated with name '_initializeRootHubConnection_desc_524288_221'
                                   5680 ;d                         Allocated with name '_initializeRootHubConnection_d_655360_223'
                                   5681 ;hiddevice                 Allocated with name '_initializeRootHubConnection_hiddevice_720896_224'
                                   5682 ;------------------------------------------------------------
                                   5683 ;	USBHost.c:966: static uint8_t initializeRootHubConnection(uint8_t rootHubIndex)
                                   5684 ;	-----------------------------------------
                                   5685 ;	 function initializeRootHubConnection
                                   5686 ;	-----------------------------------------
      0017B3                       5687 _initializeRootHubConnection:
      0017B3 E5 82            [12] 5688 	mov	a,dpl
      0017B5 90r03r4A         [24] 5689 	mov	dptr,#_initializeRootHubConnection_rootHubIndex_65536_204
      0017B8 F0               [24] 5690 	movx	@dptr,a
                                   5691 ;	USBHost.c:970: __xdata uint8_t res = ERR_SUCCESS;
      0017B9 90r03r4B         [24] 5692 	mov	dptr,#_initializeRootHubConnection_res_65536_205
      0017BC E4               [12] 5693 	clr	a
      0017BD F0               [24] 5694 	movx	@dptr,a
                                   5695 ;	USBHost.c:976: for (retry = 0; retry < 10; retry++) { // todo test fewer retries
      0017BE 90r03r4A         [24] 5696 	mov	dptr,#_initializeRootHubConnection_rootHubIndex_65536_204
      0017C1 E0               [24] 5697 	movx	a,@dptr
      0017C2 FF               [12] 5698 	mov	r7,a
      0017C3 FE               [12] 5699 	mov	r6,a
      0017C4 75 F0 03         [24] 5700 	mov	b,#0x03
      0017C7 A4               [48] 5701 	mul	ab
      0017C8 FC               [12] 5702 	mov	r4,a
      0017C9 AD F0            [24] 5703 	mov	r5,b
      0017CB 8F*23            [24] 5704 	mov	_initializeRootHubConnection_sloc2_1_0,r7
      0017CD 75*22 00         [24] 5705 	mov	_initializeRootHubConnection_sloc1_1_0,#0x00
      0017D0                       5706 00145$:
                                   5707 ;	USBHost.c:977: delay(100);
      0017D0 90 00 64         [24] 5708 	mov	dptr,#0x0064
      0017D3 C0 07            [24] 5709 	push	ar7
      0017D5 C0 06            [24] 5710 	push	ar6
      0017D7 C0 05            [24] 5711 	push	ar5
      0017D9 C0 04            [24] 5712 	push	ar4
      0017DB 12r00r00         [24] 5713 	lcall	_delay
                                   5714 ;	USBHost.c:981: resetHubDevices(rootHubIndex);
      0017DE 85*23 82         [24] 5715 	mov	dpl,_initializeRootHubConnection_sloc2_1_0
      0017E1 12r0Br73         [24] 5716 	lcall	_resetHubDevices
                                   5717 ;	USBHost.c:982: resetRootHubPort(rootHubIndex);
      0017E4 85*23 82         [24] 5718 	mov	dpl,_initializeRootHubConnection_sloc2_1_0
      0017E7 12r02r98         [24] 5719 	lcall	_resetRootHubPort
      0017EA D0 04            [24] 5720 	pop	ar4
      0017EC D0 05            [24] 5721 	pop	ar5
      0017EE D0 06            [24] 5722 	pop	ar6
      0017F0 D0 07            [24] 5723 	pop	ar7
                                   5724 ;	USBHost.c:984: for (i = 0; i < 100; i++) { // todo test fewer retries
      0017F2 79 00            [12] 5725 	mov	r1,#0x00
      0017F4                       5726 00135$:
                                   5727 ;	USBHost.c:985: delay(1);
      0017F4 90 00 01         [24] 5728 	mov	dptr,#0x0001
      0017F7 C0 07            [24] 5729 	push	ar7
      0017F9 C0 06            [24] 5730 	push	ar6
      0017FB C0 05            [24] 5731 	push	ar5
      0017FD C0 04            [24] 5732 	push	ar4
      0017FF C0 01            [24] 5733 	push	ar1
      001801 12r00r00         [24] 5734 	lcall	_delay
      001804 D0 01            [24] 5735 	pop	ar1
      001806 D0 04            [24] 5736 	pop	ar4
      001808 D0 05            [24] 5737 	pop	ar5
      00180A D0 06            [24] 5738 	pop	ar6
      00180C D0 07            [24] 5739 	pop	ar7
                                   5740 ;	USBHost.c:986: if (enableRootHubPort(rootHubIndex) == ERR_SUCCESS) {
      00180E 8F 82            [24] 5741 	mov	dpl,r7
      001810 C0 07            [24] 5742 	push	ar7
      001812 C0 06            [24] 5743 	push	ar6
      001814 C0 05            [24] 5744 	push	ar5
      001816 C0 04            [24] 5745 	push	ar4
      001818 C0 01            [24] 5746 	push	ar1
      00181A 12r02rE8         [24] 5747 	lcall	_enableRootHubPort
      00181D E5 82            [12] 5748 	mov	a,dpl
      00181F D0 01            [24] 5749 	pop	ar1
      001821 D0 04            [24] 5750 	pop	ar4
      001823 D0 05            [24] 5751 	pop	ar5
      001825 D0 06            [24] 5752 	pop	ar6
      001827 D0 07            [24] 5753 	pop	ar7
      001829 60 06            [24] 5754 	jz	00103$
                                   5755 ;	USBHost.c:984: for (i = 0; i < 100; i++) { // todo test fewer retries
      00182B 09               [12] 5756 	inc	r1
      00182C B9 64 00         [24] 5757 	cjne	r1,#0x64,00245$
      00182F                       5758 00245$:
      00182F 40 C3            [24] 5759 	jc	00135$
      001831                       5760 00103$:
                                   5761 ;	USBHost.c:991: if (i == 100) {
      001831 B9 64 18         [24] 5762 	cjne	r1,#0x64,00105$
                                   5763 ;	USBHost.c:992: disableRootHubPort(rootHubIndex);
      001834 8F 82            [24] 5764 	mov	dpl,r7
      001836 C0 07            [24] 5765 	push	ar7
      001838 C0 06            [24] 5766 	push	ar6
      00183A C0 05            [24] 5767 	push	ar5
      00183C C0 04            [24] 5768 	push	ar4
      00183E 12r02r04         [24] 5769 	lcall	_disableRootHubPort
      001841 D0 04            [24] 5770 	pop	ar4
      001843 D0 05            [24] 5771 	pop	ar5
      001845 D0 06            [24] 5772 	pop	ar6
      001847 D0 07            [24] 5773 	pop	ar7
                                   5774 ;	USBHost.c:994: continue;
      001849 02r1Cr29         [24] 5775 	ljmp	00133$
      00184C                       5776 00105$:
                                   5777 ;	USBHost.c:997: selectHubPort(rootHubIndex, 0);
      00184C 90r02rE9         [24] 5778 	mov	dptr,#_selectHubPort_PARM_2
      00184F E4               [12] 5779 	clr	a
      001850 F0               [24] 5780 	movx	@dptr,a
      001851 8E 82            [24] 5781 	mov	dpl,r6
      001853 C0 07            [24] 5782 	push	ar7
      001855 C0 06            [24] 5783 	push	ar6
      001857 C0 05            [24] 5784 	push	ar5
      001859 C0 04            [24] 5785 	push	ar4
      00185B 12r03rAA         [24] 5786 	lcall	_selectHubPort
                                   5787 ;	USBHost.c:999: res = getDeviceDescriptor();
      00185E 12r08rC7         [24] 5788 	lcall	_getDeviceDescriptor
      001861 A9 82            [24] 5789 	mov	r1,dpl
      001863 D0 04            [24] 5790 	pop	ar4
      001865 D0 05            [24] 5791 	pop	ar5
      001867 D0 06            [24] 5792 	pop	ar6
      001869 D0 07            [24] 5793 	pop	ar7
      00186B 90r03r4B         [24] 5794 	mov	dptr,#_initializeRootHubConnection_res_65536_205
      00186E E9               [12] 5795 	mov	a,r1
      00186F F0               [24] 5796 	movx	@dptr,a
                                   5797 ;	USBHost.c:1001: if (res == ERR_SUCCESS) {
      001870 E9               [12] 5798 	mov	a,r1
      001871 60 03            [24] 5799 	jz	00249$
      001873 02r1Cr06         [24] 5800 	ljmp	00132$
      001876                       5801 00249$:
                                   5802 ;	USBHost.c:1005: VendorProductID[rootHubIndex].idVendorL = ((PXUSB_DEV_DESCR)receiveDataBuffer)->idVendorL;
      001876 C0 04            [24] 5803 	push	ar4
      001878 C0 05            [24] 5804 	push	ar5
      00187A EE               [12] 5805 	mov	a,r6
      00187B 75 F0 10         [24] 5806 	mov	b,#0x10
      00187E A4               [48] 5807 	mul	ab
      00187F F8               [12] 5808 	mov	r0,a
      001880 A9 F0            [24] 5809 	mov	r1,b
      001882 24rB1            [12] 5810 	add	a,#_VendorProductID
      001884 F5*20            [12] 5811 	mov	_initializeRootHubConnection_sloc0_1_0,a
      001886 E9               [12] 5812 	mov	a,r1
      001887 34s02            [12] 5813 	addc	a,#(_VendorProductID >> 8)
      001889 F5*21            [12] 5814 	mov	(_initializeRootHubConnection_sloc0_1_0 + 1),a
      00188B 90r00r09         [24] 5815 	mov	dptr,#(_receiveDataBuffer + 0x0008)
      00188E E0               [24] 5816 	movx	a,@dptr
      00188F FA               [12] 5817 	mov	r2,a
      001890 7B 00            [12] 5818 	mov	r3,#0x00
      001892 7C 00            [12] 5819 	mov	r4,#0x00
      001894 7D 00            [12] 5820 	mov	r5,#0x00
      001896 85*20 82         [24] 5821 	mov	dpl,_initializeRootHubConnection_sloc0_1_0
      001899 85*21 83         [24] 5822 	mov	dph,(_initializeRootHubConnection_sloc0_1_0 + 1)
      00189C EA               [12] 5823 	mov	a,r2
      00189D F0               [24] 5824 	movx	@dptr,a
      00189E EB               [12] 5825 	mov	a,r3
      00189F A3               [24] 5826 	inc	dptr
      0018A0 F0               [24] 5827 	movx	@dptr,a
      0018A1 EC               [12] 5828 	mov	a,r4
      0018A2 A3               [24] 5829 	inc	dptr
      0018A3 F0               [24] 5830 	movx	@dptr,a
      0018A4 ED               [12] 5831 	mov	a,r5
      0018A5 A3               [24] 5832 	inc	dptr
      0018A6 F0               [24] 5833 	movx	@dptr,a
                                   5834 ;	USBHost.c:1006: VendorProductID[rootHubIndex].idVendorH = ((PXUSB_DEV_DESCR)receiveDataBuffer)->idVendorH;
      0018A7 E8               [12] 5835 	mov	a,r0
      0018A8 24rB1            [12] 5836 	add	a,#_VendorProductID
      0018AA F8               [12] 5837 	mov	r0,a
      0018AB E9               [12] 5838 	mov	a,r1
      0018AC 34s02            [12] 5839 	addc	a,#(_VendorProductID >> 8)
      0018AE F9               [12] 5840 	mov	r1,a
      0018AF 74 04            [12] 5841 	mov	a,#0x04
      0018B1 28               [12] 5842 	add	a,r0
      0018B2 F5*20            [12] 5843 	mov	_initializeRootHubConnection_sloc0_1_0,a
      0018B4 E4               [12] 5844 	clr	a
      0018B5 39               [12] 5845 	addc	a,r1
      0018B6 F5*21            [12] 5846 	mov	(_initializeRootHubConnection_sloc0_1_0 + 1),a
      0018B8 90r00r0A         [24] 5847 	mov	dptr,#(_receiveDataBuffer + 0x0009)
      0018BB E0               [24] 5848 	movx	a,@dptr
      0018BC FA               [12] 5849 	mov	r2,a
      0018BD 7B 00            [12] 5850 	mov	r3,#0x00
      0018BF 7C 00            [12] 5851 	mov	r4,#0x00
      0018C1 7D 00            [12] 5852 	mov	r5,#0x00
      0018C3 85*20 82         [24] 5853 	mov	dpl,_initializeRootHubConnection_sloc0_1_0
      0018C6 85*21 83         [24] 5854 	mov	dph,(_initializeRootHubConnection_sloc0_1_0 + 1)
      0018C9 EA               [12] 5855 	mov	a,r2
      0018CA F0               [24] 5856 	movx	@dptr,a
      0018CB EB               [12] 5857 	mov	a,r3
      0018CC A3               [24] 5858 	inc	dptr
      0018CD F0               [24] 5859 	movx	@dptr,a
      0018CE EC               [12] 5860 	mov	a,r4
      0018CF A3               [24] 5861 	inc	dptr
      0018D0 F0               [24] 5862 	movx	@dptr,a
      0018D1 ED               [12] 5863 	mov	a,r5
      0018D2 A3               [24] 5864 	inc	dptr
      0018D3 F0               [24] 5865 	movx	@dptr,a
                                   5866 ;	USBHost.c:1007: VendorProductID[rootHubIndex].idProductL = ((PXUSB_DEV_DESCR)receiveDataBuffer)->idProductL;
      0018D4 74 08            [12] 5867 	mov	a,#0x08
      0018D6 28               [12] 5868 	add	a,r0
      0018D7 F5*20            [12] 5869 	mov	_initializeRootHubConnection_sloc0_1_0,a
      0018D9 E4               [12] 5870 	clr	a
      0018DA 39               [12] 5871 	addc	a,r1
      0018DB F5*21            [12] 5872 	mov	(_initializeRootHubConnection_sloc0_1_0 + 1),a
      0018DD 90r00r0B         [24] 5873 	mov	dptr,#(_receiveDataBuffer + 0x000a)
      0018E0 E0               [24] 5874 	movx	a,@dptr
      0018E1 FA               [12] 5875 	mov	r2,a
      0018E2 7B 00            [12] 5876 	mov	r3,#0x00
      0018E4 7C 00            [12] 5877 	mov	r4,#0x00
      0018E6 7D 00            [12] 5878 	mov	r5,#0x00
      0018E8 85*20 82         [24] 5879 	mov	dpl,_initializeRootHubConnection_sloc0_1_0
      0018EB 85*21 83         [24] 5880 	mov	dph,(_initializeRootHubConnection_sloc0_1_0 + 1)
      0018EE EA               [12] 5881 	mov	a,r2
      0018EF F0               [24] 5882 	movx	@dptr,a
      0018F0 EB               [12] 5883 	mov	a,r3
      0018F1 A3               [24] 5884 	inc	dptr
      0018F2 F0               [24] 5885 	movx	@dptr,a
      0018F3 EC               [12] 5886 	mov	a,r4
      0018F4 A3               [24] 5887 	inc	dptr
      0018F5 F0               [24] 5888 	movx	@dptr,a
      0018F6 ED               [12] 5889 	mov	a,r5
      0018F7 A3               [24] 5890 	inc	dptr
      0018F8 F0               [24] 5891 	movx	@dptr,a
                                   5892 ;	USBHost.c:1008: VendorProductID[rootHubIndex].idProductH = ((PXUSB_DEV_DESCR)receiveDataBuffer)->idProductH;
      0018F9 74 0C            [12] 5893 	mov	a,#0x0c
      0018FB 28               [12] 5894 	add	a,r0
      0018FC F8               [12] 5895 	mov	r0,a
      0018FD E4               [12] 5896 	clr	a
      0018FE 39               [12] 5897 	addc	a,r1
      0018FF F9               [12] 5898 	mov	r1,a
      001900 90r00r0C         [24] 5899 	mov	dptr,#(_receiveDataBuffer + 0x000b)
      001903 E0               [24] 5900 	movx	a,@dptr
      001904 FD               [12] 5901 	mov	r5,a
      001905 7C 00            [12] 5902 	mov	r4,#0x00
      001907 7B 00            [12] 5903 	mov	r3,#0x00
      001909 7A 00            [12] 5904 	mov	r2,#0x00
      00190B 88 82            [24] 5905 	mov	dpl,r0
      00190D 89 83            [24] 5906 	mov	dph,r1
      00190F ED               [12] 5907 	mov	a,r5
      001910 F0               [24] 5908 	movx	@dptr,a
      001911 EC               [12] 5909 	mov	a,r4
      001912 A3               [24] 5910 	inc	dptr
      001913 F0               [24] 5911 	movx	@dptr,a
      001914 EB               [12] 5912 	mov	a,r3
      001915 A3               [24] 5913 	inc	dptr
      001916 F0               [24] 5914 	movx	@dptr,a
      001917 EA               [12] 5915 	mov	a,r2
      001918 A3               [24] 5916 	inc	dptr
      001919 F0               [24] 5917 	movx	@dptr,a
                                   5918 ;	USBHost.c:1009: DEBUG_OUT_USB_BUFFER(receiveDataBuffer);
      00191A 90r00r01         [24] 5919 	mov	dptr,#_receiveDataBuffer
      00191D C0 07            [24] 5920 	push	ar7
      00191F C0 06            [24] 5921 	push	ar6
      001921 C0 05            [24] 5922 	push	ar5
      001923 C0 04            [24] 5923 	push	ar4
      001925 12r0Ar98         [24] 5924 	lcall	_DEBUG_OUT_USB_BUFFER
      001928 D0 04            [24] 5925 	pop	ar4
      00192A D0 05            [24] 5926 	pop	ar5
      00192C D0 06            [24] 5927 	pop	ar6
                                   5928 ;	USBHost.c:1011: addr = rootHubIndex + ((PUSB_SETUP_REQ)SetUSBAddressRequest)->wValueL; // todo wValue always 2.. does another id work?
      00192E 90r00r1A         [24] 5929 	mov	dptr,#(_SetUSBAddressRequest + 0x0002)
      001931 E4               [12] 5930 	clr	a
      001932 93               [24] 5931 	movc	a,@a+dptr
      001933 2E               [12] 5932 	add	a,r6
      001934 F5*20            [12] 5933 	mov	_initializeRootHubConnection_sloc0_1_0,a
                                   5934 ;	USBHost.c:1012: res = setUsbAddress(addr);
      001936 85*20 82         [24] 5935 	mov	dpl,_initializeRootHubConnection_sloc0_1_0
      001939 C0 06            [24] 5936 	push	ar6
      00193B C0 04            [24] 5937 	push	ar4
      00193D 12r09r20         [24] 5938 	lcall	_setUsbAddress
      001940 AD 82            [24] 5939 	mov	r5,dpl
      001942 D0 04            [24] 5940 	pop	ar4
      001944 D0 06            [24] 5941 	pop	ar6
      001946 D0 07            [24] 5942 	pop	ar7
      001948 90r03r4B         [24] 5943 	mov	dptr,#_initializeRootHubConnection_res_65536_205
      00194B ED               [12] 5944 	mov	a,r5
      00194C F0               [24] 5945 	movx	@dptr,a
                                   5946 ;	USBHost.c:1013: if (res == ERR_SUCCESS) {
      00194D ED               [12] 5947 	mov	a,r5
      00194E D0 05            [24] 5948 	pop	ar5
      001950 D0 04            [24] 5949 	pop	ar4
      001952 60 03            [24] 5950 	jz	00250$
      001954 02r1Cr06         [24] 5951 	ljmp	00132$
      001957                       5952 00250$:
                                   5953 ;	USBHost.c:1014: rootHubDevice[rootHubIndex].address = addr;
      001957 EE               [12] 5954 	mov	a,r6
      001958 75 F0 03         [24] 5955 	mov	b,#0x03
      00195B A4               [48] 5956 	mul	ab
      00195C 24rD1            [12] 5957 	add	a,#_rootHubDevice
      00195E FA               [12] 5958 	mov	r2,a
      00195F 74s02            [12] 5959 	mov	a,#(_rootHubDevice >> 8)
      001961 35 F0            [12] 5960 	addc	a,b
      001963 FB               [12] 5961 	mov	r3,a
      001964 8A 82            [24] 5962 	mov	dpl,r2
      001966 8B 83            [24] 5963 	mov	dph,r3
      001968 A3               [24] 5964 	inc	dptr
      001969 E5*20            [12] 5965 	mov	a,_initializeRootHubConnection_sloc0_1_0
      00196B F0               [24] 5966 	movx	@dptr,a
                                   5967 ;	USBHost.c:1015: res = getDeviceString();
      00196C C0 07            [24] 5968 	push	ar7
      00196E C0 06            [24] 5969 	push	ar6
      001970 C0 05            [24] 5970 	push	ar5
      001972 C0 04            [24] 5971 	push	ar4
      001974 12r09r9D         [24] 5972 	lcall	_getDeviceString
                                   5973 ;	USBHost.c:1017: DEBUG_OUT_USB_BUFFER(receiveDataBuffer);
      001977 90r00r01         [24] 5974 	mov	dptr,#_receiveDataBuffer
      00197A 12r0Ar98         [24] 5975 	lcall	_DEBUG_OUT_USB_BUFFER
      00197D D0 04            [24] 5976 	pop	ar4
      00197F D0 05            [24] 5977 	pop	ar5
      001981 D0 06            [24] 5978 	pop	ar6
                                   5979 ;	USBHost.c:1018: if (convertStringDescriptor(receiveDataBuffer, receiveDataBuffer, RECEIVE_BUFFER_LEN, rootHubIndex)) {
      001983 90r03r04         [24] 5980 	mov	dptr,#_convertStringDescriptor_PARM_2
      001986 74r01            [12] 5981 	mov	a,#_receiveDataBuffer
      001988 F0               [24] 5982 	movx	@dptr,a
      001989 74s00            [12] 5983 	mov	a,#(_receiveDataBuffer >> 8)
      00198B A3               [24] 5984 	inc	dptr
      00198C F0               [24] 5985 	movx	@dptr,a
      00198D 90r03r06         [24] 5986 	mov	dptr,#_convertStringDescriptor_PARM_3
      001990 E4               [12] 5987 	clr	a
      001991 F0               [24] 5988 	movx	@dptr,a
      001992 74 02            [12] 5989 	mov	a,#0x02
      001994 A3               [24] 5990 	inc	dptr
      001995 F0               [24] 5991 	movx	@dptr,a
      001996 90r03r08         [24] 5992 	mov	dptr,#_convertStringDescriptor_PARM_4
      001999 EE               [12] 5993 	mov	a,r6
      00199A F0               [24] 5994 	movx	@dptr,a
      00199B 90r00r01         [24] 5995 	mov	dptr,#_receiveDataBuffer
      00199E C0 06            [24] 5996 	push	ar6
      0019A0 C0 05            [24] 5997 	push	ar5
      0019A2 C0 04            [24] 5998 	push	ar4
      0019A4 12r09rC0         [24] 5999 	lcall	_convertStringDescriptor
                                   6000 ;	USBHost.c:1021: res = getConfigurationDescriptor();
      0019A7 12r0ArCE         [24] 6001 	lcall	_getConfigurationDescriptor
      0019AA AB 82            [24] 6002 	mov	r3,dpl
      0019AC D0 04            [24] 6003 	pop	ar4
      0019AE D0 05            [24] 6004 	pop	ar5
      0019B0 D0 06            [24] 6005 	pop	ar6
      0019B2 D0 07            [24] 6006 	pop	ar7
      0019B4 90r03r4B         [24] 6007 	mov	dptr,#_initializeRootHubConnection_res_65536_205
      0019B7 EB               [12] 6008 	mov	a,r3
      0019B8 F0               [24] 6009 	movx	@dptr,a
                                   6010 ;	USBHost.c:1022: if (res == ERR_SUCCESS) {
      0019B9 EB               [12] 6011 	mov	a,r3
      0019BA 60 03            [24] 6012 	jz	00251$
      0019BC 02r1Cr06         [24] 6013 	ljmp	00132$
      0019BF                       6014 00251$:
                                   6015 ;	USBHost.c:1025: PXUSB_ITF_DESCR currentInterface = 0;
      0019BF 90r05r4E         [24] 6016 	mov	dptr,#_initializeRootHubConnection_currentInterface_458752_216
      0019C2 E4               [12] 6017 	clr	a
      0019C3 F0               [24] 6018 	movx	@dptr,a
      0019C4 A3               [24] 6019 	inc	dptr
      0019C5 F0               [24] 6020 	movx	@dptr,a
                                   6021 ;	USBHost.c:1028: for (i = 0; i < receiveDataBuffer[2] + (receiveDataBuffer[3] << 8); i++) {
      0019C6 7A 00            [12] 6022 	mov	r2,#0x00
      0019C8 7B 00            [12] 6023 	mov	r3,#0x00
      0019CA                       6024 00138$:
      0019CA 90r00r03         [24] 6025 	mov	dptr,#(_receiveDataBuffer + 0x0002)
      0019CD E0               [24] 6026 	movx	a,@dptr
      0019CE F9               [12] 6027 	mov	r1,a
      0019CF 89*20            [24] 6028 	mov	_initializeRootHubConnection_sloc0_1_0,r1
      0019D1 75*21 00         [24] 6029 	mov	(_initializeRootHubConnection_sloc0_1_0 + 1),#0x00
      0019D4 90r00r04         [24] 6030 	mov	dptr,#(_receiveDataBuffer + 0x0003)
      0019D7 E0               [24] 6031 	movx	a,@dptr
      0019D8 F9               [12] 6032 	mov	r1,a
      0019D9 E4               [12] 6033 	clr	a
      0019DA 25*20            [12] 6034 	add	a,_initializeRootHubConnection_sloc0_1_0
      0019DC F5*20            [12] 6035 	mov	_initializeRootHubConnection_sloc0_1_0,a
      0019DE E9               [12] 6036 	mov	a,r1
      0019DF 35*21            [12] 6037 	addc	a,(_initializeRootHubConnection_sloc0_1_0 + 1)
      0019E1 F5*21            [12] 6038 	mov	(_initializeRootHubConnection_sloc0_1_0 + 1),a
      0019E3 8A 00            [24] 6039 	mov	ar0,r2
      0019E5 8B 01            [24] 6040 	mov	ar1,r3
      0019E7 C0 02            [24] 6041 	push	ar2
      0019E9 C0 03            [24] 6042 	push	ar3
      0019EB AA*20            [24] 6043 	mov	r2,_initializeRootHubConnection_sloc0_1_0
      0019ED AB*21            [24] 6044 	mov	r3,(_initializeRootHubConnection_sloc0_1_0 + 1)
      0019EF C3               [12] 6045 	clr	c
      0019F0 E8               [12] 6046 	mov	a,r0
      0019F1 9A               [12] 6047 	subb	a,r2
      0019F2 E9               [12] 6048 	mov	a,r1
      0019F3 9B               [12] 6049 	subb	a,r3
      0019F4 D0 03            [24] 6050 	pop	ar3
      0019F6 D0 02            [24] 6051 	pop	ar2
      0019F8 50 07            [24] 6052 	jnc	00108$
      0019FA 0A               [12] 6053 	inc	r2
      0019FB BA 00 CC         [24] 6054 	cjne	r2,#0x00,00138$
      0019FE 0B               [12] 6055 	inc	r3
      0019FF 80 C9            [24] 6056 	sjmp	00138$
      001A01                       6057 00108$:
                                   6058 ;	USBHost.c:1033: cfg = ((PXUSB_CFG_DESCR)receiveDataBuffer)->bConfigurationValue;
      001A01 90r00r06         [24] 6059 	mov	dptr,#(_receiveDataBuffer + 0x0005)
      001A04 E0               [24] 6060 	movx	a,@dptr
                                   6061 ;	USBHost.c:1039: res = setUsbConfig(cfg);
      001A05 F5 82            [12] 6062 	mov	dpl,a
      001A07 12r09r6E         [24] 6063 	lcall	_setUsbConfig
                                   6064 ;	USBHost.c:1041: total = ((PXUSB_CFG_DESCR)receiveDataBuffer)->wTotalLengthL + (((PXUSB_CFG_DESCR)receiveDataBuffer)->wTotalLengthH << 8);
      001A0A 90r00r03         [24] 6065 	mov	dptr,#(_receiveDataBuffer + 0x0002)
      001A0D E0               [24] 6066 	movx	a,@dptr
      001A0E FB               [12] 6067 	mov	r3,a
      001A0F 7A 00            [12] 6068 	mov	r2,#0x00
      001A11 90r00r04         [24] 6069 	mov	dptr,#(_receiveDataBuffer + 0x0003)
      001A14 E0               [24] 6070 	movx	a,@dptr
      001A15 F9               [12] 6071 	mov	r1,a
      001A16 E4               [12] 6072 	clr	a
      001A17 2B               [12] 6073 	add	a,r3
      001A18 FB               [12] 6074 	mov	r3,a
      001A19 E9               [12] 6075 	mov	a,r1
      001A1A 3A               [12] 6076 	addc	a,r2
      001A1B FA               [12] 6077 	mov	r2,a
      001A1C 8B*28            [24] 6078 	mov	_initializeRootHubConnection_sloc6_1_0,r3
      001A1E 8A*29            [24] 6079 	mov	(_initializeRootHubConnection_sloc6_1_0 + 1),r2
                                   6080 ;	USBHost.c:1042: for (i = 0; i < total; i++) {
      001A20 78 00            [12] 6081 	mov	r0,#0x00
      001A22 79 00            [12] 6082 	mov	r1,#0x00
      001A24                       6083 00141$:
      001A24 C3               [12] 6084 	clr	c
      001A25 E8               [12] 6085 	mov	a,r0
      001A26 95*28            [12] 6086 	subb	a,_initializeRootHubConnection_sloc6_1_0
      001A28 E9               [12] 6087 	mov	a,r1
      001A29 95*29            [12] 6088 	subb	a,(_initializeRootHubConnection_sloc6_1_0 + 1)
      001A2B 50 24            [24] 6089 	jnc	00109$
                                   6090 ;	USBHost.c:1043: temp[i] = receiveDataBuffer[i];
      001A2D E8               [12] 6091 	mov	a,r0
      001A2E 24r4E            [12] 6092 	add	a,#_initializeRootHubConnection_temp_458752_216
      001A30 F5*20            [12] 6093 	mov	_initializeRootHubConnection_sloc0_1_0,a
      001A32 E9               [12] 6094 	mov	a,r1
      001A33 34s03            [12] 6095 	addc	a,#(_initializeRootHubConnection_temp_458752_216 >> 8)
      001A35 F5*21            [12] 6096 	mov	(_initializeRootHubConnection_sloc0_1_0 + 1),a
      001A37 E8               [12] 6097 	mov	a,r0
      001A38 24r01            [12] 6098 	add	a,#_receiveDataBuffer
      001A3A F5 82            [12] 6099 	mov	dpl,a
      001A3C E9               [12] 6100 	mov	a,r1
      001A3D 34s00            [12] 6101 	addc	a,#(_receiveDataBuffer >> 8)
      001A3F F5 83            [12] 6102 	mov	dph,a
      001A41 E0               [24] 6103 	movx	a,@dptr
      001A42 FB               [12] 6104 	mov	r3,a
      001A43 85*20 82         [24] 6105 	mov	dpl,_initializeRootHubConnection_sloc0_1_0
      001A46 85*21 83         [24] 6106 	mov	dph,(_initializeRootHubConnection_sloc0_1_0 + 1)
      001A49 F0               [24] 6107 	movx	@dptr,a
                                   6108 ;	USBHost.c:1042: for (i = 0; i < total; i++) {
      001A4A 08               [12] 6109 	inc	r0
      001A4B B8 00 D6         [24] 6110 	cjne	r0,#0x00,00141$
      001A4E 09               [12] 6111 	inc	r1
      001A4F 80 D3            [24] 6112 	sjmp	00141$
      001A51                       6113 00109$:
                                   6114 ;	USBHost.c:1046: i = ((PXUSB_CFG_DESCR)receiveDataBuffer)->bLength;
      001A51 90r00r01         [24] 6115 	mov	dptr,#_receiveDataBuffer
      001A54 E0               [24] 6116 	movx	a,@dptr
      001A55 F9               [12] 6117 	mov	r1,a
      001A56 90r03r4C         [24] 6118 	mov	dptr,#_initializeRootHubConnection_i_458752_216
      001A59 F0               [24] 6119 	movx	@dptr,a
      001A5A E4               [12] 6120 	clr	a
      001A5B A3               [24] 6121 	inc	dptr
      001A5C F0               [24] 6122 	movx	@dptr,a
                                   6123 ;	USBHost.c:1047: while (i < total) {
      001A5D 90r03r4A         [24] 6124 	mov	dptr,#_initializeRootHubConnection_rootHubIndex_65536_204
      001A60 E0               [24] 6125 	movx	a,@dptr
      001A61 F5*2A            [12] 6126 	mov	_initializeRootHubConnection_sloc7_1_0,a
      001A63 85*2A*25         [24] 6127 	mov	_initializeRootHubConnection_sloc4_1_0,_initializeRootHubConnection_sloc7_1_0
      001A66                       6128 00124$:
      001A66 90r03r4C         [24] 6129 	mov	dptr,#_initializeRootHubConnection_i_458752_216
      001A69 E0               [24] 6130 	movx	a,@dptr
      001A6A F5*20            [12] 6131 	mov	_initializeRootHubConnection_sloc0_1_0,a
      001A6C A3               [24] 6132 	inc	dptr
      001A6D E0               [24] 6133 	movx	a,@dptr
      001A6E F5*21            [12] 6134 	mov	(_initializeRootHubConnection_sloc0_1_0 + 1),a
      001A70 C3               [12] 6135 	clr	c
      001A71 E5*20            [12] 6136 	mov	a,_initializeRootHubConnection_sloc0_1_0
      001A73 95*28            [12] 6137 	subb	a,_initializeRootHubConnection_sloc6_1_0
      001A75 E5*21            [12] 6138 	mov	a,(_initializeRootHubConnection_sloc0_1_0 + 1)
      001A77 95*29            [12] 6139 	subb	a,(_initializeRootHubConnection_sloc6_1_0 + 1)
      001A79 40 03            [24] 6140 	jc	00256$
      001A7B 02r1Cr02         [24] 6141 	ljmp	00126$
      001A7E                       6142 00256$:
                                   6143 ;	USBHost.c:1048: uint8_t __xdata *desc = &(temp[i]);
      001A7E E5*20            [12] 6144 	mov	a,_initializeRootHubConnection_sloc0_1_0
      001A80 24r4E            [12] 6145 	add	a,#_initializeRootHubConnection_temp_458752_216
      001A82 F5*20            [12] 6146 	mov	_initializeRootHubConnection_sloc0_1_0,a
      001A84 E5*21            [12] 6147 	mov	a,(_initializeRootHubConnection_sloc0_1_0 + 1)
      001A86 34s03            [12] 6148 	addc	a,#(_initializeRootHubConnection_temp_458752_216 >> 8)
      001A88 F5*21            [12] 6149 	mov	(_initializeRootHubConnection_sloc0_1_0 + 1),a
      001A8A 90r05r50         [24] 6150 	mov	dptr,#_initializeRootHubConnection_desc_524288_221
      001A8D E5*20            [12] 6151 	mov	a,_initializeRootHubConnection_sloc0_1_0
      001A8F F0               [24] 6152 	movx	@dptr,a
      001A90 E5*21            [12] 6153 	mov	a,(_initializeRootHubConnection_sloc0_1_0 + 1)
      001A92 A3               [24] 6154 	inc	dptr
      001A93 F0               [24] 6155 	movx	@dptr,a
                                   6156 ;	USBHost.c:1049: switch (desc[1]) {
      001A94 85*20 82         [24] 6157 	mov	dpl,_initializeRootHubConnection_sloc0_1_0
      001A97 85*21 83         [24] 6158 	mov	dph,(_initializeRootHubConnection_sloc0_1_0 + 1)
      001A9A A3               [24] 6159 	inc	dptr
      001A9B E0               [24] 6160 	movx	a,@dptr
      001A9C F5*24            [12] 6161 	mov	_initializeRootHubConnection_sloc3_1_0,a
      001A9E 74 04            [12] 6162 	mov	a,#0x04
      001AA0 B5*24 02         [24] 6163 	cjne	a,_initializeRootHubConnection_sloc3_1_0,00257$
      001AA3 80 22            [24] 6164 	sjmp	00110$
      001AA5                       6165 00257$:
      001AA5 74 05            [12] 6166 	mov	a,#0x05
      001AA7 B5*24 02         [24] 6167 	cjne	a,_initializeRootHubConnection_sloc3_1_0,00258$
      001AAA 80 38            [24] 6168 	sjmp	00111$
      001AAC                       6169 00258$:
      001AAC 74 21            [12] 6170 	mov	a,#0x21
      001AAE B5*24 03         [24] 6171 	cjne	a,_initializeRootHubConnection_sloc3_1_0,00259$
      001AB1 02r1Br9D         [24] 6172 	ljmp	00119$
      001AB4                       6173 00259$:
      001AB4 74 24            [12] 6174 	mov	a,#0x24
      001AB6 B5*24 03         [24] 6175 	cjne	a,_initializeRootHubConnection_sloc3_1_0,00260$
      001AB9 02r1BrBA         [24] 6176 	ljmp	00120$
      001ABC                       6177 00260$:
      001ABC 74 25            [12] 6178 	mov	a,#0x25
      001ABE B5*24 03         [24] 6179 	cjne	a,_initializeRootHubConnection_sloc3_1_0,00261$
      001AC1 02r1BrC5         [24] 6180 	ljmp	00121$
      001AC4                       6181 00261$:
      001AC4 02r1BrD0         [24] 6182 	ljmp	00122$
                                   6183 ;	USBHost.c:1050: case USB_DESCR_TYP_INTERF:
      001AC7                       6184 00110$:
                                   6185 ;	USBHost.c:1052: currentInterface = ((PXUSB_ITF_DESCR)desc);
      001AC7 A8*20            [24] 6186 	mov	r0,_initializeRootHubConnection_sloc0_1_0
      001AC9 A9*21            [24] 6187 	mov	r1,(_initializeRootHubConnection_sloc0_1_0 + 1)
      001ACB 90r05r4E         [24] 6188 	mov	dptr,#_initializeRootHubConnection_currentInterface_458752_216
      001ACE E8               [12] 6189 	mov	a,r0
      001ACF F0               [24] 6190 	movx	@dptr,a
      001AD0 E9               [12] 6191 	mov	a,r1
      001AD1 A3               [24] 6192 	inc	dptr
      001AD2 F0               [24] 6193 	movx	@dptr,a
                                   6194 ;	USBHost.c:1053: readInterface(rootHubIndex, currentInterface);
      001AD3 90r03r46         [24] 6195 	mov	dptr,#_readInterface_PARM_2
      001AD6 E8               [12] 6196 	mov	a,r0
      001AD7 F0               [24] 6197 	movx	@dptr,a
      001AD8 E9               [12] 6198 	mov	a,r1
      001AD9 A3               [24] 6199 	inc	dptr
      001ADA F0               [24] 6200 	movx	@dptr,a
      001ADB 85*25 82         [24] 6201 	mov	dpl,_initializeRootHubConnection_sloc4_1_0
      001ADE 12r17rB1         [24] 6202 	lcall	_readInterface
                                   6203 ;	USBHost.c:1054: break;
      001AE1 02r1BrD9         [24] 6204 	ljmp	00123$
                                   6205 ;	USBHost.c:1055: case USB_DESCR_TYP_ENDP:
      001AE4                       6206 00111$:
                                   6207 ;	USBHost.c:1057: DEBUG_OUT_USB_BUFFER(desc);
      001AE4 85*20 82         [24] 6208 	mov	dpl,_initializeRootHubConnection_sloc0_1_0
      001AE7 85*21 83         [24] 6209 	mov	dph,(_initializeRootHubConnection_sloc0_1_0 + 1)
      001AEA 12r0Ar98         [24] 6210 	lcall	_DEBUG_OUT_USB_BUFFER
                                   6211 ;	USBHost.c:1058: if (currentInterface->bInterfaceClass == USB_DEV_CLASS_HID) {
      001AED 90r05r4E         [24] 6212 	mov	dptr,#_initializeRootHubConnection_currentInterface_458752_216
      001AF0 E0               [24] 6213 	movx	a,@dptr
      001AF1 F8               [12] 6214 	mov	r0,a
      001AF2 A3               [24] 6215 	inc	dptr
      001AF3 E0               [24] 6216 	movx	a,@dptr
      001AF4 F9               [12] 6217 	mov	r1,a
      001AF5 88 82            [24] 6218 	mov	dpl,r0
      001AF7 89 83            [24] 6219 	mov	dph,r1
      001AF9 A3               [24] 6220 	inc	dptr
      001AFA A3               [24] 6221 	inc	dptr
      001AFB A3               [24] 6222 	inc	dptr
      001AFC A3               [24] 6223 	inc	dptr
      001AFD A3               [24] 6224 	inc	dptr
      001AFE E0               [24] 6225 	movx	a,@dptr
      001AFF F9               [12] 6226 	mov	r1,a
      001B00 B9 03 02         [24] 6227 	cjne	r1,#0x03,00262$
      001B03 80 03            [24] 6228 	sjmp	00263$
      001B05                       6229 00262$:
      001B05 02r1BrD9         [24] 6230 	ljmp	00123$
      001B08                       6231 00263$:
                                   6232 ;	USBHost.c:1059: PXUSB_ENDP_DESCR d = (PXUSB_ENDP_DESCR)desc;
      001B08 A8*20            [24] 6233 	mov	r0,_initializeRootHubConnection_sloc0_1_0
      001B0A A9*21            [24] 6234 	mov	r1,(_initializeRootHubConnection_sloc0_1_0 + 1)
                                   6235 ;	USBHost.c:1060: if (d->bEndpointAddress & 0x80) {
      001B0C 74 02            [12] 6236 	mov	a,#0x02
      001B0E 28               [12] 6237 	add	a,r0
      001B0F F5*26            [12] 6238 	mov	_initializeRootHubConnection_sloc5_1_0,a
      001B11 E4               [12] 6239 	clr	a
      001B12 39               [12] 6240 	addc	a,r1
      001B13 F5*27            [12] 6241 	mov	(_initializeRootHubConnection_sloc5_1_0 + 1),a
      001B15 85*26 82         [24] 6242 	mov	dpl,_initializeRootHubConnection_sloc5_1_0
      001B18 85*27 83         [24] 6243 	mov	dph,(_initializeRootHubConnection_sloc5_1_0 + 1)
      001B1B E0               [24] 6244 	movx	a,@dptr
      001B1C F9               [12] 6245 	mov	r1,a
      001B1D 20 E7 03         [24] 6246 	jb	acc.7,00264$
      001B20 02r1BrD9         [24] 6247 	ljmp	00123$
      001B23                       6248 00264$:
                                   6249 ;	USBHost.c:1062: for (hiddevice = 0; hiddevice < MAX_HID_DEVICES; hiddevice++) {
      001B23 78 00            [12] 6250 	mov	r0,#0x00
      001B25                       6251 00143$:
                                   6252 ;	USBHost.c:1063: if (HIDdevice[hiddevice].connected == 0) {
      001B25 E8               [12] 6253 	mov	a,r0
      001B26 75 F0 16         [24] 6254 	mov	b,#0x16
      001B29 A4               [48] 6255 	mul	ab
      001B2A 24r01            [12] 6256 	add	a,#_HIDdevice
      001B2C F9               [12] 6257 	mov	r1,a
      001B2D 74s02            [12] 6258 	mov	a,#(_HIDdevice >> 8)
      001B2F 35 F0            [12] 6259 	addc	a,b
      001B31 FB               [12] 6260 	mov	r3,a
      001B32 89 82            [24] 6261 	mov	dpl,r1
      001B34 8B 83            [24] 6262 	mov	dph,r3
      001B36 E0               [24] 6263 	movx	a,@dptr
      001B37 60 06            [24] 6264 	jz	00114$
                                   6265 ;	USBHost.c:1062: for (hiddevice = 0; hiddevice < MAX_HID_DEVICES; hiddevice++) {
      001B39 08               [12] 6266 	inc	r0
      001B3A B8 08 00         [24] 6267 	cjne	r0,#0x08,00266$
      001B3D                       6268 00266$:
      001B3D 40 E6            [24] 6269 	jc	00143$
      001B3F                       6270 00114$:
                                   6271 ;	USBHost.c:1068: HIDdevice[hiddevice].endPoint = d->bEndpointAddress;
      001B3F E8               [12] 6272 	mov	a,r0
      001B40 75 F0 16         [24] 6273 	mov	b,#0x16
      001B43 A4               [48] 6274 	mul	ab
      001B44 24r01            [12] 6275 	add	a,#_HIDdevice
      001B46 F5*2B            [12] 6276 	mov	_initializeRootHubConnection_sloc8_1_0,a
      001B48 74s02            [12] 6277 	mov	a,#(_HIDdevice >> 8)
      001B4A 35 F0            [12] 6278 	addc	a,b
      001B4C F5*2C            [12] 6279 	mov	(_initializeRootHubConnection_sloc8_1_0 + 1),a
      001B4E 74 03            [12] 6280 	mov	a,#0x03
      001B50 25*2B            [12] 6281 	add	a,_initializeRootHubConnection_sloc8_1_0
      001B52 F9               [12] 6282 	mov	r1,a
      001B53 E4               [12] 6283 	clr	a
      001B54 35*2C            [12] 6284 	addc	a,(_initializeRootHubConnection_sloc8_1_0 + 1)
      001B56 FB               [12] 6285 	mov	r3,a
      001B57 85*26 82         [24] 6286 	mov	dpl,_initializeRootHubConnection_sloc5_1_0
      001B5A 85*27 83         [24] 6287 	mov	dph,(_initializeRootHubConnection_sloc5_1_0 + 1)
      001B5D E0               [24] 6288 	movx	a,@dptr
      001B5E 89 82            [24] 6289 	mov	dpl,r1
      001B60 8B 83            [24] 6290 	mov	dph,r3
      001B62 F0               [24] 6291 	movx	@dptr,a
                                   6292 ;	USBHost.c:1069: HIDdevice[hiddevice].connected = 1;
      001B63 85*2B 82         [24] 6293 	mov	dpl,_initializeRootHubConnection_sloc8_1_0
      001B66 85*2C 83         [24] 6294 	mov	dph,(_initializeRootHubConnection_sloc8_1_0 + 1)
      001B69 74 01            [12] 6295 	mov	a,#0x01
      001B6B F0               [24] 6296 	movx	@dptr,a
                                   6297 ;	USBHost.c:1070: HIDdevice[hiddevice].interface = currentInterface->bInterfaceNumber;
      001B6C 04               [12] 6298 	inc	a
      001B6D 25*2B            [12] 6299 	add	a,_initializeRootHubConnection_sloc8_1_0
      001B6F F5*26            [12] 6300 	mov	_initializeRootHubConnection_sloc5_1_0,a
      001B71 E4               [12] 6301 	clr	a
      001B72 35*2C            [12] 6302 	addc	a,(_initializeRootHubConnection_sloc8_1_0 + 1)
      001B74 F5*27            [12] 6303 	mov	(_initializeRootHubConnection_sloc5_1_0 + 1),a
      001B76 90r05r4E         [24] 6304 	mov	dptr,#_initializeRootHubConnection_currentInterface_458752_216
      001B79 E0               [24] 6305 	movx	a,@dptr
      001B7A F9               [12] 6306 	mov	r1,a
      001B7B A3               [24] 6307 	inc	dptr
      001B7C E0               [24] 6308 	movx	a,@dptr
      001B7D FB               [12] 6309 	mov	r3,a
      001B7E 89 82            [24] 6310 	mov	dpl,r1
      001B80 8B 83            [24] 6311 	mov	dph,r3
      001B82 A3               [24] 6312 	inc	dptr
      001B83 A3               [24] 6313 	inc	dptr
      001B84 E0               [24] 6314 	movx	a,@dptr
      001B85 85*26 82         [24] 6315 	mov	dpl,_initializeRootHubConnection_sloc5_1_0
      001B88 85*27 83         [24] 6316 	mov	dph,(_initializeRootHubConnection_sloc5_1_0 + 1)
      001B8B F0               [24] 6317 	movx	@dptr,a
                                   6318 ;	USBHost.c:1071: HIDdevice[hiddevice].rootHub = rootHubIndex;
      001B8C 85*2B 82         [24] 6319 	mov	dpl,_initializeRootHubConnection_sloc8_1_0
      001B8F 85*2C 83         [24] 6320 	mov	dph,(_initializeRootHubConnection_sloc8_1_0 + 1)
      001B92 A3               [24] 6321 	inc	dptr
      001B93 E5*2A            [12] 6322 	mov	a,_initializeRootHubConnection_sloc7_1_0
      001B95 F0               [24] 6323 	movx	@dptr,a
                                   6324 ;	USBHost.c:1073: getHIDDeviceReport(hiddevice);
      001B96 88 82            [24] 6325 	mov	dpl,r0
      001B98 12r16rE3         [24] 6326 	lcall	_getHIDDeviceReport
                                   6327 ;	USBHost.c:1076: break;
                                   6328 ;	USBHost.c:1077: case USB_DESCR_TYP_HID:
      001B9B 80 3C            [24] 6329 	sjmp	00123$
      001B9D                       6330 00119$:
                                   6331 ;	USBHost.c:1079: readHIDInterface(currentInterface, (PXUSB_HID_DESCR)desc);
      001B9D 90r05r4E         [24] 6332 	mov	dptr,#_initializeRootHubConnection_currentInterface_458752_216
      001BA0 E0               [24] 6333 	movx	a,@dptr
      001BA1 FA               [12] 6334 	mov	r2,a
      001BA2 A3               [24] 6335 	inc	dptr
      001BA3 E0               [24] 6336 	movx	a,@dptr
      001BA4 FB               [12] 6337 	mov	r3,a
      001BA5 A8*20            [24] 6338 	mov	r0,_initializeRootHubConnection_sloc0_1_0
      001BA7 A9*21            [24] 6339 	mov	r1,(_initializeRootHubConnection_sloc0_1_0 + 1)
      001BA9 90r03r48         [24] 6340 	mov	dptr,#_readHIDInterface_PARM_2
      001BAC E8               [12] 6341 	mov	a,r0
      001BAD F0               [24] 6342 	movx	@dptr,a
      001BAE E9               [12] 6343 	mov	a,r1
      001BAF A3               [24] 6344 	inc	dptr
      001BB0 F0               [24] 6345 	movx	@dptr,a
      001BB1 8A 82            [24] 6346 	mov	dpl,r2
      001BB3 8B 83            [24] 6347 	mov	dph,r3
      001BB5 12r17rB2         [24] 6348 	lcall	_readHIDInterface
                                   6349 ;	USBHost.c:1080: break;
                                   6350 ;	USBHost.c:1081: case USB_DESCR_TYP_CS_INTF:
      001BB8 80 1F            [24] 6351 	sjmp	00123$
      001BBA                       6352 00120$:
                                   6353 ;	USBHost.c:1083: DEBUG_OUT_USB_BUFFER(desc);
      001BBA 85*20 82         [24] 6354 	mov	dpl,_initializeRootHubConnection_sloc0_1_0
      001BBD 85*21 83         [24] 6355 	mov	dph,(_initializeRootHubConnection_sloc0_1_0 + 1)
      001BC0 12r0Ar98         [24] 6356 	lcall	_DEBUG_OUT_USB_BUFFER
                                   6357 ;	USBHost.c:1084: break;
                                   6358 ;	USBHost.c:1085: case USB_DESCR_TYP_CS_ENDP:
      001BC3 80 14            [24] 6359 	sjmp	00123$
      001BC5                       6360 00121$:
                                   6361 ;	USBHost.c:1087: DEBUG_OUT_USB_BUFFER(desc);
      001BC5 85*20 82         [24] 6362 	mov	dpl,_initializeRootHubConnection_sloc0_1_0
      001BC8 85*21 83         [24] 6363 	mov	dph,(_initializeRootHubConnection_sloc0_1_0 + 1)
      001BCB 12r0Ar98         [24] 6364 	lcall	_DEBUG_OUT_USB_BUFFER
                                   6365 ;	USBHost.c:1088: break;
                                   6366 ;	USBHost.c:1089: default:
      001BCE 80 09            [24] 6367 	sjmp	00123$
      001BD0                       6368 00122$:
                                   6369 ;	USBHost.c:1091: DEBUG_OUT_USB_BUFFER(desc);
      001BD0 85*20 82         [24] 6370 	mov	dpl,_initializeRootHubConnection_sloc0_1_0
      001BD3 85*21 83         [24] 6371 	mov	dph,(_initializeRootHubConnection_sloc0_1_0 + 1)
      001BD6 12r0Ar98         [24] 6372 	lcall	_DEBUG_OUT_USB_BUFFER
                                   6373 ;	USBHost.c:1092: }
      001BD9                       6374 00123$:
                                   6375 ;	USBHost.c:1093: i += desc[0];
      001BD9 90r05r50         [24] 6376 	mov	dptr,#_initializeRootHubConnection_desc_524288_221
      001BDC E0               [24] 6377 	movx	a,@dptr
      001BDD FA               [12] 6378 	mov	r2,a
      001BDE A3               [24] 6379 	inc	dptr
      001BDF E0               [24] 6380 	movx	a,@dptr
      001BE0 FB               [12] 6381 	mov	r3,a
      001BE1 8A 82            [24] 6382 	mov	dpl,r2
      001BE3 8B 83            [24] 6383 	mov	dph,r3
      001BE5 E0               [24] 6384 	movx	a,@dptr
      001BE6 FA               [12] 6385 	mov	r2,a
      001BE7 7B 00            [12] 6386 	mov	r3,#0x00
      001BE9 90r03r4C         [24] 6387 	mov	dptr,#_initializeRootHubConnection_i_458752_216
      001BEC E0               [24] 6388 	movx	a,@dptr
      001BED F8               [12] 6389 	mov	r0,a
      001BEE A3               [24] 6390 	inc	dptr
      001BEF E0               [24] 6391 	movx	a,@dptr
      001BF0 F9               [12] 6392 	mov	r1,a
      001BF1 EA               [12] 6393 	mov	a,r2
      001BF2 28               [12] 6394 	add	a,r0
      001BF3 F8               [12] 6395 	mov	r0,a
      001BF4 EB               [12] 6396 	mov	a,r3
      001BF5 39               [12] 6397 	addc	a,r1
      001BF6 F9               [12] 6398 	mov	r1,a
      001BF7 90r03r4C         [24] 6399 	mov	dptr,#_initializeRootHubConnection_i_458752_216
      001BFA E8               [12] 6400 	mov	a,r0
      001BFB F0               [24] 6401 	movx	@dptr,a
      001BFC E9               [12] 6402 	mov	a,r1
      001BFD A3               [24] 6403 	inc	dptr
      001BFE F0               [24] 6404 	movx	@dptr,a
      001BFF 02r1Ar66         [24] 6405 	ljmp	00124$
      001C02                       6406 00126$:
                                   6407 ;	USBHost.c:1095: return ERR_SUCCESS;
      001C02 75 82 00         [24] 6408 	mov	dpl,#0x00
      001C05 22               [24] 6409 	ret
      001C06                       6410 00132$:
                                   6411 ;	USBHost.c:1101: rootHubDevice[rootHubIndex].status = ROOT_DEVICE_FAILED;
      001C06 EC               [12] 6412 	mov	a,r4
      001C07 24rD1            [12] 6413 	add	a,#_rootHubDevice
      001C09 F5 82            [12] 6414 	mov	dpl,a
      001C0B ED               [12] 6415 	mov	a,r5
      001C0C 34s02            [12] 6416 	addc	a,#(_rootHubDevice >> 8)
      001C0E F5 83            [12] 6417 	mov	dph,a
      001C10 74 02            [12] 6418 	mov	a,#0x02
      001C12 F0               [24] 6419 	movx	@dptr,a
                                   6420 ;	USBHost.c:1102: setUsbSpeed(1); // TODO define speeds
      001C13 75 82 01         [24] 6421 	mov	dpl,#0x01
      001C16 C0 07            [24] 6422 	push	ar7
      001C18 C0 06            [24] 6423 	push	ar6
      001C1A C0 05            [24] 6424 	push	ar5
      001C1C C0 04            [24] 6425 	push	ar4
      001C1E 12r02r84         [24] 6426 	lcall	_setUsbSpeed
      001C21 D0 04            [24] 6427 	pop	ar4
      001C23 D0 05            [24] 6428 	pop	ar5
      001C25 D0 06            [24] 6429 	pop	ar6
      001C27 D0 07            [24] 6430 	pop	ar7
      001C29                       6431 00133$:
                                   6432 ;	USBHost.c:976: for (retry = 0; retry < 10; retry++) { // todo test fewer retries
      001C29 05*22            [12] 6433 	inc	_initializeRootHubConnection_sloc1_1_0
      001C2B 74 F6            [12] 6434 	mov	a,#0x100 - 0x0a
      001C2D 25*22            [12] 6435 	add	a,_initializeRootHubConnection_sloc1_1_0
      001C2F 40 03            [24] 6436 	jc	00268$
      001C31 02r17rD0         [24] 6437 	ljmp	00145$
      001C34                       6438 00268$:
                                   6439 ;	USBHost.c:1104: return res;
      001C34 90r03r4B         [24] 6440 	mov	dptr,#_initializeRootHubConnection_res_65536_205
      001C37 E0               [24] 6441 	movx	a,@dptr
                                   6442 ;	USBHost.c:1105: }
      001C38 F5 82            [12] 6443 	mov	dpl,a
      001C3A 22               [24] 6444 	ret
                                   6445 ;------------------------------------------------------------
                                   6446 ;Allocation info for local variables in function 'checkRootHubConnections'
                                   6447 ;------------------------------------------------------------
                                   6448 ;res                       Allocated with name '_checkRootHubConnections_res_65536_228'
                                   6449 ;------------------------------------------------------------
                                   6450 ;	USBHost.c:1107: uint8_t checkRootHubConnections()
                                   6451 ;	-----------------------------------------
                                   6452 ;	 function checkRootHubConnections
                                   6453 ;	-----------------------------------------
      001C3B                       6454 _checkRootHubConnections:
                                   6455 ;	USBHost.c:1109: __xdata uint8_t res = ERR_SUCCESS;
      001C3B 90r05r52         [24] 6456 	mov	dptr,#_checkRootHubConnections_res_65536_228
      001C3E E4               [12] 6457 	clr	a
      001C3F F0               [24] 6458 	movx	@dptr,a
                                   6459 ;	USBHost.c:1111: if (UIF_DETECT) {
                                   6460 ;	USBHost.c:1112: UIF_DETECT = 0;
                                   6461 ;	assignBit
      001C40 10 D8 03         [24] 6462 	jbc	_UIF_DETECT,00149$
      001C43 02r1CrDE         [24] 6463 	ljmp	00118$
      001C46                       6464 00149$:
                                   6465 ;	USBHost.c:1113: if (USB_HUB_ST & bUHS_H0_ATTACH) {
      001C46 E5 DB            [12] 6466 	mov	a,_USB_HUB_ST
      001C48 30 E3 28         [24] 6467 	jnb	acc.3,00107$
                                   6468 ;	USBHost.c:1114: if (rootHubDevice[0].status == ROOT_DEVICE_DISCONNECT || (UHUB0_CTRL & bUH_PORT_EN) == 0x00) {
      001C4B 90r02rD1         [24] 6469 	mov	dptr,#_rootHubDevice
      001C4E E0               [24] 6470 	movx	a,@dptr
      001C4F 60 05            [24] 6471 	jz	00101$
      001C51 E5 E4            [12] 6472 	mov	a,_UDEV_CTRL
      001C53 20 E0 3C         [24] 6473 	jb	acc.0,00108$
      001C56                       6474 00101$:
                                   6475 ;	USBHost.c:1115: disableRootHubPort(0); // todo really need to reset register?
      001C56 75 82 00         [24] 6476 	mov	dpl,#0x00
      001C59 12r02r04         [24] 6477 	lcall	_disableRootHubPort
                                   6478 ;	USBHost.c:1116: rootHubDevice[0].status = ROOT_DEVICE_CONNECTED;
      001C5C 90r02rD1         [24] 6479 	mov	dptr,#_rootHubDevice
      001C5F 74 01            [12] 6480 	mov	a,#0x01
      001C61 F0               [24] 6481 	movx	@dptr,a
                                   6482 ;	USBHost.c:1118: flash_led(); //  .
      001C62 12r00r00         [24] 6483 	lcall	_flash_led
                                   6484 ;	USBHost.c:1119: res = initializeRootHubConnection(0);
      001C65 75 82 00         [24] 6485 	mov	dpl,#0x00
      001C68 12r17rB3         [24] 6486 	lcall	_initializeRootHubConnection
      001C6B E5 82            [12] 6487 	mov	a,dpl
      001C6D 90r05r52         [24] 6488 	mov	dptr,#_checkRootHubConnections_res_65536_228
      001C70 F0               [24] 6489 	movx	@dptr,a
      001C71 80 1F            [24] 6490 	sjmp	00108$
      001C73                       6491 00107$:
                                   6492 ;	USBHost.c:1121: } else if (rootHubDevice[0].status >= ROOT_DEVICE_CONNECTED) {
      001C73 90r02rD1         [24] 6493 	mov	dptr,#_rootHubDevice
      001C76 E0               [24] 6494 	movx	a,@dptr
      001C77 FF               [12] 6495 	mov	r7,a
      001C78 BF 01 00         [24] 6496 	cjne	r7,#0x01,00153$
      001C7B                       6497 00153$:
      001C7B 40 15            [24] 6498 	jc	00108$
                                   6499 ;	USBHost.c:1122: resetHubDevices(0);
      001C7D 75 82 00         [24] 6500 	mov	dpl,#0x00
      001C80 12r0Br73         [24] 6501 	lcall	_resetHubDevices
                                   6502 ;	USBHost.c:1123: disableRootHubPort(0);
      001C83 75 82 00         [24] 6503 	mov	dpl,#0x00
      001C86 12r02r04         [24] 6504 	lcall	_disableRootHubPort
                                   6505 ;	USBHost.c:1125: flash_led(); //  .
      001C89 12r00r00         [24] 6506 	lcall	_flash_led
                                   6507 ;	USBHost.c:1126: res = ERR_USB_DISCON;
      001C8C 90r05r52         [24] 6508 	mov	dptr,#_checkRootHubConnections_res_65536_228
      001C8F 74 16            [12] 6509 	mov	a,#0x16
      001C91 F0               [24] 6510 	movx	@dptr,a
      001C92                       6511 00108$:
                                   6512 ;	USBHost.c:1129: if (USB_HUB_ST & bUHS_H1_ATTACH) {
      001C92 E5 DB            [12] 6513 	mov	a,_USB_HUB_ST
      001C94 30 E7 28         [24] 6514 	jnb	acc.7,00115$
                                   6515 ;	USBHost.c:1130: if (rootHubDevice[1].status == ROOT_DEVICE_DISCONNECT || (UHUB1_CTRL & bUH_PORT_EN) == 0x00) {
      001C97 90r02rD4         [24] 6516 	mov	dptr,#(_rootHubDevice + 0x0003)
      001C9A E0               [24] 6517 	movx	a,@dptr
      001C9B 60 05            [24] 6518 	jz	00109$
      001C9D E5 E5            [12] 6519 	mov	a,_UHUB1_CTRL
      001C9F 20 E0 3C         [24] 6520 	jb	acc.0,00118$
      001CA2                       6521 00109$:
                                   6522 ;	USBHost.c:1131: disableRootHubPort(1); // todo really need to reset register?
      001CA2 75 82 01         [24] 6523 	mov	dpl,#0x01
      001CA5 12r02r04         [24] 6524 	lcall	_disableRootHubPort
                                   6525 ;	USBHost.c:1132: rootHubDevice[1].status = ROOT_DEVICE_CONNECTED;
      001CA8 90r02rD4         [24] 6526 	mov	dptr,#(_rootHubDevice + 0x0003)
      001CAB 74 01            [12] 6527 	mov	a,#0x01
      001CAD F0               [24] 6528 	movx	@dptr,a
                                   6529 ;	USBHost.c:1134: flash_led(); //  .
      001CAE 12r00r00         [24] 6530 	lcall	_flash_led
                                   6531 ;	USBHost.c:1135: res = initializeRootHubConnection(1);
      001CB1 75 82 01         [24] 6532 	mov	dpl,#0x01
      001CB4 12r17rB3         [24] 6533 	lcall	_initializeRootHubConnection
      001CB7 E5 82            [12] 6534 	mov	a,dpl
      001CB9 90r05r52         [24] 6535 	mov	dptr,#_checkRootHubConnections_res_65536_228
      001CBC F0               [24] 6536 	movx	@dptr,a
      001CBD 80 1F            [24] 6537 	sjmp	00118$
      001CBF                       6538 00115$:
                                   6539 ;	USBHost.c:1137: } else if (rootHubDevice[1].status >= ROOT_DEVICE_CONNECTED) {
      001CBF 90r02rD4         [24] 6540 	mov	dptr,#(_rootHubDevice + 0x0003)
      001CC2 E0               [24] 6541 	movx	a,@dptr
      001CC3 FF               [12] 6542 	mov	r7,a
      001CC4 BF 01 00         [24] 6543 	cjne	r7,#0x01,00158$
      001CC7                       6544 00158$:
      001CC7 40 15            [24] 6545 	jc	00118$
                                   6546 ;	USBHost.c:1138: resetHubDevices(1);
      001CC9 75 82 01         [24] 6547 	mov	dpl,#0x01
      001CCC 12r0Br73         [24] 6548 	lcall	_resetHubDevices
                                   6549 ;	USBHost.c:1139: disableRootHubPort(1);
      001CCF 75 82 01         [24] 6550 	mov	dpl,#0x01
      001CD2 12r02r04         [24] 6551 	lcall	_disableRootHubPort
                                   6552 ;	USBHost.c:1141: flash_led(); //  .
      001CD5 12r00r00         [24] 6553 	lcall	_flash_led
                                   6554 ;	USBHost.c:1142: res = ERR_USB_DISCON;
      001CD8 90r05r52         [24] 6555 	mov	dptr,#_checkRootHubConnections_res_65536_228
      001CDB 74 16            [12] 6556 	mov	a,#0x16
      001CDD F0               [24] 6557 	movx	@dptr,a
      001CDE                       6558 00118$:
                                   6559 ;	USBHost.c:1145: return res;
      001CDE 90r05r52         [24] 6560 	mov	dptr,#_checkRootHubConnections_res_65536_228
      001CE1 E0               [24] 6561 	movx	a,@dptr
                                   6562 ;	USBHost.c:1146: }
      001CE2 F5 82            [12] 6563 	mov	dpl,a
      001CE4 22               [24] 6564 	ret
                                   6565 	.area CSEG    (CODE)
                                   6566 	.area CONST   (CODE)
      000000                       6567 _GetDeviceDescriptorRequest:
      000000 80                    6568 	.db #0x80	; 128
      000001 06                    6569 	.db #0x06	; 6
      000002 00                    6570 	.db #0x00	; 0
      000003 01                    6571 	.db #0x01	; 1
      000004 00                    6572 	.db #0x00	; 0
      000005 00                    6573 	.db #0x00	; 0
      000006 12                    6574 	.db #0x12	; 18
      000007 00                    6575 	.db #0x00	; 0
      000008                       6576 _GetConfigurationDescriptorRequest:
      000008 80                    6577 	.db #0x80	; 128
      000009 06                    6578 	.db #0x06	; 6
      00000A 00                    6579 	.db #0x00	; 0
      00000B 02                    6580 	.db #0x02	; 2
      00000C 00                    6581 	.db #0x00	; 0
      00000D 00                    6582 	.db #0x00	; 0
      00000E 12                    6583 	.db #0x12	; 18
      00000F 00                    6584 	.db #0x00	; 0
      000010                       6585 _GetInterfaceDescriptorRequest:
      000010 81                    6586 	.db #0x81	; 129
      000011 06                    6587 	.db #0x06	; 6
      000012 00                    6588 	.db #0x00	; 0
      000013 04                    6589 	.db #0x04	; 4
      000014 00                    6590 	.db #0x00	; 0
      000015 00                    6591 	.db #0x00	; 0
      000016 09                    6592 	.db #0x09	; 9
      000017 00                    6593 	.db #0x00	; 0
      000018                       6594 _SetUSBAddressRequest:
      000018 00                    6595 	.db #0x00	; 0
      000019 05                    6596 	.db #0x05	; 5
      00001A 02                    6597 	.db #0x02	; 2
      00001B 00                    6598 	.db #0x00	; 0
      00001C 00                    6599 	.db #0x00	; 0
      00001D 00                    6600 	.db #0x00	; 0
      00001E 00                    6601 	.db #0x00	; 0
      00001F 00                    6602 	.db #0x00	; 0
      000020                       6603 _GetDeviceStringRequest:
      000020 80                    6604 	.db #0x80	; 128
      000021 06                    6605 	.db #0x06	; 6
      000022 02                    6606 	.db #0x02	; 2
      000023 03                    6607 	.db #0x03	; 3
      000024 09                    6608 	.db #0x09	; 9
      000025 04                    6609 	.db #0x04	; 4
      000026 02                    6610 	.db #0x02	; 2
      000027 04                    6611 	.db #0x04	; 4
      000028                       6612 _SetupSetUsbConfig:
      000028 00                    6613 	.db #0x00	; 0
      000029 09                    6614 	.db #0x09	; 9
      00002A 00                    6615 	.db #0x00	; 0
      00002B 00                    6616 	.db #0x00	; 0
      00002C 00                    6617 	.db #0x00	; 0
      00002D 00                    6618 	.db #0x00	; 0
      00002E 00                    6619 	.db #0x00	; 0
      00002F 00                    6620 	.db #0x00	; 0
      000030                       6621 _SetHIDIdleRequest:
      000030 21                    6622 	.db #0x21	; 33
      000031 0A                    6623 	.db #0x0a	; 10
      000032 00                    6624 	.db #0x00	; 0
      000033 00                    6625 	.db #0x00	; 0
      000034 00                    6626 	.db #0x00	; 0
      000035 00                    6627 	.db #0x00	; 0
      000036 00                    6628 	.db #0x00	; 0
      000037 00                    6629 	.db #0x00	; 0
      000038                       6630 _GetHIDReport:
      000038 81                    6631 	.db #0x81	; 129
      000039 06                    6632 	.db #0x06	; 6
      00003A 00                    6633 	.db #0x00	; 0
      00003B 22                    6634 	.db #0x22	; 34
      00003C 00                    6635 	.db #0x00	; 0
      00003D 00                    6636 	.db #0x00	; 0
      00003E FF                    6637 	.db #0xff	; 255
      00003F 00                    6638 	.db #0x00	; 0
                                   6639 	.area XINIT   (CODE)
                                   6640 	.area CABS    (ABS,CODE)
