                                      1 ;--------------------------------------------------------
                                      2 ; File Created by SDCC : free open source ANSI-C Compiler
                                      3 ; Version 4.2.0 #13081 (Linux)
                                      4 ;--------------------------------------------------------
                                      5 	.module USBHost
                                      6 	.optsdcc -mmcs51 --model-large
                                      7 	
                                      8 ;--------------------------------------------------------
                                      9 ; Public variables in this module
                                     10 ;--------------------------------------------------------
                                     11 	.globl _GetHIDReport
                                     12 	.globl _SetHIDIdleRequest
                                     13 	.globl _SetupSetUsbConfig
                                     14 	.globl _GetDeviceStringRequest
                                     15 	.globl _SetUSBAddressRequest
                                     16 	.globl _GetInterfaceDescriptorRequest
                                     17 	.globl _GetConfigurationDescriptorRequest
                                     18 	.globl _GetDeviceDescriptorRequest
                                     19 	.globl _initializeRootHubConnection
                                     20 	.globl _readEndpoint
                                     21 	.globl _readHIDInterface
                                     22 	.globl _readInterface
                                     23 	.globl _getHIDDeviceReport
                                     24 	.globl _parseHIDDeviceReport
                                     25 	.globl _getInterfaceDescriptor
                                     26 	.globl _getConfigurationDescriptor
                                     27 	.globl _DEBUG_OUT_USB_BUFFER
                                     28 	.globl _convertStringDescriptor
                                     29 	.globl _getDeviceString
                                     30 	.globl _setUsbConfig
                                     31 	.globl _setUsbAddress
                                     32 	.globl _getDeviceDescriptor
                                     33 	.globl _fillTxBuffer
                                     34 	.globl _hostCtrlTransfer
                                     35 	.globl _hostTransfer
                                     36 	.globl _selectHubPort
                                     37 	.globl _enableRootHubPort
                                     38 	.globl _resetRootHubPort
                                     39 	.globl _setUsbSpeed
                                     40 	.globl _setHostUsbAddr
                                     41 	.globl _disableRootHubPort
                                     42 	.globl _flash_led
                                     43 	.globl _mouse_write
                                     44 	.globl _sendProtocolMSG
                                     45 	.globl _sendHidPollMSG
                                     46 	.globl _delay
                                     47 	.globl _delayUs
                                     48 	.globl _printf
                                     49 	.globl _LED
                                     50 	.globl _UIF_BUS_RST
                                     51 	.globl _UIF_DETECT
                                     52 	.globl _UIF_TRANSFER
                                     53 	.globl _UIF_SUSPEND
                                     54 	.globl _UIF_HST_SOF
                                     55 	.globl _UIF_FIFO_OV
                                     56 	.globl _U_SIE_FREE
                                     57 	.globl _U_TOG_OK
                                     58 	.globl _U_IS_NAK
                                     59 	.globl _S0_R_FIFO0
                                     60 	.globl _S0_R_FIFO1
                                     61 	.globl _S0_T_FIFO
                                     62 	.globl _S0_FREE
                                     63 	.globl _S0_IF_BYTE
                                     64 	.globl _S0_IF_FIRST
                                     65 	.globl _S0_IF_OV
                                     66 	.globl _S0_FST_ACT
                                     67 	.globl _CP_RL2
                                     68 	.globl _C_T2
                                     69 	.globl _TR2
                                     70 	.globl _EXEN2
                                     71 	.globl _TCLK
                                     72 	.globl _RCLK
                                     73 	.globl _EXF2
                                     74 	.globl _CAP1F
                                     75 	.globl _TF2
                                     76 	.globl _RI
                                     77 	.globl _TI
                                     78 	.globl _RB8
                                     79 	.globl _TB8
                                     80 	.globl _REN
                                     81 	.globl _SM2
                                     82 	.globl _SM1
                                     83 	.globl _SM0
                                     84 	.globl _IT0
                                     85 	.globl _IE0
                                     86 	.globl _IT1
                                     87 	.globl _IE1
                                     88 	.globl _TR0
                                     89 	.globl _TF0
                                     90 	.globl _TR1
                                     91 	.globl _TF1
                                     92 	.globl _RXD1_
                                     93 	.globl _LED2
                                     94 	.globl _CAP3_
                                     95 	.globl _PWM3_
                                     96 	.globl _PWM1_
                                     97 	.globl _TXD1_
                                     98 	.globl _TNOW_
                                     99 	.globl _LED3
                                    100 	.globl _PWM2_
                                    101 	.globl _SCS_
                                    102 	.globl _SCK_
                                    103 	.globl _RXD
                                    104 	.globl _TXD
                                    105 	.globl _INT0
                                    106 	.globl _LED0
                                    107 	.globl _INT1
                                    108 	.globl _LED1
                                    109 	.globl _T0
                                    110 	.globl _XCS0
                                    111 	.globl _LEDC
                                    112 	.globl _T1
                                    113 	.globl _DA6
                                    114 	.globl _WR
                                    115 	.globl _RD
                                    116 	.globl _MOSI1
                                    117 	.globl _MISO1
                                    118 	.globl _SCK1
                                    119 	.globl _PWM1
                                    120 	.globl _CAP2_
                                    121 	.globl _T2EX_
                                    122 	.globl _PWM2
                                    123 	.globl _TNOW
                                    124 	.globl _RXD1
                                    125 	.globl _DA7
                                    126 	.globl _TXD1
                                    127 	.globl _CAP1
                                    128 	.globl _T2
                                    129 	.globl _CAP2
                                    130 	.globl _T2EX
                                    131 	.globl _CAP3
                                    132 	.globl _PWM3
                                    133 	.globl _SCS
                                    134 	.globl _MOSI
                                    135 	.globl _MISO
                                    136 	.globl _SCK
                                    137 	.globl _AIN0
                                    138 	.globl _AIN1
                                    139 	.globl _AIN2
                                    140 	.globl _AIN3
                                    141 	.globl _AIN4
                                    142 	.globl _AIN5
                                    143 	.globl _AIN6
                                    144 	.globl _AIN7
                                    145 	.globl _UDTR
                                    146 	.globl _URTS
                                    147 	.globl _RXD_
                                    148 	.globl _TXD_
                                    149 	.globl _UCTS
                                    150 	.globl _UDSR
                                    151 	.globl _URI
                                    152 	.globl _UDCD
                                    153 	.globl _IE_SPI0
                                    154 	.globl _IE_TMR3
                                    155 	.globl _IE_USB
                                    156 	.globl _IE_ADC
                                    157 	.globl _IE_UART1
                                    158 	.globl _IE_PWM1
                                    159 	.globl _IE_GPIO
                                    160 	.globl _IE_WDOG
                                    161 	.globl _PX0
                                    162 	.globl _PT0
                                    163 	.globl _PX1
                                    164 	.globl _PT1
                                    165 	.globl _PS
                                    166 	.globl _PT2
                                    167 	.globl _PL_FLAG
                                    168 	.globl _PH_FLAG
                                    169 	.globl _EX0
                                    170 	.globl _ET0
                                    171 	.globl _EX1
                                    172 	.globl _ET1
                                    173 	.globl _ES
                                    174 	.globl _ET2
                                    175 	.globl _E_DIS
                                    176 	.globl _EA
                                    177 	.globl _P
                                    178 	.globl _F1
                                    179 	.globl _OV
                                    180 	.globl _RS0
                                    181 	.globl _RS1
                                    182 	.globl _F0
                                    183 	.globl _AC
                                    184 	.globl _CY
                                    185 	.globl _USB_DMA_AH
                                    186 	.globl _USB_DMA_AL
                                    187 	.globl _USB_DMA
                                    188 	.globl _UHUB1_CTRL
                                    189 	.globl _UDEV_CTRL
                                    190 	.globl _USB_DEV_AD
                                    191 	.globl _USB_CTRL
                                    192 	.globl _USB_INT_EN
                                    193 	.globl _UEP4_T_LEN
                                    194 	.globl _UEP4_CTRL
                                    195 	.globl _UEP0_T_LEN
                                    196 	.globl _UEP0_CTRL
                                    197 	.globl _USB_HUB_ST
                                    198 	.globl _USB_MIS_ST
                                    199 	.globl _USB_INT_ST
                                    200 	.globl _USB_INT_FG
                                    201 	.globl _UEP3_T_LEN
                                    202 	.globl _UEP3_CTRL
                                    203 	.globl _UEP2_T_LEN
                                    204 	.globl _UEP2_CTRL
                                    205 	.globl _UEP1_T_LEN
                                    206 	.globl _UEP1_CTRL
                                    207 	.globl _USB_RX_LEN
                                    208 	.globl _ADC_EX_SW
                                    209 	.globl _ADC_SETUP
                                    210 	.globl _ADC_FIFO_H
                                    211 	.globl _ADC_FIFO_L
                                    212 	.globl _ADC_FIFO
                                    213 	.globl _ADC_CHANN
                                    214 	.globl _ADC_CTRL
                                    215 	.globl _ADC_STAT
                                    216 	.globl _ADC_CK_SE
                                    217 	.globl _ADC_DMA_CN
                                    218 	.globl _ADC_DMA_AH
                                    219 	.globl _ADC_DMA_AL
                                    220 	.globl _ADC_DMA
                                    221 	.globl _SER1_ADDR
                                    222 	.globl _SER1_MSR
                                    223 	.globl _SER1_LSR
                                    224 	.globl _SER1_MCR
                                    225 	.globl _SER1_LCR
                                    226 	.globl _SER1_IIR
                                    227 	.globl _SER1_IER
                                    228 	.globl _SER1_FIFO
                                    229 	.globl _SPI1_CK_SE
                                    230 	.globl _SPI1_CTRL
                                    231 	.globl _SPI1_DATA
                                    232 	.globl _SPI1_STAT
                                    233 	.globl _SPI0_SETUP
                                    234 	.globl _SPI0_CK_SE
                                    235 	.globl _SPI0_CTRL
                                    236 	.globl _SPI0_DATA
                                    237 	.globl _SPI0_STAT
                                    238 	.globl _PWM_CYCLE
                                    239 	.globl _PWM_CK_SE
                                    240 	.globl _PWM_CTRL
                                    241 	.globl _PWM_DATA
                                    242 	.globl _PWM_DATA2
                                    243 	.globl _T3_FIFO_H
                                    244 	.globl _T3_FIFO_L
                                    245 	.globl _T3_FIFO
                                    246 	.globl _T3_DMA_AH
                                    247 	.globl _T3_DMA_AL
                                    248 	.globl _T3_DMA
                                    249 	.globl _T3_DMA_CN
                                    250 	.globl _T3_CTRL
                                    251 	.globl _T3_STAT
                                    252 	.globl _T3_END_H
                                    253 	.globl _T3_END_L
                                    254 	.globl _T3_END
                                    255 	.globl _T3_COUNT_H
                                    256 	.globl _T3_COUNT_L
                                    257 	.globl _T3_COUNT
                                    258 	.globl _T3_SETUP
                                    259 	.globl _TH2
                                    260 	.globl _TL2
                                    261 	.globl _T2COUNT
                                    262 	.globl _RCAP2H
                                    263 	.globl _RCAP2L
                                    264 	.globl _RCAP2
                                    265 	.globl _T2MOD
                                    266 	.globl _T2CON
                                    267 	.globl _SBUF
                                    268 	.globl _SCON
                                    269 	.globl _TH1
                                    270 	.globl _TH0
                                    271 	.globl _TL1
                                    272 	.globl _TL0
                                    273 	.globl _TMOD
                                    274 	.globl _TCON
                                    275 	.globl _XBUS_SPEED
                                    276 	.globl _XBUS_AUX
                                    277 	.globl _PIN_FUNC
                                    278 	.globl _PORT_CFG
                                    279 	.globl _P5_IN
                                    280 	.globl _P4_PU
                                    281 	.globl _P4_DIR
                                    282 	.globl _P4_IN
                                    283 	.globl _P4_OUT
                                    284 	.globl _P3_PU
                                    285 	.globl _P3_DIR
                                    286 	.globl _P3
                                    287 	.globl _P2_PU
                                    288 	.globl _P2_DIR
                                    289 	.globl _P2
                                    290 	.globl _P1_PU
                                    291 	.globl _P1_DIR
                                    292 	.globl _P1_IE
                                    293 	.globl _P1
                                    294 	.globl _P0_PU
                                    295 	.globl _P0_DIR
                                    296 	.globl _P0
                                    297 	.globl _ROM_CTRL
                                    298 	.globl _ROM_DATA_H
                                    299 	.globl _ROM_DATA_L
                                    300 	.globl _ROM_DATA
                                    301 	.globl _ROM_ADDR_H
                                    302 	.globl _ROM_ADDR_L
                                    303 	.globl _ROM_ADDR
                                    304 	.globl _GPIO_IE
                                    305 	.globl _IP_EX
                                    306 	.globl _IE_EX
                                    307 	.globl _IP
                                    308 	.globl _IE
                                    309 	.globl _WDOG_COUNT
                                    310 	.globl _RESET_KEEP
                                    311 	.globl _WAKE_CTRL
                                    312 	.globl _SLEEP_CTRL
                                    313 	.globl _CLOCK_CFG
                                    314 	.globl _PLL_CFG
                                    315 	.globl _PCON
                                    316 	.globl _GLOBAL_CFG
                                    317 	.globl _SAFE_MOD
                                    318 	.globl _DPH
                                    319 	.globl _DPL
                                    320 	.globl _SP
                                    321 	.globl _B
                                    322 	.globl _ACC
                                    323 	.globl _PSW
                                    324 	.globl _readHIDInterface_PARM_2
                                    325 	.globl _readInterface_PARM_2
                                    326 	.globl _parseHIDDeviceReport_PARM_3
                                    327 	.globl _parseHIDDeviceReport_PARM_2
                                    328 	.globl _VendorProductID
                                    329 	.globl _HIDdevice
                                    330 	.globl _convertStringDescriptor_PARM_4
                                    331 	.globl _convertStringDescriptor_PARM_3
                                    332 	.globl _convertStringDescriptor_PARM_2
                                    333 	.globl _fillTxBuffer_PARM_2
                                    334 	.globl _hostCtrlTransfer_PARM_3
                                    335 	.globl _hostCtrlTransfer_PARM_2
                                    336 	.globl _hostTransfer_PARM_3
                                    337 	.globl _hostTransfer_PARM_2
                                    338 	.globl _selectHubPort_PARM_2
                                    339 	.globl _rootHubDevice
                                    340 	.globl _receiveDataBuffer
                                    341 	.globl _endpoint0Size
                                    342 	.globl _TxBuffer
                                    343 	.globl _RxBuffer
                                    344 	.globl _LED_DMA_XL
                                    345 	.globl _LED_DMA_XH
                                    346 	.globl _LED_DMA_CN
                                    347 	.globl _LED_DMA_AL
                                    348 	.globl _LED_DMA_AH
                                    349 	.globl _LED_CK_SE
                                    350 	.globl _LED_DATA
                                    351 	.globl _LED_CTRL
                                    352 	.globl _LED_STAT
                                    353 	.globl _pUEP3_DMA_L
                                    354 	.globl _pUEP3_DMA_H
                                    355 	.globl _UEP3_DMA_H
                                    356 	.globl _UEP3_DMA_L
                                    357 	.globl _UEP3_DMA
                                    358 	.globl _pUEP2_DMA_L
                                    359 	.globl _pUEP2_DMA_H
                                    360 	.globl _UEP2_DMA_H
                                    361 	.globl _UEP2_DMA_L
                                    362 	.globl _UEP2_DMA
                                    363 	.globl _pUEP1_DMA_L
                                    364 	.globl _pUEP1_DMA_H
                                    365 	.globl _UEP1_DMA_L
                                    366 	.globl _UEP1_DMA_H
                                    367 	.globl _pUEP0_DMA_L
                                    368 	.globl _pUEP0_DMA_H
                                    369 	.globl _UEP0_DMA_L
                                    370 	.globl _UEP0_DMA_H
                                    371 	.globl _UEP2_3_MOD
                                    372 	.globl _UEP4_1_MOD
                                    373 	.globl _pLED_DMA_XL
                                    374 	.globl _pLED_DMA_XH
                                    375 	.globl _pLED_DMA_CN
                                    376 	.globl _pLED_DMA_AL
                                    377 	.globl _pLED_DMA_AH
                                    378 	.globl _pLED_CK_SE
                                    379 	.globl _pLED_DATA
                                    380 	.globl _pLED_CTRL
                                    381 	.globl _pLED_STAT
                                    382 	.globl _pUEP2_3_MOD
                                    383 	.globl _pUEP4_1_MOD
                                    384 	.globl _initUSB_Host
                                    385 	.globl _resetHubDevices
                                    386 	.globl _pollHIDdevice
                                    387 	.globl _checkRootHubConnections
                                    388 ;--------------------------------------------------------
                                    389 ; special function registers
                                    390 ;--------------------------------------------------------
                                    391 	.area RSEG    (ABS,DATA)
      000000                        392 	.org 0x0000
                           0000D0   393 _PSW	=	0x00d0
                           0000E0   394 _ACC	=	0x00e0
                           0000F0   395 _B	=	0x00f0
                           000081   396 _SP	=	0x0081
                           000082   397 _DPL	=	0x0082
                           000083   398 _DPH	=	0x0083
                           0000A1   399 _SAFE_MOD	=	0x00a1
                           0000B1   400 _GLOBAL_CFG	=	0x00b1
                           000087   401 _PCON	=	0x0087
                           0000B2   402 _PLL_CFG	=	0x00b2
                           0000B3   403 _CLOCK_CFG	=	0x00b3
                           0000EA   404 _SLEEP_CTRL	=	0x00ea
                           0000EB   405 _WAKE_CTRL	=	0x00eb
                           0000FE   406 _RESET_KEEP	=	0x00fe
                           0000FF   407 _WDOG_COUNT	=	0x00ff
                           0000A8   408 _IE	=	0x00a8
                           0000B8   409 _IP	=	0x00b8
                           0000E8   410 _IE_EX	=	0x00e8
                           0000E9   411 _IP_EX	=	0x00e9
                           0000CF   412 _GPIO_IE	=	0x00cf
                           008584   413 _ROM_ADDR	=	0x8584
                           000084   414 _ROM_ADDR_L	=	0x0084
                           000085   415 _ROM_ADDR_H	=	0x0085
                           008F8E   416 _ROM_DATA	=	0x8f8e
                           00008E   417 _ROM_DATA_L	=	0x008e
                           00008F   418 _ROM_DATA_H	=	0x008f
                           000086   419 _ROM_CTRL	=	0x0086
                           000080   420 _P0	=	0x0080
                           0000C4   421 _P0_DIR	=	0x00c4
                           0000C5   422 _P0_PU	=	0x00c5
                           000090   423 _P1	=	0x0090
                           0000B9   424 _P1_IE	=	0x00b9
                           0000BA   425 _P1_DIR	=	0x00ba
                           0000BB   426 _P1_PU	=	0x00bb
                           0000A0   427 _P2	=	0x00a0
                           0000BC   428 _P2_DIR	=	0x00bc
                           0000BD   429 _P2_PU	=	0x00bd
                           0000B0   430 _P3	=	0x00b0
                           0000BE   431 _P3_DIR	=	0x00be
                           0000BF   432 _P3_PU	=	0x00bf
                           0000C0   433 _P4_OUT	=	0x00c0
                           0000C1   434 _P4_IN	=	0x00c1
                           0000C2   435 _P4_DIR	=	0x00c2
                           0000C3   436 _P4_PU	=	0x00c3
                           0000C7   437 _P5_IN	=	0x00c7
                           0000C6   438 _PORT_CFG	=	0x00c6
                           0000CE   439 _PIN_FUNC	=	0x00ce
                           0000A2   440 _XBUS_AUX	=	0x00a2
                           0000FD   441 _XBUS_SPEED	=	0x00fd
                           000088   442 _TCON	=	0x0088
                           000089   443 _TMOD	=	0x0089
                           00008A   444 _TL0	=	0x008a
                           00008B   445 _TL1	=	0x008b
                           00008C   446 _TH0	=	0x008c
                           00008D   447 _TH1	=	0x008d
                           000098   448 _SCON	=	0x0098
                           000099   449 _SBUF	=	0x0099
                           0000C8   450 _T2CON	=	0x00c8
                           0000C9   451 _T2MOD	=	0x00c9
                           00CBCA   452 _RCAP2	=	0xcbca
                           0000CA   453 _RCAP2L	=	0x00ca
                           0000CB   454 _RCAP2H	=	0x00cb
                           00CDCC   455 _T2COUNT	=	0xcdcc
                           0000CC   456 _TL2	=	0x00cc
                           0000CD   457 _TH2	=	0x00cd
                           0000A3   458 _T3_SETUP	=	0x00a3
                           00A5A4   459 _T3_COUNT	=	0xa5a4
                           0000A4   460 _T3_COUNT_L	=	0x00a4
                           0000A5   461 _T3_COUNT_H	=	0x00a5
                           00A7A6   462 _T3_END	=	0xa7a6
                           0000A6   463 _T3_END_L	=	0x00a6
                           0000A7   464 _T3_END_H	=	0x00a7
                           0000A9   465 _T3_STAT	=	0x00a9
                           0000AA   466 _T3_CTRL	=	0x00aa
                           0000AB   467 _T3_DMA_CN	=	0x00ab
                           00ADAC   468 _T3_DMA	=	0xadac
                           0000AC   469 _T3_DMA_AL	=	0x00ac
                           0000AD   470 _T3_DMA_AH	=	0x00ad
                           00AFAE   471 _T3_FIFO	=	0xafae
                           0000AE   472 _T3_FIFO_L	=	0x00ae
                           0000AF   473 _T3_FIFO_H	=	0x00af
                           00009B   474 _PWM_DATA2	=	0x009b
                           00009C   475 _PWM_DATA	=	0x009c
                           00009D   476 _PWM_CTRL	=	0x009d
                           00009E   477 _PWM_CK_SE	=	0x009e
                           00009F   478 _PWM_CYCLE	=	0x009f
                           0000F8   479 _SPI0_STAT	=	0x00f8
                           0000F9   480 _SPI0_DATA	=	0x00f9
                           0000FA   481 _SPI0_CTRL	=	0x00fa
                           0000FB   482 _SPI0_CK_SE	=	0x00fb
                           0000FC   483 _SPI0_SETUP	=	0x00fc
                           0000B4   484 _SPI1_STAT	=	0x00b4
                           0000B5   485 _SPI1_DATA	=	0x00b5
                           0000B6   486 _SPI1_CTRL	=	0x00b6
                           0000B7   487 _SPI1_CK_SE	=	0x00b7
                           00009A   488 _SER1_FIFO	=	0x009a
                           000091   489 _SER1_IER	=	0x0091
                           000092   490 _SER1_IIR	=	0x0092
                           000093   491 _SER1_LCR	=	0x0093
                           000094   492 _SER1_MCR	=	0x0094
                           000095   493 _SER1_LSR	=	0x0095
                           000096   494 _SER1_MSR	=	0x0096
                           000097   495 _SER1_ADDR	=	0x0097
                           00EDEC   496 _ADC_DMA	=	0xedec
                           0000EC   497 _ADC_DMA_AL	=	0x00ec
                           0000ED   498 _ADC_DMA_AH	=	0x00ed
                           0000EE   499 _ADC_DMA_CN	=	0x00ee
                           0000EF   500 _ADC_CK_SE	=	0x00ef
                           0000F1   501 _ADC_STAT	=	0x00f1
                           0000F2   502 _ADC_CTRL	=	0x00f2
                           0000F3   503 _ADC_CHANN	=	0x00f3
                           00F5F4   504 _ADC_FIFO	=	0xf5f4
                           0000F4   505 _ADC_FIFO_L	=	0x00f4
                           0000F5   506 _ADC_FIFO_H	=	0x00f5
                           0000F6   507 _ADC_SETUP	=	0x00f6
                           0000F7   508 _ADC_EX_SW	=	0x00f7
                           0000D1   509 _USB_RX_LEN	=	0x00d1
                           0000D2   510 _UEP1_CTRL	=	0x00d2
                           0000D3   511 _UEP1_T_LEN	=	0x00d3
                           0000D4   512 _UEP2_CTRL	=	0x00d4
                           0000D5   513 _UEP2_T_LEN	=	0x00d5
                           0000D6   514 _UEP3_CTRL	=	0x00d6
                           0000D7   515 _UEP3_T_LEN	=	0x00d7
                           0000D8   516 _USB_INT_FG	=	0x00d8
                           0000D9   517 _USB_INT_ST	=	0x00d9
                           0000DA   518 _USB_MIS_ST	=	0x00da
                           0000DB   519 _USB_HUB_ST	=	0x00db
                           0000DC   520 _UEP0_CTRL	=	0x00dc
                           0000DD   521 _UEP0_T_LEN	=	0x00dd
                           0000DE   522 _UEP4_CTRL	=	0x00de
                           0000DF   523 _UEP4_T_LEN	=	0x00df
                           0000E1   524 _USB_INT_EN	=	0x00e1
                           0000E2   525 _USB_CTRL	=	0x00e2
                           0000E3   526 _USB_DEV_AD	=	0x00e3
                           0000E4   527 _UDEV_CTRL	=	0x00e4
                           0000E5   528 _UHUB1_CTRL	=	0x00e5
                           00E7E6   529 _USB_DMA	=	0xe7e6
                           0000E6   530 _USB_DMA_AL	=	0x00e6
                           0000E7   531 _USB_DMA_AH	=	0x00e7
                                    532 ;--------------------------------------------------------
                                    533 ; special function bits
                                    534 ;--------------------------------------------------------
                                    535 	.area RSEG    (ABS,DATA)
      000000                        536 	.org 0x0000
                           0000D7   537 _CY	=	0x00d7
                           0000D6   538 _AC	=	0x00d6
                           0000D5   539 _F0	=	0x00d5
                           0000D4   540 _RS1	=	0x00d4
                           0000D3   541 _RS0	=	0x00d3
                           0000D2   542 _OV	=	0x00d2
                           0000D1   543 _F1	=	0x00d1
                           0000D0   544 _P	=	0x00d0
                           0000AF   545 _EA	=	0x00af
                           0000AE   546 _E_DIS	=	0x00ae
                           0000AD   547 _ET2	=	0x00ad
                           0000AC   548 _ES	=	0x00ac
                           0000AB   549 _ET1	=	0x00ab
                           0000AA   550 _EX1	=	0x00aa
                           0000A9   551 _ET0	=	0x00a9
                           0000A8   552 _EX0	=	0x00a8
                           0000BF   553 _PH_FLAG	=	0x00bf
                           0000BE   554 _PL_FLAG	=	0x00be
                           0000BD   555 _PT2	=	0x00bd
                           0000BC   556 _PS	=	0x00bc
                           0000BB   557 _PT1	=	0x00bb
                           0000BA   558 _PX1	=	0x00ba
                           0000B9   559 _PT0	=	0x00b9
                           0000B8   560 _PX0	=	0x00b8
                           0000EF   561 _IE_WDOG	=	0x00ef
                           0000EE   562 _IE_GPIO	=	0x00ee
                           0000ED   563 _IE_PWM1	=	0x00ed
                           0000EC   564 _IE_UART1	=	0x00ec
                           0000EB   565 _IE_ADC	=	0x00eb
                           0000EA   566 _IE_USB	=	0x00ea
                           0000E9   567 _IE_TMR3	=	0x00e9
                           0000E8   568 _IE_SPI0	=	0x00e8
                           000087   569 _UDCD	=	0x0087
                           000086   570 _URI	=	0x0086
                           000085   571 _UDSR	=	0x0085
                           000084   572 _UCTS	=	0x0084
                           000083   573 _TXD_	=	0x0083
                           000082   574 _RXD_	=	0x0082
                           000081   575 _URTS	=	0x0081
                           000080   576 _UDTR	=	0x0080
                           000097   577 _AIN7	=	0x0097
                           000096   578 _AIN6	=	0x0096
                           000095   579 _AIN5	=	0x0095
                           000094   580 _AIN4	=	0x0094
                           000093   581 _AIN3	=	0x0093
                           000092   582 _AIN2	=	0x0092
                           000091   583 _AIN1	=	0x0091
                           000090   584 _AIN0	=	0x0090
                           000097   585 _SCK	=	0x0097
                           000096   586 _MISO	=	0x0096
                           000095   587 _MOSI	=	0x0095
                           000094   588 _SCS	=	0x0094
                           000092   589 _PWM3	=	0x0092
                           000092   590 _CAP3	=	0x0092
                           000091   591 _T2EX	=	0x0091
                           000091   592 _CAP2	=	0x0091
                           000090   593 _T2	=	0x0090
                           000090   594 _CAP1	=	0x0090
                           0000A7   595 _TXD1	=	0x00a7
                           0000A7   596 _DA7	=	0x00a7
                           0000A6   597 _RXD1	=	0x00a6
                           0000A5   598 _TNOW	=	0x00a5
                           0000A5   599 _PWM2	=	0x00a5
                           0000A5   600 _T2EX_	=	0x00a5
                           0000A5   601 _CAP2_	=	0x00a5
                           0000A4   602 _PWM1	=	0x00a4
                           0000A3   603 _SCK1	=	0x00a3
                           0000A2   604 _MISO1	=	0x00a2
                           0000A1   605 _MOSI1	=	0x00a1
                           0000B7   606 _RD	=	0x00b7
                           0000B6   607 _WR	=	0x00b6
                           0000B5   608 _DA6	=	0x00b5
                           0000B5   609 _T1	=	0x00b5
                           0000B4   610 _LEDC	=	0x00b4
                           0000B4   611 _XCS0	=	0x00b4
                           0000B4   612 _T0	=	0x00b4
                           0000B3   613 _LED1	=	0x00b3
                           0000B3   614 _INT1	=	0x00b3
                           0000B2   615 _LED0	=	0x00b2
                           0000B2   616 _INT0	=	0x00b2
                           0000B1   617 _TXD	=	0x00b1
                           0000B0   618 _RXD	=	0x00b0
                           0000C7   619 _SCK_	=	0x00c7
                           0000C6   620 _SCS_	=	0x00c6
                           0000C5   621 _PWM2_	=	0x00c5
                           0000C4   622 _LED3	=	0x00c4
                           0000C4   623 _TNOW_	=	0x00c4
                           0000C4   624 _TXD1_	=	0x00c4
                           0000C3   625 _PWM1_	=	0x00c3
                           0000C2   626 _PWM3_	=	0x00c2
                           0000C2   627 _CAP3_	=	0x00c2
                           0000C0   628 _LED2	=	0x00c0
                           0000C0   629 _RXD1_	=	0x00c0
                           00008F   630 _TF1	=	0x008f
                           00008E   631 _TR1	=	0x008e
                           00008D   632 _TF0	=	0x008d
                           00008C   633 _TR0	=	0x008c
                           00008B   634 _IE1	=	0x008b
                           00008A   635 _IT1	=	0x008a
                           000089   636 _IE0	=	0x0089
                           000088   637 _IT0	=	0x0088
                           00009F   638 _SM0	=	0x009f
                           00009E   639 _SM1	=	0x009e
                           00009D   640 _SM2	=	0x009d
                           00009C   641 _REN	=	0x009c
                           00009B   642 _TB8	=	0x009b
                           00009A   643 _RB8	=	0x009a
                           000099   644 _TI	=	0x0099
                           000098   645 _RI	=	0x0098
                           0000CF   646 _TF2	=	0x00cf
                           0000CF   647 _CAP1F	=	0x00cf
                           0000CE   648 _EXF2	=	0x00ce
                           0000CD   649 _RCLK	=	0x00cd
                           0000CC   650 _TCLK	=	0x00cc
                           0000CB   651 _EXEN2	=	0x00cb
                           0000CA   652 _TR2	=	0x00ca
                           0000C9   653 _C_T2	=	0x00c9
                           0000C8   654 _CP_RL2	=	0x00c8
                           0000FF   655 _S0_FST_ACT	=	0x00ff
                           0000FE   656 _S0_IF_OV	=	0x00fe
                           0000FD   657 _S0_IF_FIRST	=	0x00fd
                           0000FC   658 _S0_IF_BYTE	=	0x00fc
                           0000FB   659 _S0_FREE	=	0x00fb
                           0000FA   660 _S0_T_FIFO	=	0x00fa
                           0000F9   661 _S0_R_FIFO1	=	0x00f9
                           0000F8   662 _S0_R_FIFO0	=	0x00f8
                           0000DF   663 _U_IS_NAK	=	0x00df
                           0000DE   664 _U_TOG_OK	=	0x00de
                           0000DD   665 _U_SIE_FREE	=	0x00dd
                           0000DC   666 _UIF_FIFO_OV	=	0x00dc
                           0000DB   667 _UIF_HST_SOF	=	0x00db
                           0000DA   668 _UIF_SUSPEND	=	0x00da
                           0000D9   669 _UIF_TRANSFER	=	0x00d9
                           0000D8   670 _UIF_DETECT	=	0x00d8
                           0000D8   671 _UIF_BUS_RST	=	0x00d8
                           000096   672 _LED	=	0x0096
                                    673 ;--------------------------------------------------------
                                    674 ; overlayable register banks
                                    675 ;--------------------------------------------------------
                                    676 	.area REG_BANK_0	(REL,OVR,DATA)
      000000                        677 	.ds 8
                                    678 ;--------------------------------------------------------
                                    679 ; internal ram data
                                    680 ;--------------------------------------------------------
                                    681 	.area DSEG    (DATA)
      000000                        682 _hostTransfer_sloc0_1_0:
      000000                        683 	.ds 2
      000002                        684 _hostTransfer_sloc1_1_0:
      000002                        685 	.ds 1
      000003                        686 _hostTransfer_sloc2_1_0:
      000003                        687 	.ds 1
      000004                        688 _hostCtrlTransfer_sloc0_1_0:
      000004                        689 	.ds 2
      000006                        690 _hostCtrlTransfer_sloc1_1_0:
      000006                        691 	.ds 2
      000008                        692 _convertStringDescriptor_sloc0_1_0:
      000008                        693 	.ds 2
      00000A                        694 _convertStringDescriptor_sloc1_1_0:
      00000A                        695 	.ds 2
      00000C                        696 _convertStringDescriptor_sloc2_1_0:
      00000C                        697 	.ds 2
      00000E                        698 _convertStringDescriptor_sloc3_1_0:
      00000E                        699 	.ds 2
      000010                        700 _pollHIDdevice_sloc0_1_0:
      000010                        701 	.ds 2
      000012                        702 _pollHIDdevice_sloc1_1_0:
      000012                        703 	.ds 1
      000013                        704 _pollHIDdevice_sloc2_1_0:
      000013                        705 	.ds 1
      000014                        706 _parseHIDDeviceReport_sloc0_1_0:
      000014                        707 	.ds 2
      000016                        708 _parseHIDDeviceReport_sloc1_1_0:
      000016                        709 	.ds 1
      000017                        710 _parseHIDDeviceReport_sloc2_1_0:
      000017                        711 	.ds 1
      000018                        712 _parseHIDDeviceReport_sloc3_1_0:
      000018                        713 	.ds 2
      00001A                        714 _parseHIDDeviceReport_sloc4_1_0:
      00001A                        715 	.ds 2
      00001C                        716 _parseHIDDeviceReport_sloc5_1_0:
      00001C                        717 	.ds 2
      00001E                        718 _parseHIDDeviceReport_sloc6_1_0:
      00001E                        719 	.ds 4
      000022                        720 _initializeRootHubConnection_sloc0_1_0:
      000022                        721 	.ds 2
      000024                        722 _initializeRootHubConnection_sloc1_1_0:
      000024                        723 	.ds 2
      000026                        724 _initializeRootHubConnection_sloc2_1_0:
      000026                        725 	.ds 1
      000027                        726 _initializeRootHubConnection_sloc3_1_0:
      000027                        727 	.ds 1
      000028                        728 _initializeRootHubConnection_sloc4_1_0:
      000028                        729 	.ds 1
      000029                        730 _initializeRootHubConnection_sloc5_1_0:
      000029                        731 	.ds 2
      00002B                        732 _initializeRootHubConnection_sloc6_1_0:
      00002B                        733 	.ds 2
      00002D                        734 _initializeRootHubConnection_sloc7_1_0:
      00002D                        735 	.ds 1
      00002E                        736 _initializeRootHubConnection_sloc8_1_0:
      00002E                        737 	.ds 2
                                    738 ;--------------------------------------------------------
                                    739 ; overlayable items in internal ram
                                    740 ;--------------------------------------------------------
                                    741 ;--------------------------------------------------------
                                    742 ; indirectly addressable internal ram data
                                    743 ;--------------------------------------------------------
                                    744 	.area ISEG    (DATA)
                                    745 ;--------------------------------------------------------
                                    746 ; absolute internal ram data
                                    747 ;--------------------------------------------------------
                                    748 	.area IABS    (ABS,DATA)
                                    749 	.area IABS    (ABS,DATA)
                                    750 ;--------------------------------------------------------
                                    751 ; bit data
                                    752 ;--------------------------------------------------------
                                    753 	.area BSEG    (BIT)
      000000                        754 _hostCtrlTransfer_sloc2_1_0:
      000000                        755 	.ds 1
                                    756 ;--------------------------------------------------------
                                    757 ; paged external ram data
                                    758 ;--------------------------------------------------------
                                    759 	.area PSEG    (PAG,XDATA)
                           002546   760 _pUEP4_1_MOD	=	0x2546
                           002547   761 _pUEP2_3_MOD	=	0x2547
                           002980   762 _pLED_STAT	=	0x2980
                           002981   763 _pLED_CTRL	=	0x2981
                           002982   764 _pLED_DATA	=	0x2982
                           002983   765 _pLED_CK_SE	=	0x2983
                           002984   766 _pLED_DMA_AH	=	0x2984
                           002985   767 _pLED_DMA_AL	=	0x2985
                           002986   768 _pLED_DMA_CN	=	0x2986
                           002988   769 _pLED_DMA_XH	=	0x2988
                           002989   770 _pLED_DMA_XL	=	0x2989
                                    771 ;--------------------------------------------------------
                                    772 ; external ram data
                                    773 ;--------------------------------------------------------
                                    774 	.area XSEG    (XDATA)
                           002446   775 _UEP4_1_MOD	=	0x2446
                           002447   776 _UEP2_3_MOD	=	0x2447
                           002448   777 _UEP0_DMA_H	=	0x2448
                           002449   778 _UEP0_DMA_L	=	0x2449
                           002548   779 _pUEP0_DMA_H	=	0x2548
                           002549   780 _pUEP0_DMA_L	=	0x2549
                           00244A   781 _UEP1_DMA_H	=	0x244a
                           00244B   782 _UEP1_DMA_L	=	0x244b
                           00254A   783 _pUEP1_DMA_H	=	0x254a
                           00254B   784 _pUEP1_DMA_L	=	0x254b
                           00244C   785 _UEP2_DMA	=	0x244c
                           00244D   786 _UEP2_DMA_L	=	0x244d
                           00244C   787 _UEP2_DMA_H	=	0x244c
                           00254C   788 _pUEP2_DMA_H	=	0x254c
                           00254D   789 _pUEP2_DMA_L	=	0x254d
                           00244E   790 _UEP3_DMA	=	0x244e
                           00244F   791 _UEP3_DMA_L	=	0x244f
                           00244E   792 _UEP3_DMA_H	=	0x244e
                           00254E   793 _pUEP3_DMA_H	=	0x254e
                           00254F   794 _pUEP3_DMA_L	=	0x254f
                           002880   795 _LED_STAT	=	0x2880
                           002881   796 _LED_CTRL	=	0x2881
                           002882   797 _LED_DATA	=	0x2882
                           002883   798 _LED_CK_SE	=	0x2883
                           002884   799 _LED_DMA_AH	=	0x2884
                           002885   800 _LED_DMA_AL	=	0x2885
                           002886   801 _LED_DMA_CN	=	0x2886
                           002888   802 _LED_DMA_XH	=	0x2888
                           002889   803 _LED_DMA_XL	=	0x2889
                           000000   804 _RxBuffer	=	0x0000
                           000100   805 _TxBuffer	=	0x0100
      000000                        806 _endpoint0Size::
      000000                        807 	.ds 1
      000001                        808 _receiveDataBuffer::
      000001                        809 	.ds 512
      000201                        810 _rootHubDevice::
      000201                        811 	.ds 6
      000207                        812 _disableRootHubPort_index_65536_49:
      000207                        813 	.ds 1
      000208                        814 _setHostUsbAddr_addr_65536_52:
      000208                        815 	.ds 1
      000209                        816 _setUsbSpeed_fullSpeed_65536_54:
      000209                        817 	.ds 1
      00020A                        818 _resetRootHubPort_rootHubIndex_65536_57:
      00020A                        819 	.ds 1
      00020B                        820 _enableRootHubPort_rootHubIndex_65536_61:
      00020B                        821 	.ds 1
      00020C                        822 _selectHubPort_PARM_2:
      00020C                        823 	.ds 1
      00020D                        824 _selectHubPort_rootHubIndex_65536_72:
      00020D                        825 	.ds 1
      00020E                        826 _hostTransfer_PARM_2:
      00020E                        827 	.ds 1
      00020F                        828 _hostTransfer_PARM_3:
      00020F                        829 	.ds 2
      000211                        830 _hostTransfer_endp_pid_65536_74:
      000211                        831 	.ds 1
      000212                        832 _hostTransfer_retries_65536_75:
      000212                        833 	.ds 2
      000214                        834 _hostCtrlTransfer_PARM_2:
      000214                        835 	.ds 3
      000217                        836 _hostCtrlTransfer_PARM_3:
      000217                        837 	.ds 2
      000219                        838 _hostCtrlTransfer_DataBuf_65536_96:
      000219                        839 	.ds 2
      00021B                        840 _hostCtrlTransfer_SetPort_65536_97:
      00021B                        841 	.ds 1
      00021C                        842 _hostCtrlTransfer_RemLen_65536_97:
      00021C                        843 	.ds 2
      00021E                        844 _hostCtrlTransfer_pBuf_65536_97:
      00021E                        845 	.ds 2
      000220                        846 _fillTxBuffer_PARM_2:
      000220                        847 	.ds 1
      000221                        848 _fillTxBuffer_data_65536_106:
      000221                        849 	.ds 2
      000223                        850 _getDeviceDescriptor_len_65536_109:
      000223                        851 	.ds 2
      000225                        852 _setUsbAddress_addr_65536_111:
      000225                        853 	.ds 1
      000226                        854 _setUsbConfig_cfg_65536_113:
      000226                        855 	.ds 1
      000227                        856 _convertStringDescriptor_PARM_2:
      000227                        857 	.ds 2
      000229                        858 _convertStringDescriptor_PARM_3:
      000229                        859 	.ds 2
      00022B                        860 _convertStringDescriptor_PARM_4:
      00022B                        861 	.ds 1
      00022C                        862 _convertStringDescriptor_usbBuffer_65536_116:
      00022C                        863 	.ds 2
      00022E                        864 _DEBUG_OUT_USB_BUFFER_usbBuffer_65536_119:
      00022E                        865 	.ds 2
      000230                        866 _getConfigurationDescriptor_len_65536_123:
      000230                        867 	.ds 2
      000232                        868 _getInterfaceDescriptor_len_65536_125:
      000232                        869 	.ds 2
      000234                        870 _HIDdevice::
      000234                        871 	.ds 64
      000274                        872 _VendorProductID::
      000274                        873 	.ds 32
      000294                        874 _resetHubDevices_hubindex_65536_126:
      000294                        875 	.ds 1
      000295                        876 _pollHIDdevice_len_65536_131:
      000295                        877 	.ds 1
      000296                        878 _parseHIDDeviceReport_PARM_2:
      000296                        879 	.ds 2
      000298                        880 _parseHIDDeviceReport_PARM_3:
      000298                        881 	.ds 1
      000299                        882 _parseHIDDeviceReport_report_65536_138:
      000299                        883 	.ds 2
      00029B                        884 _parseHIDDeviceReport_i_65536_139:
      00029B                        885 	.ds 2
      00029D                        886 _parseHIDDeviceReport_level_65536_139:
      00029D                        887 	.ds 1
      00029E                        888 _parseHIDDeviceReport_isUsageSet_65536_139:
      00029E                        889 	.ds 1
      00029F                        890 _parseHIDDeviceReport_id_131072_140:
      00029F                        891 	.ds 1
      0002A0                        892 _parseHIDDeviceReport_size_131072_140:
      0002A0                        893 	.ds 1
      0002A1                        894 _parseHIDDeviceReport_data_131072_140:
      0002A1                        895 	.ds 4
      0002A5                        896 _getHIDDeviceReport_CurrentDevive_65536_148:
      0002A5                        897 	.ds 1
      0002A6                        898 _getHIDDeviceReport_len_65536_149:
      0002A6                        899 	.ds 2
      0002A8                        900 _readInterface_PARM_2:
      0002A8                        901 	.ds 2
      0002AA                        902 _readHIDInterface_PARM_2:
      0002AA                        903 	.ds 2
      0002AC                        904 _readHIDInterface_interface_65536_154:
      0002AC                        905 	.ds 2
      0002AE                        906 _initializeRootHubConnection_rootHubIndex_65536_158:
      0002AE                        907 	.ds 1
      0002AF                        908 _initializeRootHubConnection_s_65536_159:
      0002AF                        909 	.ds 1
      0002B0                        910 _initializeRootHubConnection_i_458753_170:
      0002B0                        911 	.ds 2
      0002B2                        912 _initializeRootHubConnection_temp_458753_170:
      0002B2                        913 	.ds 512
      0004B2                        914 _initializeRootHubConnection_currentInterface_458753_170:
      0004B2                        915 	.ds 2
      0004B4                        916 _initializeRootHubConnection_desc_524289_174:
      0004B4                        917 	.ds 2
      0004B6                        918 _checkRootHubConnections_s_65536_180:
      0004B6                        919 	.ds 1
                                    920 ;--------------------------------------------------------
                                    921 ; absolute external ram data
                                    922 ;--------------------------------------------------------
                                    923 	.area XABS    (ABS,XDATA)
                                    924 ;--------------------------------------------------------
                                    925 ; external initialized ram data
                                    926 ;--------------------------------------------------------
                                    927 	.area XISEG   (XDATA)
                                    928 	.area HOME    (CODE)
                                    929 	.area GSINIT0 (CODE)
                                    930 	.area GSINIT1 (CODE)
                                    931 	.area GSINIT2 (CODE)
                                    932 	.area GSINIT3 (CODE)
                                    933 	.area GSINIT4 (CODE)
                                    934 	.area GSINIT5 (CODE)
                                    935 	.area GSINIT  (CODE)
                                    936 	.area GSFINAL (CODE)
                                    937 	.area CSEG    (CODE)
                                    938 ;--------------------------------------------------------
                                    939 ; global & static initialisations
                                    940 ;--------------------------------------------------------
                                    941 	.area HOME    (CODE)
                                    942 	.area GSINIT  (CODE)
                                    943 	.area GSFINAL (CODE)
                                    944 	.area GSINIT  (CODE)
                                    945 ;------------------------------------------------------------
                                    946 ;Allocation info for local variables in function 'hostCtrlTransfer'
                                    947 ;------------------------------------------------------------
                                    948 ;sloc0                     Allocated with name '_hostCtrlTransfer_sloc0_1_0'
                                    949 ;sloc1                     Allocated with name '_hostCtrlTransfer_sloc1_1_0'
                                    950 ;RetLen                    Allocated with name '_hostCtrlTransfer_PARM_2'
                                    951 ;maxLenght                 Allocated with name '_hostCtrlTransfer_PARM_3'
                                    952 ;DataBuf                   Allocated with name '_hostCtrlTransfer_DataBuf_65536_96'
                                    953 ;SetPort                   Allocated with name '_hostCtrlTransfer_SetPort_65536_97'
                                    954 ;temp                      Allocated with name '_hostCtrlTransfer_temp_65536_97'
                                    955 ;RemLen                    Allocated with name '_hostCtrlTransfer_RemLen_65536_97'
                                    956 ;s                         Allocated with name '_hostCtrlTransfer_s_65536_97'
                                    957 ;RxLen                     Allocated with name '_hostCtrlTransfer_RxLen_65536_97'
                                    958 ;i                         Allocated with name '_hostCtrlTransfer_i_65536_97'
                                    959 ;pBuf                      Allocated with name '_hostCtrlTransfer_pBuf_65536_97'
                                    960 ;pLen                      Allocated with name '_hostCtrlTransfer_pLen_65536_97'
                                    961 ;pSetupReq                 Allocated with name '_hostCtrlTransfer_pSetupReq_65537_98'
                                    962 ;------------------------------------------------------------
                                    963 ;	USBHost.c:257: static unsigned char SetPort = 0;
      000000 90r02r1B         [24]  964 	mov	dptr,#_hostCtrlTransfer_SetPort_65536_97
      000003 E4               [12]  965 	clr	a
      000004 F0               [24]  966 	movx	@dptr,a
                                    967 ;--------------------------------------------------------
                                    968 ; Home
                                    969 ;--------------------------------------------------------
                                    970 	.area HOME    (CODE)
                                    971 	.area HOME    (CODE)
                                    972 ;--------------------------------------------------------
                                    973 ; code
                                    974 ;--------------------------------------------------------
                                    975 	.area CSEG    (CODE)
                                    976 ;------------------------------------------------------------
                                    977 ;Allocation info for local variables in function 'disableRootHubPort'
                                    978 ;------------------------------------------------------------
                                    979 ;index                     Allocated with name '_disableRootHubPort_index_65536_49'
                                    980 ;------------------------------------------------------------
                                    981 ;	USBHost.c:39: void disableRootHubPort(unsigned char index)
                                    982 ;	-----------------------------------------
                                    983 ;	 function disableRootHubPort
                                    984 ;	-----------------------------------------
      000000                        985 _disableRootHubPort:
                           000007   986 	ar7 = 0x07
                           000006   987 	ar6 = 0x06
                           000005   988 	ar5 = 0x05
                           000004   989 	ar4 = 0x04
                           000003   990 	ar3 = 0x03
                           000002   991 	ar2 = 0x02
                           000001   992 	ar1 = 0x01
                           000000   993 	ar0 = 0x00
      000000 E5 82            [12]  994 	mov	a,dpl
      000002 90r02r07         [24]  995 	mov	dptr,#_disableRootHubPort_index_65536_49
      000005 F0               [24]  996 	movx	@dptr,a
                                    997 ;	USBHost.c:41: rootHubDevice[index].status = ROOT_DEVICE_DISCONNECT;
      000006 E0               [24]  998 	movx	a,@dptr
      000007 FF               [12]  999 	mov	r7,a
      000008 75 F0 03         [24] 1000 	mov	b,#0x03
      00000B A4               [48] 1001 	mul	ab
      00000C FD               [12] 1002 	mov	r5,a
      00000D AE F0            [24] 1003 	mov	r6,b
      00000F 24r01            [12] 1004 	add	a,#_rootHubDevice
      000011 F5 82            [12] 1005 	mov	dpl,a
      000013 EE               [12] 1006 	mov	a,r6
      000014 34s02            [12] 1007 	addc	a,#(_rootHubDevice >> 8)
      000016 F5 83            [12] 1008 	mov	dph,a
      000018 E4               [12] 1009 	clr	a
      000019 F0               [24] 1010 	movx	@dptr,a
                                   1011 ;	USBHost.c:42: rootHubDevice[index].address = 0;
      00001A ED               [12] 1012 	mov	a,r5
      00001B 24r01            [12] 1013 	add	a,#_rootHubDevice
      00001D FD               [12] 1014 	mov	r5,a
      00001E EE               [12] 1015 	mov	a,r6
      00001F 34s02            [12] 1016 	addc	a,#(_rootHubDevice >> 8)
      000021 FE               [12] 1017 	mov	r6,a
      000022 8D 82            [24] 1018 	mov	dpl,r5
      000024 8E 83            [24] 1019 	mov	dph,r6
      000026 A3               [24] 1020 	inc	dptr
      000027 E4               [12] 1021 	clr	a
      000028 F0               [24] 1022 	movx	@dptr,a
                                   1023 ;	USBHost.c:43: if (index)
      000029 EF               [12] 1024 	mov	a,r7
      00002A 60 04            [24] 1025 	jz	00102$
                                   1026 ;	USBHost.c:44: UHUB1_CTRL = 0;
      00002C 75 E5 00         [24] 1027 	mov	_UHUB1_CTRL,#0x00
      00002F 22               [24] 1028 	ret
      000030                       1029 00102$:
                                   1030 ;	USBHost.c:46: UHUB0_CTRL = 0;
      000030 75 E4 00         [24] 1031 	mov	_UDEV_CTRL,#0x00
                                   1032 ;	USBHost.c:47: }
      000033 22               [24] 1033 	ret
                                   1034 ;------------------------------------------------------------
                                   1035 ;Allocation info for local variables in function 'initUSB_Host'
                                   1036 ;------------------------------------------------------------
                                   1037 ;	USBHost.c:49: void initUSB_Host()
                                   1038 ;	-----------------------------------------
                                   1039 ;	 function initUSB_Host
                                   1040 ;	-----------------------------------------
      000034                       1041 _initUSB_Host:
                                   1042 ;	USBHost.c:51: IE_USB = 0;
                                   1043 ;	assignBit
      000034 C2 EA            [12] 1044 	clr	_IE_USB
                                   1045 ;	USBHost.c:52: USB_CTRL = bUC_HOST_MODE;
      000036 75 E2 80         [24] 1046 	mov	_USB_CTRL,#0x80
                                   1047 ;	USBHost.c:53: USB_DEV_AD = 0x00;
      000039 75 E3 00         [24] 1048 	mov	_USB_DEV_AD,#0x00
                                   1049 ;	USBHost.c:54: UH_EP_MOD = bUH_EP_TX_EN | bUH_EP_RX_EN ;
      00003C 90 24 47         [24] 1050 	mov	dptr,#_UEP2_3_MOD
      00003F 74 48            [12] 1051 	mov	a,#0x48
      000041 F0               [24] 1052 	movx	@dptr,a
                                   1053 ;	USBHost.c:55: UH_RX_DMA = 0x0000;
      000042 90 24 4C         [24] 1054 	mov	dptr,#_UEP2_DMA
      000045 E4               [12] 1055 	clr	a
      000046 F0               [24] 1056 	movx	@dptr,a
      000047 A3               [24] 1057 	inc	dptr
      000048 F0               [24] 1058 	movx	@dptr,a
                                   1059 ;	USBHost.c:56: UH_TX_DMA = 0x0001;
      000049 90 24 4E         [24] 1060 	mov	dptr,#_UEP3_DMA
      00004C 04               [12] 1061 	inc	a
      00004D F0               [24] 1062 	movx	@dptr,a
      00004E E4               [12] 1063 	clr	a
      00004F A3               [24] 1064 	inc	dptr
      000050 F0               [24] 1065 	movx	@dptr,a
                                   1066 ;	USBHost.c:57: UH_RX_CTRL = 0x00;
                                   1067 ;	1-genFromRTrack replaced	mov	_UEP2_CTRL,#0x00
      000051 F5 D4            [12] 1068 	mov	_UEP2_CTRL,a
                                   1069 ;	USBHost.c:58: UH_TX_CTRL = 0x00;
                                   1070 ;	1-genFromRTrack replaced	mov	_UEP3_CTRL,#0x00
      000053 F5 D6            [12] 1071 	mov	_UEP3_CTRL,a
                                   1072 ;	USBHost.c:59: USB_CTRL = bUC_HOST_MODE | bUC_INT_BUSY | bUC_DMA_EN;
      000055 75 E2 89         [24] 1073 	mov	_USB_CTRL,#0x89
                                   1074 ;	USBHost.c:60: UH_SETUP = bUH_SOF_EN;
      000058 75 D2 40         [24] 1075 	mov	_UEP1_CTRL,#0x40
                                   1076 ;	USBHost.c:61: USB_INT_FG = 0xFF;
      00005B 75 D8 FF         [24] 1077 	mov	_USB_INT_FG,#0xff
                                   1078 ;	USBHost.c:63: disableRootHubPort(0);
      00005E 75 82 00         [24] 1079 	mov	dpl,#0x00
      000061 12r00r00         [24] 1080 	lcall	_disableRootHubPort
                                   1081 ;	USBHost.c:64: disableRootHubPort(1);
      000064 75 82 01         [24] 1082 	mov	dpl,#0x01
      000067 12r00r00         [24] 1083 	lcall	_disableRootHubPort
                                   1084 ;	USBHost.c:65: USB_INT_EN = bUIE_TRANSFER | bUIE_DETECT;
      00006A 75 E1 03         [24] 1085 	mov	_USB_INT_EN,#0x03
                                   1086 ;	USBHost.c:66: }
      00006D 22               [24] 1087 	ret
                                   1088 ;------------------------------------------------------------
                                   1089 ;Allocation info for local variables in function 'setHostUsbAddr'
                                   1090 ;------------------------------------------------------------
                                   1091 ;addr                      Allocated with name '_setHostUsbAddr_addr_65536_52'
                                   1092 ;------------------------------------------------------------
                                   1093 ;	USBHost.c:68: void setHostUsbAddr(unsigned char addr)
                                   1094 ;	-----------------------------------------
                                   1095 ;	 function setHostUsbAddr
                                   1096 ;	-----------------------------------------
      00006E                       1097 _setHostUsbAddr:
      00006E E5 82            [12] 1098 	mov	a,dpl
      000070 90r02r08         [24] 1099 	mov	dptr,#_setHostUsbAddr_addr_65536_52
      000073 F0               [24] 1100 	movx	@dptr,a
                                   1101 ;	USBHost.c:70: USB_DEV_AD = USB_DEV_AD & bUDA_GP_BIT | addr & 0x7F;
      000074 E5 E3            [12] 1102 	mov	a,_USB_DEV_AD
      000076 54 80            [12] 1103 	anl	a,#0x80
      000078 FF               [12] 1104 	mov	r7,a
      000079 E0               [24] 1105 	movx	a,@dptr
      00007A 54 7F            [12] 1106 	anl	a,#0x7f
      00007C 4F               [12] 1107 	orl	a,r7
      00007D F5 E3            [12] 1108 	mov	_USB_DEV_AD,a
                                   1109 ;	USBHost.c:71: }
      00007F 22               [24] 1110 	ret
                                   1111 ;------------------------------------------------------------
                                   1112 ;Allocation info for local variables in function 'setUsbSpeed'
                                   1113 ;------------------------------------------------------------
                                   1114 ;fullSpeed                 Allocated with name '_setUsbSpeed_fullSpeed_65536_54'
                                   1115 ;------------------------------------------------------------
                                   1116 ;	USBHost.c:73: void setUsbSpeed(unsigned char fullSpeed)
                                   1117 ;	-----------------------------------------
                                   1118 ;	 function setUsbSpeed
                                   1119 ;	-----------------------------------------
      000080                       1120 _setUsbSpeed:
      000080 E5 82            [12] 1121 	mov	a,dpl
      000082 90r02r09         [24] 1122 	mov	dptr,#_setUsbSpeed_fullSpeed_65536_54
      000085 F0               [24] 1123 	movx	@dptr,a
                                   1124 ;	USBHost.c:75: if (fullSpeed)
      000086 E0               [24] 1125 	movx	a,@dptr
      000087 60 07            [24] 1126 	jz	00102$
                                   1127 ;	USBHost.c:77: USB_CTRL &= ~ bUC_LOW_SPEED;
      000089 53 E2 BF         [24] 1128 	anl	_USB_CTRL,#0xbf
                                   1129 ;	USBHost.c:78: UH_SETUP &= ~ bUH_PRE_PID_EN;
      00008C 53 D2 7F         [24] 1130 	anl	_UEP1_CTRL,#0x7f
      00008F 22               [24] 1131 	ret
      000090                       1132 00102$:
                                   1133 ;	USBHost.c:81: USB_CTRL |= bUC_LOW_SPEED;
      000090 43 E2 40         [24] 1134 	orl	_USB_CTRL,#0x40
                                   1135 ;	USBHost.c:82: }
      000093 22               [24] 1136 	ret
                                   1137 ;------------------------------------------------------------
                                   1138 ;Allocation info for local variables in function 'resetRootHubPort'
                                   1139 ;------------------------------------------------------------
                                   1140 ;rootHubIndex              Allocated with name '_resetRootHubPort_rootHubIndex_65536_57'
                                   1141 ;------------------------------------------------------------
                                   1142 ;	USBHost.c:84: void resetRootHubPort(unsigned char rootHubIndex)
                                   1143 ;	-----------------------------------------
                                   1144 ;	 function resetRootHubPort
                                   1145 ;	-----------------------------------------
      000094                       1146 _resetRootHubPort:
      000094 E5 82            [12] 1147 	mov	a,dpl
      000096 90r02r0A         [24] 1148 	mov	dptr,#_resetRootHubPort_rootHubIndex_65536_57
      000099 F0               [24] 1149 	movx	@dptr,a
                                   1150 ;	USBHost.c:86: endpoint0Size = DEFAULT_ENDP0_SIZE; //todo what's that?                    
      00009A 90r00r00         [24] 1151 	mov	dptr,#_endpoint0Size
      00009D 74 08            [12] 1152 	mov	a,#0x08
      00009F F0               [24] 1153 	movx	@dptr,a
                                   1154 ;	USBHost.c:87: setHostUsbAddr(0);
      0000A0 75 82 00         [24] 1155 	mov	dpl,#0x00
      0000A3 12r00r6E         [24] 1156 	lcall	_setHostUsbAddr
                                   1157 ;	USBHost.c:88: setUsbSpeed(1);
      0000A6 75 82 01         [24] 1158 	mov	dpl,#0x01
      0000A9 12r00r80         [24] 1159 	lcall	_setUsbSpeed
                                   1160 ;	USBHost.c:89: if (rootHubIndex == 0)    
      0000AC 90r02r0A         [24] 1161 	mov	dptr,#_resetRootHubPort_rootHubIndex_65536_57
      0000AF E0               [24] 1162 	movx	a,@dptr
      0000B0 FF               [12] 1163 	mov	r7,a
      0000B1 E0               [24] 1164 	movx	a,@dptr
      0000B2 70 13            [24] 1165 	jnz	00104$
                                   1166 ;	USBHost.c:91: UHUB0_CTRL = UHUB0_CTRL & ~ bUH_LOW_SPEED | bUH_BUS_RESET;
      0000B4 74 FB            [12] 1167 	mov	a,#0xfb
      0000B6 55 E4            [12] 1168 	anl	a,_UDEV_CTRL
      0000B8 44 02            [12] 1169 	orl	a,#0x02
      0000BA F5 E4            [12] 1170 	mov	_UDEV_CTRL,a
                                   1171 ;	USBHost.c:92: delay(15);
      0000BC 90 00 0F         [24] 1172 	mov	dptr,#0x000f
      0000BF 12r00r00         [24] 1173 	lcall	_delay
                                   1174 ;	USBHost.c:93: UHUB0_CTRL = UHUB0_CTRL & ~ bUH_BUS_RESET;
      0000C2 53 E4 FD         [24] 1175 	anl	_UDEV_CTRL,#0xfd
      0000C5 80 14            [24] 1176 	sjmp	00105$
      0000C7                       1177 00104$:
                                   1178 ;	USBHost.c:95: else if (rootHubIndex == 1)
      0000C7 BF 01 11         [24] 1179 	cjne	r7,#0x01,00105$
                                   1180 ;	USBHost.c:97: UHUB1_CTRL = UHUB1_CTRL & ~ bUH_LOW_SPEED | bUH_BUS_RESET;
      0000CA 74 FB            [12] 1181 	mov	a,#0xfb
      0000CC 55 E5            [12] 1182 	anl	a,_UHUB1_CTRL
      0000CE 44 02            [12] 1183 	orl	a,#0x02
      0000D0 F5 E5            [12] 1184 	mov	_UHUB1_CTRL,a
                                   1185 ;	USBHost.c:98: delay(15);
      0000D2 90 00 0F         [24] 1186 	mov	dptr,#0x000f
      0000D5 12r00r00         [24] 1187 	lcall	_delay
                                   1188 ;	USBHost.c:99: UHUB1_CTRL = UHUB1_CTRL & ~ bUH_BUS_RESET;
      0000D8 53 E5 FD         [24] 1189 	anl	_UHUB1_CTRL,#0xfd
      0000DB                       1190 00105$:
                                   1191 ;	USBHost.c:101: delayUs(250);
      0000DB 90 00 FA         [24] 1192 	mov	dptr,#0x00fa
      0000DE 12r00r00         [24] 1193 	lcall	_delayUs
                                   1194 ;	USBHost.c:102: UIF_DETECT = 0; //todo test if redundant                                       
                                   1195 ;	assignBit
      0000E1 C2 D8            [12] 1196 	clr	_UIF_DETECT
                                   1197 ;	USBHost.c:103: }
      0000E3 22               [24] 1198 	ret
                                   1199 ;------------------------------------------------------------
                                   1200 ;Allocation info for local variables in function 'enableRootHubPort'
                                   1201 ;------------------------------------------------------------
                                   1202 ;rootHubIndex              Allocated with name '_enableRootHubPort_rootHubIndex_65536_61'
                                   1203 ;------------------------------------------------------------
                                   1204 ;	USBHost.c:105: unsigned char enableRootHubPort(unsigned char rootHubIndex)
                                   1205 ;	-----------------------------------------
                                   1206 ;	 function enableRootHubPort
                                   1207 ;	-----------------------------------------
      0000E4                       1208 _enableRootHubPort:
      0000E4 E5 82            [12] 1209 	mov	a,dpl
      0000E6 90r02r0B         [24] 1210 	mov	dptr,#_enableRootHubPort_rootHubIndex_65536_61
      0000E9 F0               [24] 1211 	movx	@dptr,a
                                   1212 ;	USBHost.c:107: if ( rootHubDevice[ rootHubIndex ].status < 1 )
      0000EA E0               [24] 1213 	movx	a,@dptr
      0000EB 75 F0 03         [24] 1214 	mov	b,#0x03
      0000EE A4               [48] 1215 	mul	ab
      0000EF 24r01            [12] 1216 	add	a,#_rootHubDevice
      0000F1 FE               [12] 1217 	mov	r6,a
      0000F2 74s02            [12] 1218 	mov	a,#(_rootHubDevice >> 8)
      0000F4 35 F0            [12] 1219 	addc	a,b
      0000F6 FF               [12] 1220 	mov	r7,a
      0000F7 8E 82            [24] 1221 	mov	dpl,r6
      0000F9 8F 83            [24] 1222 	mov	dph,r7
      0000FB E0               [24] 1223 	movx	a,@dptr
      0000FC FD               [12] 1224 	mov	r5,a
      0000FD BD 01 00         [24] 1225 	cjne	r5,#0x01,00160$
      000100                       1226 00160$:
      000100 50 07            [24] 1227 	jnc	00102$
                                   1228 ;	USBHost.c:109: rootHubDevice[ rootHubIndex ].status = 1;
      000102 8E 82            [24] 1229 	mov	dpl,r6
      000104 8F 83            [24] 1230 	mov	dph,r7
      000106 74 01            [12] 1231 	mov	a,#0x01
      000108 F0               [24] 1232 	movx	@dptr,a
      000109                       1233 00102$:
                                   1234 ;	USBHost.c:111: if (rootHubIndex == 0)
      000109 90r02r0B         [24] 1235 	mov	dptr,#_enableRootHubPort_rootHubIndex_65536_61
      00010C E0               [24] 1236 	movx	a,@dptr
      00010D FF               [12] 1237 	mov	r7,a
      00010E 70 49            [24] 1238 	jnz	00120$
                                   1239 ;	USBHost.c:113: if (USB_HUB_ST & bUHS_H0_ATTACH)
      000110 E5 DB            [12] 1240 	mov	a,_USB_HUB_ST
      000112 20 E3 03         [24] 1241 	jb	acc.3,00163$
      000115 02r01rA2         [24] 1242 	ljmp	00121$
      000118                       1243 00163$:
                                   1244 ;	USBHost.c:115: if ((UHUB0_CTRL & bUH_PORT_EN) == 0x00)
      000118 E5 E4            [12] 1245 	mov	a,_UDEV_CTRL
      00011A 20 E0 35         [24] 1246 	jb	acc.0,00107$
                                   1247 ;	USBHost.c:117: if (USB_HUB_ST & bUHS_DM_LEVEL)
      00011D E5 DB            [12] 1248 	mov	a,_USB_HUB_ST
      00011F 30 E2 1A         [24] 1249 	jnb	acc.2,00104$
                                   1250 ;	USBHost.c:119: rootHubDevice[rootHubIndex].speed = 0;
      000122 EF               [12] 1251 	mov	a,r7
      000123 75 F0 03         [24] 1252 	mov	b,#0x03
      000126 A4               [48] 1253 	mul	ab
      000127 24r01            [12] 1254 	add	a,#_rootHubDevice
      000129 FD               [12] 1255 	mov	r5,a
      00012A 74s02            [12] 1256 	mov	a,#(_rootHubDevice >> 8)
      00012C 35 F0            [12] 1257 	addc	a,b
      00012E FE               [12] 1258 	mov	r6,a
      00012F 8D 82            [24] 1259 	mov	dpl,r5
      000131 8E 83            [24] 1260 	mov	dph,r6
      000133 A3               [24] 1261 	inc	dptr
      000134 A3               [24] 1262 	inc	dptr
      000135 E4               [12] 1263 	clr	a
      000136 F0               [24] 1264 	movx	@dptr,a
                                   1265 ;	USBHost.c:120: UHUB0_CTRL |= bUH_LOW_SPEED;
      000137 43 E4 04         [24] 1266 	orl	_UDEV_CTRL,#0x04
      00013A 80 16            [24] 1267 	sjmp	00107$
      00013C                       1268 00104$:
                                   1269 ;	USBHost.c:122: else rootHubDevice[rootHubIndex].speed = 1;
      00013C EF               [12] 1270 	mov	a,r7
      00013D 75 F0 03         [24] 1271 	mov	b,#0x03
      000140 A4               [48] 1272 	mul	ab
      000141 24r01            [12] 1273 	add	a,#_rootHubDevice
      000143 FD               [12] 1274 	mov	r5,a
      000144 74s02            [12] 1275 	mov	a,#(_rootHubDevice >> 8)
      000146 35 F0            [12] 1276 	addc	a,b
      000148 FE               [12] 1277 	mov	r6,a
      000149 8D 82            [24] 1278 	mov	dpl,r5
      00014B 8E 83            [24] 1279 	mov	dph,r6
      00014D A3               [24] 1280 	inc	dptr
      00014E A3               [24] 1281 	inc	dptr
      00014F 74 01            [12] 1282 	mov	a,#0x01
      000151 F0               [24] 1283 	movx	@dptr,a
      000152                       1284 00107$:
                                   1285 ;	USBHost.c:124: UHUB0_CTRL |= bUH_PORT_EN;
      000152 43 E4 01         [24] 1286 	orl	_UDEV_CTRL,#0x01
                                   1287 ;	USBHost.c:125: return ERR_SUCCESS;
      000155 75 82 00         [24] 1288 	mov	dpl,#0x00
      000158 22               [24] 1289 	ret
      000159                       1290 00120$:
                                   1291 ;	USBHost.c:128: else if (rootHubIndex == 1)
      000159 BF 01 46         [24] 1292 	cjne	r7,#0x01,00121$
                                   1293 ;	USBHost.c:130: if (USB_HUB_ST & bUHS_H1_ATTACH)
      00015C E5 DB            [12] 1294 	mov	a,_USB_HUB_ST
      00015E 30 E7 41         [24] 1295 	jnb	acc.7,00121$
                                   1296 ;	USBHost.c:132: if ((UHUB1_CTRL & bUH_PORT_EN ) == 0x00)
      000161 E5 E5            [12] 1297 	mov	a,_UHUB1_CTRL
      000163 20 E0 35         [24] 1298 	jb	acc.0,00114$
                                   1299 ;	USBHost.c:134: if (USB_HUB_ST & bUHS_HM_LEVEL)
      000166 E5 DB            [12] 1300 	mov	a,_USB_HUB_ST
      000168 30 E6 1A         [24] 1301 	jnb	acc.6,00111$
                                   1302 ;	USBHost.c:136: rootHubDevice[rootHubIndex].speed = 0;
      00016B EF               [12] 1303 	mov	a,r7
      00016C 75 F0 03         [24] 1304 	mov	b,#0x03
      00016F A4               [48] 1305 	mul	ab
      000170 24r01            [12] 1306 	add	a,#_rootHubDevice
      000172 FD               [12] 1307 	mov	r5,a
      000173 74s02            [12] 1308 	mov	a,#(_rootHubDevice >> 8)
      000175 35 F0            [12] 1309 	addc	a,b
      000177 FE               [12] 1310 	mov	r6,a
      000178 8D 82            [24] 1311 	mov	dpl,r5
      00017A 8E 83            [24] 1312 	mov	dph,r6
      00017C A3               [24] 1313 	inc	dptr
      00017D A3               [24] 1314 	inc	dptr
      00017E E4               [12] 1315 	clr	a
      00017F F0               [24] 1316 	movx	@dptr,a
                                   1317 ;	USBHost.c:137: UHUB1_CTRL |= bUH_LOW_SPEED;
      000180 43 E5 04         [24] 1318 	orl	_UHUB1_CTRL,#0x04
      000183 80 16            [24] 1319 	sjmp	00114$
      000185                       1320 00111$:
                                   1321 ;	USBHost.c:139: else rootHubDevice[rootHubIndex].speed = 1;
      000185 EF               [12] 1322 	mov	a,r7
      000186 75 F0 03         [24] 1323 	mov	b,#0x03
      000189 A4               [48] 1324 	mul	ab
      00018A 24r01            [12] 1325 	add	a,#_rootHubDevice
      00018C FE               [12] 1326 	mov	r6,a
      00018D 74s02            [12] 1327 	mov	a,#(_rootHubDevice >> 8)
      00018F 35 F0            [12] 1328 	addc	a,b
      000191 FF               [12] 1329 	mov	r7,a
      000192 8E 82            [24] 1330 	mov	dpl,r6
      000194 8F 83            [24] 1331 	mov	dph,r7
      000196 A3               [24] 1332 	inc	dptr
      000197 A3               [24] 1333 	inc	dptr
      000198 74 01            [12] 1334 	mov	a,#0x01
      00019A F0               [24] 1335 	movx	@dptr,a
      00019B                       1336 00114$:
                                   1337 ;	USBHost.c:141: UHUB1_CTRL |= bUH_PORT_EN;
      00019B 43 E5 01         [24] 1338 	orl	_UHUB1_CTRL,#0x01
                                   1339 ;	USBHost.c:142: return ERR_SUCCESS;
      00019E 75 82 00         [24] 1340 	mov	dpl,#0x00
      0001A1 22               [24] 1341 	ret
      0001A2                       1342 00121$:
                                   1343 ;	USBHost.c:145: return ERR_USB_DISCON;
      0001A2 75 82 16         [24] 1344 	mov	dpl,#0x16
                                   1345 ;	USBHost.c:146: }
      0001A5 22               [24] 1346 	ret
                                   1347 ;------------------------------------------------------------
                                   1348 ;Allocation info for local variables in function 'selectHubPort'
                                   1349 ;------------------------------------------------------------
                                   1350 ;HubPortIndex              Allocated with name '_selectHubPort_PARM_2'
                                   1351 ;rootHubIndex              Allocated with name '_selectHubPort_rootHubIndex_65536_72'
                                   1352 ;temp                      Allocated with name '_selectHubPort_temp_65536_73'
                                   1353 ;------------------------------------------------------------
                                   1354 ;	USBHost.c:148: void selectHubPort(unsigned char rootHubIndex, unsigned char HubPortIndex)
                                   1355 ;	-----------------------------------------
                                   1356 ;	 function selectHubPort
                                   1357 ;	-----------------------------------------
      0001A6                       1358 _selectHubPort:
      0001A6 E5 82            [12] 1359 	mov	a,dpl
      0001A8 90r02r0D         [24] 1360 	mov	dptr,#_selectHubPort_rootHubIndex_65536_72
      0001AB F0               [24] 1361 	movx	@dptr,a
                                   1362 ;	USBHost.c:151: setHostUsbAddr(rootHubDevice[rootHubIndex].address); //todo ever != 0
      0001AC E0               [24] 1363 	movx	a,@dptr
      0001AD 75 F0 03         [24] 1364 	mov	b,#0x03
      0001B0 A4               [48] 1365 	mul	ab
      0001B1 24r01            [12] 1366 	add	a,#_rootHubDevice
      0001B3 FE               [12] 1367 	mov	r6,a
      0001B4 74s02            [12] 1368 	mov	a,#(_rootHubDevice >> 8)
      0001B6 35 F0            [12] 1369 	addc	a,b
      0001B8 FF               [12] 1370 	mov	r7,a
      0001B9 8E 82            [24] 1371 	mov	dpl,r6
      0001BB 8F 83            [24] 1372 	mov	dph,r7
      0001BD A3               [24] 1373 	inc	dptr
      0001BE E0               [24] 1374 	movx	a,@dptr
      0001BF F5 82            [12] 1375 	mov	dpl,a
      0001C1 C0 07            [24] 1376 	push	ar7
      0001C3 C0 06            [24] 1377 	push	ar6
      0001C5 12r00r6E         [24] 1378 	lcall	_setHostUsbAddr
      0001C8 D0 06            [24] 1379 	pop	ar6
      0001CA D0 07            [24] 1380 	pop	ar7
                                   1381 ;	USBHost.c:152: setUsbSpeed(rootHubDevice[rootHubIndex].speed); //isn't that set before?
      0001CC 8E 82            [24] 1382 	mov	dpl,r6
      0001CE 8F 83            [24] 1383 	mov	dph,r7
      0001D0 A3               [24] 1384 	inc	dptr
      0001D1 A3               [24] 1385 	inc	dptr
      0001D2 E0               [24] 1386 	movx	a,@dptr
      0001D3 F5 82            [12] 1387 	mov	dpl,a
                                   1388 ;	USBHost.c:153: }
      0001D5 02r00r80         [24] 1389 	ljmp	_setUsbSpeed
                                   1390 ;------------------------------------------------------------
                                   1391 ;Allocation info for local variables in function 'hostTransfer'
                                   1392 ;------------------------------------------------------------
                                   1393 ;sloc0                     Allocated with name '_hostTransfer_sloc0_1_0'
                                   1394 ;sloc1                     Allocated with name '_hostTransfer_sloc1_1_0'
                                   1395 ;sloc2                     Allocated with name '_hostTransfer_sloc2_1_0'
                                   1396 ;tog                       Allocated with name '_hostTransfer_PARM_2'
                                   1397 ;timeout                   Allocated with name '_hostTransfer_PARM_3'
                                   1398 ;endp_pid                  Allocated with name '_hostTransfer_endp_pid_65536_74'
                                   1399 ;retries                   Allocated with name '_hostTransfer_retries_65536_75'
                                   1400 ;r                         Allocated with name '_hostTransfer_r_65536_75'
                                   1401 ;i                         Allocated with name '_hostTransfer_i_65536_75'
                                   1402 ;------------------------------------------------------------
                                   1403 ;	USBHost.c:155: unsigned char hostTransfer(unsigned char endp_pid, unsigned char tog, unsigned short timeout )
                                   1404 ;	-----------------------------------------
                                   1405 ;	 function hostTransfer
                                   1406 ;	-----------------------------------------
      0001D8                       1407 _hostTransfer:
      0001D8 E5 82            [12] 1408 	mov	a,dpl
      0001DA 90r02r11         [24] 1409 	mov	dptr,#_hostTransfer_endp_pid_65536_74
      0001DD F0               [24] 1410 	movx	@dptr,a
                                   1411 ;	USBHost.c:160: UH_RX_CTRL = tog;
      0001DE 90r02r0E         [24] 1412 	mov	dptr,#_hostTransfer_PARM_2
      0001E1 E0               [24] 1413 	movx	a,@dptr
      0001E2 FF               [12] 1414 	mov	r7,a
      0001E3 8F D4            [24] 1415 	mov	_UEP2_CTRL,r7
                                   1416 ;	USBHost.c:161: UH_TX_CTRL = tog;
      0001E5 8F D6            [24] 1417 	mov	_UEP3_CTRL,r7
                                   1418 ;	USBHost.c:162: retries = 0;
      0001E7 90r02r12         [24] 1419 	mov	dptr,#_hostTransfer_retries_65536_75
      0001EA E4               [12] 1420 	clr	a
      0001EB F0               [24] 1421 	movx	@dptr,a
      0001EC A3               [24] 1422 	inc	dptr
      0001ED F0               [24] 1423 	movx	@dptr,a
                                   1424 ;	USBHost.c:163: do
      0001EE 90r02r11         [24] 1425 	mov	dptr,#_hostTransfer_endp_pid_65536_74
      0001F1 E0               [24] 1426 	movx	a,@dptr
      0001F2 FE               [12] 1427 	mov	r6,a
      0001F3 C4               [12] 1428 	swap	a
      0001F4 54 0F            [12] 1429 	anl	a,#0x0f
      0001F6 FD               [12] 1430 	mov	r5,a
      0001F7 BD 01 03         [24] 1431 	cjne	r5,#0x01,00257$
      0001FA ED               [12] 1432 	mov	a,r5
      0001FB 80 01            [24] 1433 	sjmp	00258$
      0001FD                       1434 00257$:
      0001FD E4               [12] 1435 	clr	a
      0001FE                       1436 00258$:
      0001FE F5*03            [12] 1437 	mov	_hostTransfer_sloc2_1_0,a
      000200 E4               [12] 1438 	clr	a
      000201 BD 09 01         [24] 1439 	cjne	r5,#0x09,00259$
      000204 04               [12] 1440 	inc	a
      000205                       1441 00259$:
      000205 FB               [12] 1442 	mov	r3,a
      000206 90r02r0F         [24] 1443 	mov	dptr,#_hostTransfer_PARM_3
      000209 E0               [24] 1444 	movx	a,@dptr
      00020A F9               [12] 1445 	mov	r1,a
      00020B A3               [24] 1446 	inc	dptr
      00020C E0               [24] 1447 	movx	a,@dptr
      00020D FA               [12] 1448 	mov	r2,a
      00020E                       1449 00145$:
                                   1450 ;	USBHost.c:165: UH_EP_PID = endp_pid;                               
      00020E 8E D5            [24] 1451 	mov	_UEP2_T_LEN,r6
                                   1452 ;	USBHost.c:166: UIF_TRANSFER = 0;            
                                   1453 ;	assignBit
      000210 C2 D9            [12] 1454 	clr	_UIF_TRANSFER
                                   1455 ;	USBHost.c:167: for (i = 200; i != 0 && UIF_TRANSFER == 0; i--)
      000212 75*00 C8         [24] 1456 	mov	_hostTransfer_sloc0_1_0,#0xc8
      000215 75*01 00         [24] 1457 	mov	(_hostTransfer_sloc0_1_0 + 1),#0x00
      000218                       1458 00150$:
      000218 E5*00            [12] 1459 	mov	a,_hostTransfer_sloc0_1_0
      00021A 45*01            [12] 1460 	orl	a,(_hostTransfer_sloc0_1_0 + 1)
      00021C 60 2C            [24] 1461 	jz	00101$
      00021E 20 D9 29         [24] 1462 	jb	_UIF_TRANSFER,00101$
                                   1463 ;	USBHost.c:168: delayUs(1);
      000221 90 00 01         [24] 1464 	mov	dptr,#0x0001
      000224 C0 07            [24] 1465 	push	ar7
      000226 C0 06            [24] 1466 	push	ar6
      000228 C0 05            [24] 1467 	push	ar5
      00022A C0 03            [24] 1468 	push	ar3
      00022C C0 02            [24] 1469 	push	ar2
      00022E C0 01            [24] 1470 	push	ar1
      000230 12r00r00         [24] 1471 	lcall	_delayUs
      000233 D0 01            [24] 1472 	pop	ar1
      000235 D0 02            [24] 1473 	pop	ar2
      000237 D0 03            [24] 1474 	pop	ar3
      000239 D0 05            [24] 1475 	pop	ar5
      00023B D0 06            [24] 1476 	pop	ar6
      00023D D0 07            [24] 1477 	pop	ar7
                                   1478 ;	USBHost.c:167: for (i = 200; i != 0 && UIF_TRANSFER == 0; i--)
      00023F 15*00            [12] 1479 	dec	_hostTransfer_sloc0_1_0
      000241 74 FF            [12] 1480 	mov	a,#0xff
      000243 B5*00 02         [24] 1481 	cjne	a,_hostTransfer_sloc0_1_0,00263$
      000246 15*01            [12] 1482 	dec	(_hostTransfer_sloc0_1_0 + 1)
      000248                       1483 00263$:
      000248 80 CE            [24] 1484 	sjmp	00150$
      00024A                       1485 00101$:
                                   1486 ;	USBHost.c:169: UH_EP_PID = 0x00;                                         
      00024A 75 D5 00         [24] 1487 	mov	_UEP2_T_LEN,#0x00
                                   1488 ;	USBHost.c:170: if ( UIF_TRANSFER == 0 )
      00024D 20 D9 04         [24] 1489 	jb	_UIF_TRANSFER,00103$
                                   1490 ;	USBHost.c:172: return ERR_USB_UNKNOWN;
      000250 75 82 FE         [24] 1491 	mov	dpl,#0xfe
      000253 22               [24] 1492 	ret
      000254                       1493 00103$:
                                   1494 ;	USBHost.c:174: if ( UIF_TRANSFER )                                    
      000254 20 D9 03         [24] 1495 	jb	_UIF_TRANSFER,00265$
      000257 02r03r54         [24] 1496 	ljmp	00143$
      00025A                       1497 00265$:
                                   1498 ;	USBHost.c:176: if ( U_TOG_OK )
      00025A 30 DE 04         [24] 1499 	jnb	_U_TOG_OK,00105$
                                   1500 ;	USBHost.c:178: return( ERR_SUCCESS );
      00025D 75 82 00         [24] 1501 	mov	dpl,#0x00
      000260 22               [24] 1502 	ret
      000261                       1503 00105$:
                                   1504 ;	USBHost.c:180: r = USB_INT_ST & MASK_UIS_H_RES;               
      000261 E5 D9            [12] 1505 	mov	a,_USB_INT_ST
      000263 54 0F            [12] 1506 	anl	a,#0x0f
      000265 F5*02            [12] 1507 	mov	_hostTransfer_sloc1_1_0,a
                                   1508 ;	USBHost.c:181: if ( r == USB_PID_STALL )
      000267 74 0E            [12] 1509 	mov	a,#0x0e
      000269 B5*02 04         [24] 1510 	cjne	a,_hostTransfer_sloc1_1_0,00267$
      00026C 74 01            [12] 1511 	mov	a,#0x01
      00026E 80 01            [24] 1512 	sjmp	00268$
      000270                       1513 00267$:
      000270 E4               [12] 1514 	clr	a
      000271                       1515 00268$:
      000271 F5*00            [12] 1516 	mov	_hostTransfer_sloc0_1_0,a
      000273 60 07            [24] 1517 	jz	00107$
                                   1518 ;	USBHost.c:183: return( r | ERR_USB_TRANSFER );
      000275 74 20            [12] 1519 	mov	a,#0x20
      000277 45*02            [12] 1520 	orl	a,_hostTransfer_sloc1_1_0
      000279 F5 82            [12] 1521 	mov	dpl,a
      00027B 22               [24] 1522 	ret
      00027C                       1523 00107$:
                                   1524 ;	USBHost.c:185: if ( r == USB_PID_NAK )
      00027C 74 0A            [12] 1525 	mov	a,#0x0a
      00027E B5*02 04         [24] 1526 	cjne	a,_hostTransfer_sloc1_1_0,00270$
      000281 74 01            [12] 1527 	mov	a,#0x01
      000283 80 01            [24] 1528 	sjmp	00271$
      000285                       1529 00270$:
      000285 E4               [12] 1530 	clr	a
      000286                       1531 00271$:
      000286 F8               [12] 1532 	mov	r0,a
      000287 60 3F            [24] 1533 	jz	00140$
                                   1534 ;	USBHost.c:187: if ( timeout == 0 )
      000289 E9               [12] 1535 	mov	a,r1
      00028A 4A               [12] 1536 	orl	a,r2
      00028B 70 0A            [24] 1537 	jnz	00109$
                                   1538 ;	USBHost.c:189: return( r | ERR_USB_TRANSFER );
      00028D 74 20            [12] 1539 	mov	a,#0x20
      00028F 45*02            [12] 1540 	orl	a,_hostTransfer_sloc1_1_0
      000291 F5*03            [12] 1541 	mov	_hostTransfer_sloc2_1_0,a
      000293 85*03 82         [24] 1542 	mov	dpl,_hostTransfer_sloc2_1_0
      000296 22               [24] 1543 	ret
      000297                       1544 00109$:
                                   1545 ;	USBHost.c:191: if ( timeout < 0xFFFF )
      000297 C0 03            [24] 1546 	push	ar3
      000299 89 03            [24] 1547 	mov	ar3,r1
      00029B 8A 04            [24] 1548 	mov	ar4,r2
      00029D C3               [12] 1549 	clr	c
      00029E EB               [12] 1550 	mov	a,r3
      00029F 94 FF            [12] 1551 	subb	a,#0xff
      0002A1 EC               [12] 1552 	mov	a,r4
      0002A2 94 FF            [12] 1553 	subb	a,#0xff
      0002A4 D0 03            [24] 1554 	pop	ar3
      0002A6 50 05            [24] 1555 	jnc	00111$
                                   1556 ;	USBHost.c:193: timeout --;
      0002A8 19               [12] 1557 	dec	r1
      0002A9 B9 FF 01         [24] 1558 	cjne	r1,#0xff,00275$
      0002AC 1A               [12] 1559 	dec	r2
      0002AD                       1560 00275$:
      0002AD                       1561 00111$:
                                   1562 ;	USBHost.c:195: retries--;
      0002AD C0 03            [24] 1563 	push	ar3
      0002AF 90r02r12         [24] 1564 	mov	dptr,#_hostTransfer_retries_65536_75
      0002B2 E0               [24] 1565 	movx	a,@dptr
      0002B3 24 FF            [12] 1566 	add	a,#0xff
      0002B5 FB               [12] 1567 	mov	r3,a
      0002B6 A3               [24] 1568 	inc	dptr
      0002B7 E0               [24] 1569 	movx	a,@dptr
      0002B8 34 FF            [12] 1570 	addc	a,#0xff
      0002BA FC               [12] 1571 	mov	r4,a
      0002BB 90r02r12         [24] 1572 	mov	dptr,#_hostTransfer_retries_65536_75
      0002BE EB               [12] 1573 	mov	a,r3
      0002BF F0               [24] 1574 	movx	@dptr,a
      0002C0 EC               [12] 1575 	mov	a,r4
      0002C1 A3               [24] 1576 	inc	dptr
      0002C2 F0               [24] 1577 	movx	@dptr,a
      0002C3 D0 03            [24] 1578 	pop	ar3
      0002C5 02r03r57         [24] 1579 	ljmp	00144$
      0002C8                       1580 00140$:
                                   1581 ;	USBHost.c:197: else switch ( endp_pid >> 4 )    //todo no return.. compare to other guy
      0002C8 E5*03            [12] 1582 	mov	a,_hostTransfer_sloc2_1_0
      0002CA 70 0B            [24] 1583 	jnz	00113$
      0002CC EB               [12] 1584 	mov	a,r3
      0002CD 70 31            [24] 1585 	jnz	00123$
      0002CF BD 0D 02         [24] 1586 	cjne	r5,#0x0d,00278$
      0002D2 80 03            [24] 1587 	sjmp	00279$
      0002D4                       1588 00278$:
      0002D4 02r03r50         [24] 1589 	ljmp	00137$
      0002D7                       1590 00279$:
                                   1591 ;	USBHost.c:200: case USB_PID_OUT:
      0002D7                       1592 00113$:
                                   1593 ;	USBHost.c:201: if ( U_TOG_OK )
      0002D7 30 DE 04         [24] 1594 	jnb	_U_TOG_OK,00115$
                                   1595 ;	USBHost.c:203: return( ERR_SUCCESS );
      0002DA 75 82 00         [24] 1596 	mov	dpl,#0x00
      0002DD 22               [24] 1597 	ret
      0002DE                       1598 00115$:
                                   1599 ;	USBHost.c:205: if ( r == USB_PID_ACK )
      0002DE 74 02            [12] 1600 	mov	a,#0x02
      0002E0 B5*02 04         [24] 1601 	cjne	a,_hostTransfer_sloc1_1_0,00117$
                                   1602 ;	USBHost.c:207: return( ERR_SUCCESS );
      0002E3 75 82 00         [24] 1603 	mov	dpl,#0x00
      0002E6 22               [24] 1604 	ret
      0002E7                       1605 00117$:
                                   1606 ;	USBHost.c:209: if ( r == USB_PID_STALL || r == USB_PID_NAK )
      0002E7 E5*00            [12] 1607 	mov	a,_hostTransfer_sloc0_1_0
      0002E9 70 03            [24] 1608 	jnz	00118$
      0002EB E8               [12] 1609 	mov	a,r0
      0002EC 60 07            [24] 1610 	jz	00119$
      0002EE                       1611 00118$:
                                   1612 ;	USBHost.c:211: return( r | ERR_USB_TRANSFER );
      0002EE 74 20            [12] 1613 	mov	a,#0x20
      0002F0 45*02            [12] 1614 	orl	a,_hostTransfer_sloc1_1_0
      0002F2 F5 82            [12] 1615 	mov	dpl,a
      0002F4 22               [24] 1616 	ret
      0002F5                       1617 00119$:
                                   1618 ;	USBHost.c:213: if ( r )
      0002F5 E5*02            [12] 1619 	mov	a,_hostTransfer_sloc1_1_0
      0002F7 60 5E            [24] 1620 	jz	00144$
                                   1621 ;	USBHost.c:215: return( r | ERR_USB_TRANSFER );          
      0002F9 74 20            [12] 1622 	mov	a,#0x20
      0002FB 45*02            [12] 1623 	orl	a,_hostTransfer_sloc1_1_0
      0002FD F5 82            [12] 1624 	mov	dpl,a
      0002FF 22               [24] 1625 	ret
                                   1626 ;	USBHost.c:218: case USB_PID_IN:
      000300                       1627 00123$:
                                   1628 ;	USBHost.c:219: if ( U_TOG_OK )
      000300 30 DE 04         [24] 1629 	jnb	_U_TOG_OK,00125$
                                   1630 ;	USBHost.c:221: return( ERR_SUCCESS );
      000303 75 82 00         [24] 1631 	mov	dpl,#0x00
      000306 22               [24] 1632 	ret
      000307                       1633 00125$:
                                   1634 ;	USBHost.c:223: if ( tog ? r == USB_PID_DATA1 : r == USB_PID_DATA0 )
      000307 EF               [12] 1635 	mov	a,r7
      000308 60 0D            [24] 1636 	jz	00154$
      00030A 74 0B            [12] 1637 	mov	a,#0x0b
      00030C B5*02 04         [24] 1638 	cjne	a,_hostTransfer_sloc1_1_0,00288$
      00030F 74 01            [12] 1639 	mov	a,#0x01
      000311 80 01            [24] 1640 	sjmp	00289$
      000313                       1641 00288$:
      000313 E4               [12] 1642 	clr	a
      000314                       1643 00289$:
      000314 FC               [12] 1644 	mov	r4,a
      000315 80 0B            [24] 1645 	sjmp	00155$
      000317                       1646 00154$:
      000317 74 03            [12] 1647 	mov	a,#0x03
      000319 B5*02 04         [24] 1648 	cjne	a,_hostTransfer_sloc1_1_0,00290$
      00031C 74 01            [12] 1649 	mov	a,#0x01
      00031E 80 01            [24] 1650 	sjmp	00291$
      000320                       1651 00290$:
      000320 E4               [12] 1652 	clr	a
      000321                       1653 00291$:
      000321 FC               [12] 1654 	mov	r4,a
      000322                       1655 00155$:
      000322 EC               [12] 1656 	mov	a,r4
      000323 60 04            [24] 1657 	jz	00127$
                                   1658 ;	USBHost.c:225: return( ERR_SUCCESS );
      000325 75 82 00         [24] 1659 	mov	dpl,#0x00
      000328 22               [24] 1660 	ret
      000329                       1661 00127$:
                                   1662 ;	USBHost.c:227: if ( r == USB_PID_STALL || r == USB_PID_NAK )
      000329 E5*00            [12] 1663 	mov	a,_hostTransfer_sloc0_1_0
      00032B 70 03            [24] 1664 	jnz	00128$
      00032D E8               [12] 1665 	mov	a,r0
      00032E 60 07            [24] 1666 	jz	00129$
      000330                       1667 00128$:
                                   1668 ;	USBHost.c:229: return( r | ERR_USB_TRANSFER );
      000330 74 20            [12] 1669 	mov	a,#0x20
      000332 45*02            [12] 1670 	orl	a,_hostTransfer_sloc1_1_0
      000334 F5 82            [12] 1671 	mov	dpl,a
      000336 22               [24] 1672 	ret
      000337                       1673 00129$:
                                   1674 ;	USBHost.c:231: if ( r == USB_PID_DATA0 || r == USB_PID_DATA1 ) // ( r == USB_PID_DATA0 && r == USB_PID_DATA1 )
      000337 74 03            [12] 1675 	mov	a,#0x03
      000339 B5*02 02         [24] 1676 	cjne	a,_hostTransfer_sloc1_1_0,00295$
      00033C 80 19            [24] 1677 	sjmp	00144$
      00033E                       1678 00295$:
      00033E 74 0B            [12] 1679 	mov	a,#0x0b
      000340 B5*02 02         [24] 1680 	cjne	a,_hostTransfer_sloc1_1_0,00296$
      000343 80 12            [24] 1681 	sjmp	00144$
      000345                       1682 00296$:
                                   1683 ;	USBHost.c:234: else if ( r )
      000345 E5*02            [12] 1684 	mov	a,_hostTransfer_sloc1_1_0
      000347 60 0E            [24] 1685 	jz	00144$
                                   1686 ;	USBHost.c:236: return( r | ERR_USB_TRANSFER );     
      000349 74 20            [12] 1687 	mov	a,#0x20
      00034B 45*02            [12] 1688 	orl	a,_hostTransfer_sloc1_1_0
      00034D F5 82            [12] 1689 	mov	dpl,a
                                   1690 ;	USBHost.c:239: default:
      00034F 22               [24] 1691 	ret
      000350                       1692 00137$:
                                   1693 ;	USBHost.c:240: return( ERR_USB_UNKNOWN );                  
      000350 75 82 FE         [24] 1694 	mov	dpl,#0xfe
                                   1695 ;	USBHost.c:242: }
      000353 22               [24] 1696 	ret
      000354                       1697 00143$:
                                   1698 ;	USBHost.c:246: USB_INT_FG = 0xFF;                               
      000354 75 D8 FF         [24] 1699 	mov	_USB_INT_FG,#0xff
      000357                       1700 00144$:
                                   1701 ;	USBHost.c:248: delayUs(15);
      000357 90 00 0F         [24] 1702 	mov	dptr,#0x000f
      00035A C0 07            [24] 1703 	push	ar7
      00035C C0 06            [24] 1704 	push	ar6
      00035E C0 05            [24] 1705 	push	ar5
      000360 C0 03            [24] 1706 	push	ar3
      000362 C0 02            [24] 1707 	push	ar2
      000364 C0 01            [24] 1708 	push	ar1
      000366 12r00r00         [24] 1709 	lcall	_delayUs
      000369 D0 01            [24] 1710 	pop	ar1
      00036B D0 02            [24] 1711 	pop	ar2
      00036D D0 03            [24] 1712 	pop	ar3
      00036F D0 05            [24] 1713 	pop	ar5
      000371 D0 06            [24] 1714 	pop	ar6
      000373 D0 07            [24] 1715 	pop	ar7
                                   1716 ;	USBHost.c:250: while ( ++retries < 200 );
      000375 90r02r12         [24] 1717 	mov	dptr,#_hostTransfer_retries_65536_75
      000378 E0               [24] 1718 	movx	a,@dptr
      000379 24 01            [12] 1719 	add	a,#0x01
      00037B F0               [24] 1720 	movx	@dptr,a
      00037C A3               [24] 1721 	inc	dptr
      00037D E0               [24] 1722 	movx	a,@dptr
      00037E 34 00            [12] 1723 	addc	a,#0x00
      000380 F0               [24] 1724 	movx	@dptr,a
      000381 90r02r12         [24] 1725 	mov	dptr,#_hostTransfer_retries_65536_75
      000384 E0               [24] 1726 	movx	a,@dptr
      000385 F8               [12] 1727 	mov	r0,a
      000386 A3               [24] 1728 	inc	dptr
      000387 E0               [24] 1729 	movx	a,@dptr
      000388 FC               [12] 1730 	mov	r4,a
      000389 C3               [12] 1731 	clr	c
      00038A E8               [12] 1732 	mov	a,r0
      00038B 94 C8            [12] 1733 	subb	a,#0xc8
      00038D EC               [12] 1734 	mov	a,r4
      00038E 94 00            [12] 1735 	subb	a,#0x00
      000390 50 03            [24] 1736 	jnc	00298$
      000392 02r02r0E         [24] 1737 	ljmp	00145$
      000395                       1738 00298$:
                                   1739 ;	USBHost.c:251: return( ERR_USB_TRANSFER );                              
      000395 75 82 20         [24] 1740 	mov	dpl,#0x20
                                   1741 ;	USBHost.c:252: }
      000398 22               [24] 1742 	ret
                                   1743 ;------------------------------------------------------------
                                   1744 ;Allocation info for local variables in function 'hostCtrlTransfer'
                                   1745 ;------------------------------------------------------------
                                   1746 ;sloc0                     Allocated with name '_hostCtrlTransfer_sloc0_1_0'
                                   1747 ;sloc1                     Allocated with name '_hostCtrlTransfer_sloc1_1_0'
                                   1748 ;RetLen                    Allocated with name '_hostCtrlTransfer_PARM_2'
                                   1749 ;maxLenght                 Allocated with name '_hostCtrlTransfer_PARM_3'
                                   1750 ;DataBuf                   Allocated with name '_hostCtrlTransfer_DataBuf_65536_96'
                                   1751 ;SetPort                   Allocated with name '_hostCtrlTransfer_SetPort_65536_97'
                                   1752 ;temp                      Allocated with name '_hostCtrlTransfer_temp_65536_97'
                                   1753 ;RemLen                    Allocated with name '_hostCtrlTransfer_RemLen_65536_97'
                                   1754 ;s                         Allocated with name '_hostCtrlTransfer_s_65536_97'
                                   1755 ;RxLen                     Allocated with name '_hostCtrlTransfer_RxLen_65536_97'
                                   1756 ;i                         Allocated with name '_hostCtrlTransfer_i_65536_97'
                                   1757 ;pBuf                      Allocated with name '_hostCtrlTransfer_pBuf_65536_97'
                                   1758 ;pLen                      Allocated with name '_hostCtrlTransfer_pLen_65536_97'
                                   1759 ;pSetupReq                 Allocated with name '_hostCtrlTransfer_pSetupReq_65537_98'
                                   1760 ;------------------------------------------------------------
                                   1761 ;	USBHost.c:255: unsigned char hostCtrlTransfer(unsigned char __xdata *DataBuf, unsigned short *RetLen, unsigned short maxLenght)
                                   1762 ;	-----------------------------------------
                                   1763 ;	 function hostCtrlTransfer
                                   1764 ;	-----------------------------------------
      000399                       1765 _hostCtrlTransfer:
      000399 AF 83            [24] 1766 	mov	r7,dph
      00039B E5 82            [12] 1767 	mov	a,dpl
      00039D 90r02r19         [24] 1768 	mov	dptr,#_hostCtrlTransfer_DataBuf_65536_96
      0003A0 F0               [24] 1769 	movx	@dptr,a
      0003A1 EF               [12] 1770 	mov	a,r7
      0003A2 A3               [24] 1771 	inc	dptr
      0003A3 F0               [24] 1772 	movx	@dptr,a
                                   1773 ;	USBHost.c:263: DEBUG_OUT("hostCtrlTransfer\n");
      0003A4 74r40            [12] 1774 	mov	a,#___str_0
      0003A6 C0 E0            [24] 1775 	push	acc
      0003A8 74s00            [12] 1776 	mov	a,#(___str_0 >> 8)
      0003AA C0 E0            [24] 1777 	push	acc
      0003AC 74 80            [12] 1778 	mov	a,#0x80
      0003AE C0 E0            [24] 1779 	push	acc
      0003B0 12r00r00         [24] 1780 	lcall	_printf
      0003B3 15 81            [12] 1781 	dec	sp
      0003B5 15 81            [12] 1782 	dec	sp
      0003B7 15 81            [12] 1783 	dec	sp
                                   1784 ;	USBHost.c:264: PXUSB_SETUP_REQ pSetupReq = ((PXUSB_SETUP_REQ)TxBuffer);
                                   1785 ;	USBHost.c:265: pBuf = DataBuf;
      0003B9 90r02r19         [24] 1786 	mov	dptr,#_hostCtrlTransfer_DataBuf_65536_96
      0003BC E0               [24] 1787 	movx	a,@dptr
      0003BD FE               [12] 1788 	mov	r6,a
      0003BE A3               [24] 1789 	inc	dptr
      0003BF E0               [24] 1790 	movx	a,@dptr
      0003C0 FF               [12] 1791 	mov	r7,a
      0003C1 90r02r1E         [24] 1792 	mov	dptr,#_hostCtrlTransfer_pBuf_65536_97
      0003C4 EE               [12] 1793 	mov	a,r6
      0003C5 F0               [24] 1794 	movx	@dptr,a
      0003C6 EF               [12] 1795 	mov	a,r7
      0003C7 A3               [24] 1796 	inc	dptr
      0003C8 F0               [24] 1797 	movx	@dptr,a
                                   1798 ;	USBHost.c:266: pLen = RetLen;
      0003C9 90r02r14         [24] 1799 	mov	dptr,#_hostCtrlTransfer_PARM_2
      0003CC E0               [24] 1800 	movx	a,@dptr
      0003CD FB               [12] 1801 	mov	r3,a
      0003CE A3               [24] 1802 	inc	dptr
      0003CF E0               [24] 1803 	movx	a,@dptr
      0003D0 FC               [12] 1804 	mov	r4,a
      0003D1 A3               [24] 1805 	inc	dptr
      0003D2 E0               [24] 1806 	movx	a,@dptr
      0003D3 FD               [12] 1807 	mov	r5,a
                                   1808 ;	USBHost.c:267: delayUs(200);
      0003D4 90 00 C8         [24] 1809 	mov	dptr,#0x00c8
      0003D7 C0 07            [24] 1810 	push	ar7
      0003D9 C0 06            [24] 1811 	push	ar6
      0003DB C0 05            [24] 1812 	push	ar5
      0003DD C0 04            [24] 1813 	push	ar4
      0003DF C0 03            [24] 1814 	push	ar3
      0003E1 12r00r00         [24] 1815 	lcall	_delayUs
      0003E4 D0 03            [24] 1816 	pop	ar3
      0003E6 D0 04            [24] 1817 	pop	ar4
      0003E8 D0 05            [24] 1818 	pop	ar5
      0003EA D0 06            [24] 1819 	pop	ar6
      0003EC D0 07            [24] 1820 	pop	ar7
                                   1821 ;	USBHost.c:268: if (pLen)
      0003EE EB               [12] 1822 	mov	a,r3
      0003EF 4C               [12] 1823 	orl	a,r4
      0003F0 60 0E            [24] 1824 	jz	00102$
                                   1825 ;	USBHost.c:269: *pLen = 0;
      0003F2 8B 82            [24] 1826 	mov	dpl,r3
      0003F4 8C 83            [24] 1827 	mov	dph,r4
      0003F6 8D F0            [24] 1828 	mov	b,r5
      0003F8 E4               [12] 1829 	clr	a
      0003F9 12r00r00         [24] 1830 	lcall	__gptrput
      0003FC A3               [24] 1831 	inc	dptr
      0003FD 12r00r00         [24] 1832 	lcall	__gptrput
      000400                       1833 00102$:
                                   1834 ;	USBHost.c:270: UH_TX_LEN = sizeof(USB_SETUP_REQ);
      000400 75 D7 08         [24] 1835 	mov	_UEP3_T_LEN,#0x08
                                   1836 ;	USBHost.c:271: s = hostTransfer((unsigned char)(USB_PID_SETUP << 4), 0, 10000);
      000403 90r02r0E         [24] 1837 	mov	dptr,#_hostTransfer_PARM_2
      000406 E4               [12] 1838 	clr	a
      000407 F0               [24] 1839 	movx	@dptr,a
      000408 90r02r0F         [24] 1840 	mov	dptr,#_hostTransfer_PARM_3
      00040B 74 10            [12] 1841 	mov	a,#0x10
      00040D F0               [24] 1842 	movx	@dptr,a
      00040E 74 27            [12] 1843 	mov	a,#0x27
      000410 A3               [24] 1844 	inc	dptr
      000411 F0               [24] 1845 	movx	@dptr,a
      000412 75 82 D0         [24] 1846 	mov	dpl,#0xd0
      000415 C0 07            [24] 1847 	push	ar7
      000417 C0 06            [24] 1848 	push	ar6
      000419 C0 05            [24] 1849 	push	ar5
      00041B C0 04            [24] 1850 	push	ar4
      00041D C0 03            [24] 1851 	push	ar3
      00041F 12r01rD8         [24] 1852 	lcall	_hostTransfer
      000422 AA 82            [24] 1853 	mov	r2,dpl
      000424 D0 03            [24] 1854 	pop	ar3
      000426 D0 04            [24] 1855 	pop	ar4
      000428 D0 05            [24] 1856 	pop	ar5
      00042A D0 06            [24] 1857 	pop	ar6
      00042C D0 07            [24] 1858 	pop	ar7
                                   1859 ;	USBHost.c:272: if (s != ERR_SUCCESS)
      00042E EA               [12] 1860 	mov	a,r2
      00042F 60 03            [24] 1861 	jz	00104$
                                   1862 ;	USBHost.c:273: return (s);
      000431 8A 82            [24] 1863 	mov	dpl,r2
      000433 22               [24] 1864 	ret
      000434                       1865 00104$:
                                   1866 ;	USBHost.c:274: UH_RX_CTRL = UH_TX_CTRL = bUH_R_TOG | bUH_R_AUTO_TOG | bUH_T_TOG | bUH_T_AUTO_TOG;
      000434 C0 06            [24] 1867 	push	ar6
      000436 C0 07            [24] 1868 	push	ar7
      000438 75 D6 D0         [24] 1869 	mov	_UEP3_CTRL,#0xd0
      00043B 75 D4 D0         [24] 1870 	mov	_UEP2_CTRL,#0xd0
                                   1871 ;	USBHost.c:275: UH_TX_LEN = 0x01;
      00043E 75 D7 01         [24] 1872 	mov	_UEP3_T_LEN,#0x01
                                   1873 ;	USBHost.c:276: RemLen = (pSetupReq->wLengthH << 8) | (pSetupReq->wLengthL);
      000441 90 01 07         [24] 1874 	mov	dptr,#(_TxBuffer + 0x0007)
      000444 E0               [24] 1875 	movx	a,@dptr
      000445 FA               [12] 1876 	mov	r2,a
      000446 79 00            [12] 1877 	mov	r1,#0x00
      000448 90 01 06         [24] 1878 	mov	dptr,#(_TxBuffer + 0x0006)
      00044B E0               [24] 1879 	movx	a,@dptr
      00044C F8               [12] 1880 	mov	r0,a
      00044D 7F 00            [12] 1881 	mov	r7,#0x00
      00044F 42 01            [12] 1882 	orl	ar1,a
      000451 EF               [12] 1883 	mov	a,r7
      000452 42 02            [12] 1884 	orl	ar2,a
      000454 89*04            [24] 1885 	mov	_hostCtrlTransfer_sloc0_1_0,r1
      000456 8A*05            [24] 1886 	mov	(_hostCtrlTransfer_sloc0_1_0 + 1),r2
      000458 90r02r1C         [24] 1887 	mov	dptr,#_hostCtrlTransfer_RemLen_65536_97
      00045B E5*04            [12] 1888 	mov	a,_hostCtrlTransfer_sloc0_1_0
      00045D F0               [24] 1889 	movx	@dptr,a
      00045E E5*05            [12] 1890 	mov	a,(_hostCtrlTransfer_sloc0_1_0 + 1)
      000460 A3               [24] 1891 	inc	dptr
      000461 F0               [24] 1892 	movx	@dptr,a
                                   1893 ;	USBHost.c:277: if (RemLen && pBuf)
      000462 D0 07            [24] 1894 	pop	ar7
      000464 D0 06            [24] 1895 	pop	ar6
      000466 E5*04            [12] 1896 	mov	a,_hostCtrlTransfer_sloc0_1_0
      000468 45*05            [12] 1897 	orl	a,(_hostCtrlTransfer_sloc0_1_0 + 1)
      00046A 70 03            [24] 1898 	jnz	00249$
      00046C 02r07r23         [24] 1899 	ljmp	00129$
      00046F                       1900 00249$:
      00046F EE               [12] 1901 	mov	a,r6
      000470 4F               [12] 1902 	orl	a,r7
      000471 70 03            [24] 1903 	jnz	00250$
      000473 02r07r23         [24] 1904 	ljmp	00129$
      000476                       1905 00250$:
                                   1906 ;	USBHost.c:279: if (pSetupReq->bRequestType & USB_REQ_TYP_IN)
      000476 90 01 00         [24] 1907 	mov	dptr,#_TxBuffer
      000479 E0               [24] 1908 	movx	a,@dptr
      00047A FF               [12] 1909 	mov	r7,a
      00047B 20 E7 03         [24] 1910 	jb	acc.7,00251$
      00047E 02r05rBE         [24] 1911 	ljmp	00126$
      000481                       1912 00251$:
                                   1913 ;	USBHost.c:281: DEBUG_OUT("Remaining bytes to read %d\n", RemLen);
      000481 C0 05            [24] 1914 	push	ar5
      000483 C0 04            [24] 1915 	push	ar4
      000485 C0 03            [24] 1916 	push	ar3
      000487 C0*04            [24] 1917 	push	_hostCtrlTransfer_sloc0_1_0
      000489 C0*05            [24] 1918 	push	(_hostCtrlTransfer_sloc0_1_0 + 1)
      00048B 74r52            [12] 1919 	mov	a,#___str_1
      00048D C0 E0            [24] 1920 	push	acc
      00048F 74s00            [12] 1921 	mov	a,#(___str_1 >> 8)
      000491 C0 E0            [24] 1922 	push	acc
      000493 74 80            [12] 1923 	mov	a,#0x80
      000495 C0 E0            [24] 1924 	push	acc
      000497 12r00r00         [24] 1925 	lcall	_printf
      00049A E5 81            [12] 1926 	mov	a,sp
      00049C 24 FB            [12] 1927 	add	a,#0xfb
      00049E F5 81            [12] 1928 	mov	sp,a
      0004A0 D0 03            [24] 1929 	pop	ar3
      0004A2 D0 04            [24] 1930 	pop	ar4
      0004A4 D0 05            [24] 1931 	pop	ar5
                                   1932 ;	USBHost.c:282: while (RemLen)
      0004A6                       1933 00113$:
      0004A6 90r02r1C         [24] 1934 	mov	dptr,#_hostCtrlTransfer_RemLen_65536_97
      0004A9 E0               [24] 1935 	movx	a,@dptr
      0004AA FE               [12] 1936 	mov	r6,a
      0004AB A3               [24] 1937 	inc	dptr
      0004AC E0               [24] 1938 	movx	a,@dptr
      0004AD FF               [12] 1939 	mov	r7,a
      0004AE 4E               [12] 1940 	orl	a,r6
      0004AF 70 03            [24] 1941 	jnz	00252$
      0004B1 02r05rB8         [24] 1942 	ljmp	00115$
      0004B4                       1943 00252$:
                                   1944 ;	USBHost.c:284: delayUs(300);
      0004B4 90 01 2C         [24] 1945 	mov	dptr,#0x012c
      0004B7 C0 07            [24] 1946 	push	ar7
      0004B9 C0 06            [24] 1947 	push	ar6
      0004BB C0 05            [24] 1948 	push	ar5
      0004BD C0 04            [24] 1949 	push	ar4
      0004BF C0 03            [24] 1950 	push	ar3
      0004C1 12r00r00         [24] 1951 	lcall	_delayUs
                                   1952 ;	USBHost.c:285: s = hostTransfer((unsigned char)(USB_PID_IN << 4), UH_RX_CTRL, 10000); 
      0004C4 90r02r0E         [24] 1953 	mov	dptr,#_hostTransfer_PARM_2
      0004C7 E5 D4            [12] 1954 	mov	a,_UEP2_CTRL
      0004C9 F0               [24] 1955 	movx	@dptr,a
      0004CA 90r02r0F         [24] 1956 	mov	dptr,#_hostTransfer_PARM_3
      0004CD 74 10            [12] 1957 	mov	a,#0x10
      0004CF F0               [24] 1958 	movx	@dptr,a
      0004D0 74 27            [12] 1959 	mov	a,#0x27
      0004D2 A3               [24] 1960 	inc	dptr
      0004D3 F0               [24] 1961 	movx	@dptr,a
      0004D4 75 82 90         [24] 1962 	mov	dpl,#0x90
      0004D7 12r01rD8         [24] 1963 	lcall	_hostTransfer
      0004DA AA 82            [24] 1964 	mov	r2,dpl
      0004DC D0 03            [24] 1965 	pop	ar3
      0004DE D0 04            [24] 1966 	pop	ar4
      0004E0 D0 05            [24] 1967 	pop	ar5
      0004E2 D0 06            [24] 1968 	pop	ar6
      0004E4 D0 07            [24] 1969 	pop	ar7
                                   1970 ;	USBHost.c:286: if (s != ERR_SUCCESS)
      0004E6 EA               [12] 1971 	mov	a,r2
      0004E7 60 03            [24] 1972 	jz	00106$
                                   1973 ;	USBHost.c:287: return (s);
      0004E9 8A 82            [24] 1974 	mov	dpl,r2
      0004EB 22               [24] 1975 	ret
      0004EC                       1976 00106$:
                                   1977 ;	USBHost.c:288: RxLen = USB_RX_LEN < RemLen ? USB_RX_LEN : RemLen;
      0004EC A9 D1            [24] 1978 	mov	r1,_USB_RX_LEN
      0004EE 7A 00            [12] 1979 	mov	r2,#0x00
      0004F0 C3               [12] 1980 	clr	c
      0004F1 E9               [12] 1981 	mov	a,r1
      0004F2 9E               [12] 1982 	subb	a,r6
      0004F3 EA               [12] 1983 	mov	a,r2
      0004F4 9F               [12] 1984 	subb	a,r7
      0004F5 50 06            [24] 1985 	jnc	00142$
      0004F7 A9 D1            [24] 1986 	mov	r1,_USB_RX_LEN
      0004F9 7A 00            [12] 1987 	mov	r2,#0x00
      0004FB 80 04            [24] 1988 	sjmp	00143$
      0004FD                       1989 00142$:
      0004FD 8E 01            [24] 1990 	mov	ar1,r6
      0004FF 8F 02            [24] 1991 	mov	ar2,r7
      000501                       1992 00143$:
                                   1993 ;	USBHost.c:289: RemLen -= RxLen;
      000501 89 06            [24] 1994 	mov	ar6,r1
      000503 7F 00            [12] 1995 	mov	r7,#0x00
      000505 90r02r1C         [24] 1996 	mov	dptr,#_hostCtrlTransfer_RemLen_65536_97
      000508 E0               [24] 1997 	movx	a,@dptr
      000509 F8               [12] 1998 	mov	r0,a
      00050A A3               [24] 1999 	inc	dptr
      00050B E0               [24] 2000 	movx	a,@dptr
      00050C FA               [12] 2001 	mov	r2,a
      00050D E8               [12] 2002 	mov	a,r0
      00050E C3               [12] 2003 	clr	c
      00050F 9E               [12] 2004 	subb	a,r6
      000510 F8               [12] 2005 	mov	r0,a
      000511 EA               [12] 2006 	mov	a,r2
      000512 9F               [12] 2007 	subb	a,r7
      000513 FA               [12] 2008 	mov	r2,a
      000514 90r02r1C         [24] 2009 	mov	dptr,#_hostCtrlTransfer_RemLen_65536_97
      000517 E8               [12] 2010 	mov	a,r0
      000518 F0               [24] 2011 	movx	@dptr,a
      000519 EA               [12] 2012 	mov	a,r2
      00051A A3               [24] 2013 	inc	dptr
      00051B F0               [24] 2014 	movx	@dptr,a
                                   2015 ;	USBHost.c:290: if (pLen)
      00051C EB               [12] 2016 	mov	a,r3
      00051D 4C               [12] 2017 	orl	a,r4
      00051E 60 24            [24] 2018 	jz	00160$
                                   2019 ;	USBHost.c:291: *pLen += RxLen;
      000520 8B 82            [24] 2020 	mov	dpl,r3
      000522 8C 83            [24] 2021 	mov	dph,r4
      000524 8D F0            [24] 2022 	mov	b,r5
      000526 12r00r00         [24] 2023 	lcall	__gptrget
      000529 F8               [12] 2024 	mov	r0,a
      00052A A3               [24] 2025 	inc	dptr
      00052B 12r00r00         [24] 2026 	lcall	__gptrget
      00052E FA               [12] 2027 	mov	r2,a
      00052F EE               [12] 2028 	mov	a,r6
      000530 28               [12] 2029 	add	a,r0
      000531 FE               [12] 2030 	mov	r6,a
      000532 EF               [12] 2031 	mov	a,r7
      000533 3A               [12] 2032 	addc	a,r2
      000534 FF               [12] 2033 	mov	r7,a
      000535 8B 82            [24] 2034 	mov	dpl,r3
      000537 8C 83            [24] 2035 	mov	dph,r4
      000539 8D F0            [24] 2036 	mov	b,r5
      00053B EE               [12] 2037 	mov	a,r6
      00053C 12r00r00         [24] 2038 	lcall	__gptrput
      00053F A3               [24] 2039 	inc	dptr
      000540 EF               [12] 2040 	mov	a,r7
      000541 12r00r00         [24] 2041 	lcall	__gptrput
                                   2042 ;	USBHost.c:292: for(i = 0; i < RxLen; i++)
      000544                       2043 00160$:
      000544 90r02r1E         [24] 2044 	mov	dptr,#_hostCtrlTransfer_pBuf_65536_97
      000547 E0               [24] 2045 	movx	a,@dptr
      000548 FE               [12] 2046 	mov	r6,a
      000549 A3               [24] 2047 	inc	dptr
      00054A E0               [24] 2048 	movx	a,@dptr
      00054B FF               [12] 2049 	mov	r7,a
      00054C 7A 00            [12] 2050 	mov	r2,#0x00
      00054E                       2051 00138$:
      00054E C3               [12] 2052 	clr	c
      00054F EA               [12] 2053 	mov	a,r2
      000550 99               [12] 2054 	subb	a,r1
      000551 50 18            [24] 2055 	jnc	00109$
                                   2056 ;	USBHost.c:293: pBuf[i] = RxBuffer[i];
      000553 EA               [12] 2057 	mov	a,r2
      000554 2E               [12] 2058 	add	a,r6
      000555 F5*06            [12] 2059 	mov	_hostCtrlTransfer_sloc1_1_0,a
      000557 E4               [12] 2060 	clr	a
      000558 3F               [12] 2061 	addc	a,r7
      000559 F5*07            [12] 2062 	mov	(_hostCtrlTransfer_sloc1_1_0 + 1),a
      00055B 8A 82            [24] 2063 	mov	dpl,r2
      00055D 75 83 00         [24] 2064 	mov	dph,#(_RxBuffer >> 8)
      000560 E0               [24] 2065 	movx	a,@dptr
      000561 85*06 82         [24] 2066 	mov	dpl,_hostCtrlTransfer_sloc1_1_0
      000564 85*07 83         [24] 2067 	mov	dph,(_hostCtrlTransfer_sloc1_1_0 + 1)
      000567 F0               [24] 2068 	movx	@dptr,a
                                   2069 ;	USBHost.c:292: for(i = 0; i < RxLen; i++)
      000568 0A               [12] 2070 	inc	r2
      000569 80 E3            [24] 2071 	sjmp	00138$
      00056B                       2072 00109$:
                                   2073 ;	USBHost.c:294: pBuf += RxLen;
      00056B 90r02r1E         [24] 2074 	mov	dptr,#_hostCtrlTransfer_pBuf_65536_97
      00056E E0               [24] 2075 	movx	a,@dptr
      00056F FE               [12] 2076 	mov	r6,a
      000570 A3               [24] 2077 	inc	dptr
      000571 E0               [24] 2078 	movx	a,@dptr
      000572 FF               [12] 2079 	mov	r7,a
      000573 90r02r1E         [24] 2080 	mov	dptr,#_hostCtrlTransfer_pBuf_65536_97
      000576 E9               [12] 2081 	mov	a,r1
      000577 2E               [12] 2082 	add	a,r6
      000578 F0               [24] 2083 	movx	@dptr,a
      000579 E4               [12] 2084 	clr	a
      00057A 3F               [12] 2085 	addc	a,r7
      00057B A3               [24] 2086 	inc	dptr
      00057C F0               [24] 2087 	movx	@dptr,a
                                   2088 ;	USBHost.c:295: DEBUG_OUT("Received %i bytes\n", (uint16_t)USB_RX_LEN);
      00057D AE D1            [24] 2089 	mov	r6,_USB_RX_LEN
      00057F 7F 00            [12] 2090 	mov	r7,#0x00
      000581 C0 05            [24] 2091 	push	ar5
      000583 C0 04            [24] 2092 	push	ar4
      000585 C0 03            [24] 2093 	push	ar3
      000587 C0 06            [24] 2094 	push	ar6
      000589 C0 07            [24] 2095 	push	ar7
      00058B 74r6E            [12] 2096 	mov	a,#___str_2
      00058D C0 E0            [24] 2097 	push	acc
      00058F 74s00            [12] 2098 	mov	a,#(___str_2 >> 8)
      000591 C0 E0            [24] 2099 	push	acc
      000593 74 80            [12] 2100 	mov	a,#0x80
      000595 C0 E0            [24] 2101 	push	acc
      000597 12r00r00         [24] 2102 	lcall	_printf
      00059A E5 81            [12] 2103 	mov	a,sp
      00059C 24 FB            [12] 2104 	add	a,#0xfb
      00059E F5 81            [12] 2105 	mov	sp,a
      0005A0 D0 03            [24] 2106 	pop	ar3
      0005A2 D0 04            [24] 2107 	pop	ar4
      0005A4 D0 05            [24] 2108 	pop	ar5
                                   2109 ;	USBHost.c:296: if (USB_RX_LEN == 0 || (USB_RX_LEN < endpoint0Size ))
      0005A6 E5 D1            [12] 2110 	mov	a,_USB_RX_LEN
      0005A8 60 0E            [24] 2111 	jz	00115$
      0005AA 90r00r00         [24] 2112 	mov	dptr,#_endpoint0Size
      0005AD E0               [24] 2113 	movx	a,@dptr
      0005AE FF               [12] 2114 	mov	r7,a
      0005AF C3               [12] 2115 	clr	c
      0005B0 E5 D1            [12] 2116 	mov	a,_USB_RX_LEN
      0005B2 9F               [12] 2117 	subb	a,r7
      0005B3 40 03            [24] 2118 	jc	00258$
      0005B5 02r04rA6         [24] 2119 	ljmp	00113$
      0005B8                       2120 00258$:
                                   2121 ;	USBHost.c:297: break; 
      0005B8                       2122 00115$:
                                   2123 ;	USBHost.c:299: UH_TX_LEN = 0x00;
      0005B8 75 D7 00         [24] 2124 	mov	_UEP3_T_LEN,#0x00
      0005BB 02r07r23         [24] 2125 	ljmp	00129$
      0005BE                       2126 00126$:
                                   2127 ;	USBHost.c:303: DEBUG_OUT("Remaining bytes to write %i", RemLen);
      0005BE C0 05            [24] 2128 	push	ar5
      0005C0 C0 04            [24] 2129 	push	ar4
      0005C2 C0 03            [24] 2130 	push	ar3
      0005C4 C0*04            [24] 2131 	push	_hostCtrlTransfer_sloc0_1_0
      0005C6 C0*05            [24] 2132 	push	(_hostCtrlTransfer_sloc0_1_0 + 1)
      0005C8 74r81            [12] 2133 	mov	a,#___str_3
      0005CA C0 E0            [24] 2134 	push	acc
      0005CC 74s00            [12] 2135 	mov	a,#(___str_3 >> 8)
      0005CE C0 E0            [24] 2136 	push	acc
      0005D0 74 80            [12] 2137 	mov	a,#0x80
      0005D2 C0 E0            [24] 2138 	push	acc
      0005D4 12r00r00         [24] 2139 	lcall	_printf
      0005D7 E5 81            [12] 2140 	mov	a,sp
      0005D9 24 FB            [12] 2141 	add	a,#0xfb
      0005DB F5 81            [12] 2142 	mov	sp,a
      0005DD D0 03            [24] 2143 	pop	ar3
      0005DF D0 04            [24] 2144 	pop	ar4
      0005E1 D0 05            [24] 2145 	pop	ar5
                                   2146 ;	USBHost.c:305: while (RemLen)
      0005E3                       2147 00122$:
      0005E3 90r02r1C         [24] 2148 	mov	dptr,#_hostCtrlTransfer_RemLen_65536_97
      0005E6 E0               [24] 2149 	movx	a,@dptr
      0005E7 FE               [12] 2150 	mov	r6,a
      0005E8 A3               [24] 2151 	inc	dptr
      0005E9 E0               [24] 2152 	movx	a,@dptr
      0005EA FF               [12] 2153 	mov	r7,a
      0005EB 4E               [12] 2154 	orl	a,r6
      0005EC 70 03            [24] 2155 	jnz	00259$
      0005EE 02r07r23         [24] 2156 	ljmp	00129$
      0005F1                       2157 00259$:
                                   2158 ;	USBHost.c:307: delayUs(200);
      0005F1 90 00 C8         [24] 2159 	mov	dptr,#0x00c8
      0005F4 C0 07            [24] 2160 	push	ar7
      0005F6 C0 06            [24] 2161 	push	ar6
      0005F8 C0 05            [24] 2162 	push	ar5
      0005FA C0 04            [24] 2163 	push	ar4
      0005FC C0 03            [24] 2164 	push	ar3
      0005FE 12r00r00         [24] 2165 	lcall	_delayUs
      000601 D0 03            [24] 2166 	pop	ar3
      000603 D0 04            [24] 2167 	pop	ar4
      000605 D0 05            [24] 2168 	pop	ar5
      000607 D0 06            [24] 2169 	pop	ar6
      000609 D0 07            [24] 2170 	pop	ar7
                                   2171 ;	USBHost.c:308: UH_TX_LEN = RemLen >= endpoint0Size ? endpoint0Size : RemLen;
      00060B 90r00r00         [24] 2172 	mov	dptr,#_endpoint0Size
      00060E E0               [24] 2173 	movx	a,@dptr
      00060F F9               [12] 2174 	mov	r1,a
      000610 7A 00            [12] 2175 	mov	r2,#0x00
      000612 C3               [12] 2176 	clr	c
      000613 EE               [12] 2177 	mov	a,r6
      000614 99               [12] 2178 	subb	a,r1
      000615 EF               [12] 2179 	mov	a,r7
      000616 9A               [12] 2180 	subb	a,r2
      000617 92*00            [24] 2181 	mov	_hostCtrlTransfer_sloc2_1_0,c
      000619 50 04            [24] 2182 	jnc	00145$
      00061B 8E 01            [24] 2183 	mov	ar1,r6
      00061D 8F 02            [24] 2184 	mov	ar2,r7
      00061F                       2185 00145$:
      00061F 89 D7            [24] 2186 	mov	_UEP3_T_LEN,r1
                                   2187 ;	USBHost.c:310: pBuf += UH_TX_LEN;
      000621 90r02r1E         [24] 2188 	mov	dptr,#_hostCtrlTransfer_pBuf_65536_97
      000624 E0               [24] 2189 	movx	a,@dptr
      000625 FE               [12] 2190 	mov	r6,a
      000626 A3               [24] 2191 	inc	dptr
      000627 E0               [24] 2192 	movx	a,@dptr
      000628 FF               [12] 2193 	mov	r7,a
      000629 E5 D7            [12] 2194 	mov	a,_UEP3_T_LEN
      00062B 2E               [12] 2195 	add	a,r6
      00062C FE               [12] 2196 	mov	r6,a
      00062D E4               [12] 2197 	clr	a
      00062E 3F               [12] 2198 	addc	a,r7
      00062F FF               [12] 2199 	mov	r7,a
      000630 90r02r1E         [24] 2200 	mov	dptr,#_hostCtrlTransfer_pBuf_65536_97
      000633 EE               [12] 2201 	mov	a,r6
      000634 F0               [24] 2202 	movx	@dptr,a
      000635 EF               [12] 2203 	mov	a,r7
      000636 A3               [24] 2204 	inc	dptr
      000637 F0               [24] 2205 	movx	@dptr,a
                                   2206 ;	USBHost.c:311: if (pBuf[1] == 0x09)
      000638 8E 82            [24] 2207 	mov	dpl,r6
      00063A 8F 83            [24] 2208 	mov	dph,r7
      00063C A3               [24] 2209 	inc	dptr
      00063D E0               [24] 2210 	movx	a,@dptr
      00063E FA               [12] 2211 	mov	r2,a
      00063F BA 09 4D         [24] 2212 	cjne	r2,#0x09,00117$
                                   2213 ;	USBHost.c:314: SetPort = SetPort ? 0 : 1;
      000642 90r02r1B         [24] 2214 	mov	dptr,#_hostCtrlTransfer_SetPort_65536_97
      000645 E0               [24] 2215 	movx	a,@dptr
      000646 60 06            [24] 2216 	jz	00146$
      000648 79 00            [12] 2217 	mov	r1,#0x00
      00064A 7A 00            [12] 2218 	mov	r2,#0x00
      00064C 80 04            [24] 2219 	sjmp	00147$
      00064E                       2220 00146$:
      00064E 79 01            [12] 2221 	mov	r1,#0x01
      000650 7A 00            [12] 2222 	mov	r2,#0x00
      000652                       2223 00147$:
      000652 90r02r1B         [24] 2224 	mov	dptr,#_hostCtrlTransfer_SetPort_65536_97
      000655 E9               [12] 2225 	mov	a,r1
      000656 F0               [24] 2226 	movx	@dptr,a
                                   2227 ;	USBHost.c:315: *pBuf = SetPort;
      000657 8E 82            [24] 2228 	mov	dpl,r6
      000659 8F 83            [24] 2229 	mov	dph,r7
      00065B E9               [12] 2230 	mov	a,r1
      00065C F0               [24] 2231 	movx	@dptr,a
                                   2232 ;	USBHost.c:317: DEBUG_OUT("SET_PORT  %02X  %02X ", *pBuf, SetPort);
      00065D 90r02r1B         [24] 2233 	mov	dptr,#_hostCtrlTransfer_SetPort_65536_97
      000660 E0               [24] 2234 	movx	a,@dptr
      000661 FF               [12] 2235 	mov	r7,a
      000662 7E 00            [12] 2236 	mov	r6,#0x00
      000664 7A 00            [12] 2237 	mov	r2,#0x00
      000666 C0 05            [24] 2238 	push	ar5
      000668 C0 04            [24] 2239 	push	ar4
      00066A C0 03            [24] 2240 	push	ar3
      00066C C0 07            [24] 2241 	push	ar7
      00066E C0 06            [24] 2242 	push	ar6
      000670 C0 01            [24] 2243 	push	ar1
      000672 C0 02            [24] 2244 	push	ar2
      000674 74r9D            [12] 2245 	mov	a,#___str_4
      000676 C0 E0            [24] 2246 	push	acc
      000678 74s00            [12] 2247 	mov	a,#(___str_4 >> 8)
      00067A C0 E0            [24] 2248 	push	acc
      00067C 74 80            [12] 2249 	mov	a,#0x80
      00067E C0 E0            [24] 2250 	push	acc
      000680 12r00r00         [24] 2251 	lcall	_printf
      000683 E5 81            [12] 2252 	mov	a,sp
      000685 24 F9            [12] 2253 	add	a,#0xf9
      000687 F5 81            [12] 2254 	mov	sp,a
      000689 D0 03            [24] 2255 	pop	ar3
      00068B D0 04            [24] 2256 	pop	ar4
      00068D D0 05            [24] 2257 	pop	ar5
      00068F                       2258 00117$:
                                   2259 ;	USBHost.c:319: DEBUG_OUT("Sending %i bytes\n", (uint16_t)UH_TX_LEN);
      00068F AE D7            [24] 2260 	mov	r6,_UEP3_T_LEN
      000691 7F 00            [12] 2261 	mov	r7,#0x00
      000693 C0 05            [24] 2262 	push	ar5
      000695 C0 04            [24] 2263 	push	ar4
      000697 C0 03            [24] 2264 	push	ar3
      000699 C0 06            [24] 2265 	push	ar6
      00069B C0 07            [24] 2266 	push	ar7
      00069D 74rB3            [12] 2267 	mov	a,#___str_5
      00069F C0 E0            [24] 2268 	push	acc
      0006A1 74s00            [12] 2269 	mov	a,#(___str_5 >> 8)
      0006A3 C0 E0            [24] 2270 	push	acc
      0006A5 74 80            [12] 2271 	mov	a,#0x80
      0006A7 C0 E0            [24] 2272 	push	acc
      0006A9 12r00r00         [24] 2273 	lcall	_printf
      0006AC E5 81            [12] 2274 	mov	a,sp
      0006AE 24 FB            [12] 2275 	add	a,#0xfb
      0006B0 F5 81            [12] 2276 	mov	sp,a
                                   2277 ;	USBHost.c:320: s = hostTransfer(USB_PID_OUT << 4, UH_TX_CTRL, 10000);
      0006B2 90r02r0E         [24] 2278 	mov	dptr,#_hostTransfer_PARM_2
      0006B5 E5 D6            [12] 2279 	mov	a,_UEP3_CTRL
      0006B7 F0               [24] 2280 	movx	@dptr,a
      0006B8 90r02r0F         [24] 2281 	mov	dptr,#_hostTransfer_PARM_3
      0006BB 74 10            [12] 2282 	mov	a,#0x10
      0006BD F0               [24] 2283 	movx	@dptr,a
      0006BE 74 27            [12] 2284 	mov	a,#0x27
      0006C0 A3               [24] 2285 	inc	dptr
      0006C1 F0               [24] 2286 	movx	@dptr,a
      0006C2 75 82 10         [24] 2287 	mov	dpl,#0x10
      0006C5 12r01rD8         [24] 2288 	lcall	_hostTransfer
      0006C8 AF 82            [24] 2289 	mov	r7,dpl
      0006CA D0 03            [24] 2290 	pop	ar3
      0006CC D0 04            [24] 2291 	pop	ar4
      0006CE D0 05            [24] 2292 	pop	ar5
                                   2293 ;	USBHost.c:321: if (s != ERR_SUCCESS)
      0006D0 EF               [12] 2294 	mov	a,r7
      0006D1 60 03            [24] 2295 	jz	00119$
                                   2296 ;	USBHost.c:322: return (s);
      0006D3 8F 82            [24] 2297 	mov	dpl,r7
      0006D5 22               [24] 2298 	ret
      0006D6                       2299 00119$:
                                   2300 ;	USBHost.c:323: RemLen -= UH_TX_LEN;
      0006D6 AE D7            [24] 2301 	mov	r6,_UEP3_T_LEN
      0006D8 7F 00            [12] 2302 	mov	r7,#0x00
      0006DA 90r02r1C         [24] 2303 	mov	dptr,#_hostCtrlTransfer_RemLen_65536_97
      0006DD E0               [24] 2304 	movx	a,@dptr
      0006DE F9               [12] 2305 	mov	r1,a
      0006DF A3               [24] 2306 	inc	dptr
      0006E0 E0               [24] 2307 	movx	a,@dptr
      0006E1 FA               [12] 2308 	mov	r2,a
      0006E2 E9               [12] 2309 	mov	a,r1
      0006E3 C3               [12] 2310 	clr	c
      0006E4 9E               [12] 2311 	subb	a,r6
      0006E5 F9               [12] 2312 	mov	r1,a
      0006E6 EA               [12] 2313 	mov	a,r2
      0006E7 9F               [12] 2314 	subb	a,r7
      0006E8 FA               [12] 2315 	mov	r2,a
      0006E9 90r02r1C         [24] 2316 	mov	dptr,#_hostCtrlTransfer_RemLen_65536_97
      0006EC E9               [12] 2317 	mov	a,r1
      0006ED F0               [24] 2318 	movx	@dptr,a
      0006EE EA               [12] 2319 	mov	a,r2
      0006EF A3               [24] 2320 	inc	dptr
      0006F0 F0               [24] 2321 	movx	@dptr,a
                                   2322 ;	USBHost.c:324: if (pLen)
      0006F1 EB               [12] 2323 	mov	a,r3
      0006F2 4C               [12] 2324 	orl	a,r4
      0006F3 70 03            [24] 2325 	jnz	00265$
      0006F5 02r05rE3         [24] 2326 	ljmp	00122$
      0006F8                       2327 00265$:
                                   2328 ;	USBHost.c:325: *pLen += UH_TX_LEN;
      0006F8 8B 82            [24] 2329 	mov	dpl,r3
      0006FA 8C 83            [24] 2330 	mov	dph,r4
      0006FC 8D F0            [24] 2331 	mov	b,r5
      0006FE 12r00r00         [24] 2332 	lcall	__gptrget
      000701 FE               [12] 2333 	mov	r6,a
      000702 A3               [24] 2334 	inc	dptr
      000703 12r00r00         [24] 2335 	lcall	__gptrget
      000706 FF               [12] 2336 	mov	r7,a
      000707 A9 D7            [24] 2337 	mov	r1,_UEP3_T_LEN
      000709 7A 00            [12] 2338 	mov	r2,#0x00
      00070B E9               [12] 2339 	mov	a,r1
      00070C 2E               [12] 2340 	add	a,r6
      00070D FE               [12] 2341 	mov	r6,a
      00070E EA               [12] 2342 	mov	a,r2
      00070F 3F               [12] 2343 	addc	a,r7
      000710 FF               [12] 2344 	mov	r7,a
      000711 8B 82            [24] 2345 	mov	dpl,r3
      000713 8C 83            [24] 2346 	mov	dph,r4
      000715 8D F0            [24] 2347 	mov	b,r5
      000717 EE               [12] 2348 	mov	a,r6
      000718 12r00r00         [24] 2349 	lcall	__gptrput
      00071B A3               [24] 2350 	inc	dptr
      00071C EF               [12] 2351 	mov	a,r7
      00071D 12r00r00         [24] 2352 	lcall	__gptrput
      000720 02r05rE3         [24] 2353 	ljmp	00122$
      000723                       2354 00129$:
                                   2355 ;	USBHost.c:329: delayUs(200);
      000723 90 00 C8         [24] 2356 	mov	dptr,#0x00c8
      000726 12r00r00         [24] 2357 	lcall	_delayUs
                                   2358 ;	USBHost.c:330: s = hostTransfer((UH_TX_LEN ? USB_PID_IN << 4 : USB_PID_OUT << 4), bUH_R_TOG | bUH_T_TOG, 10000);
      000729 E5 D7            [12] 2359 	mov	a,_UEP3_T_LEN
      00072B 60 04            [24] 2360 	jz	00148$
      00072D 7F 90            [12] 2361 	mov	r7,#0x90
      00072F 80 02            [24] 2362 	sjmp	00149$
      000731                       2363 00148$:
      000731 7F 10            [12] 2364 	mov	r7,#0x10
      000733                       2365 00149$:
      000733 90r02r0E         [24] 2366 	mov	dptr,#_hostTransfer_PARM_2
      000736 74 C0            [12] 2367 	mov	a,#0xc0
      000738 F0               [24] 2368 	movx	@dptr,a
      000739 90r02r0F         [24] 2369 	mov	dptr,#_hostTransfer_PARM_3
      00073C 74 10            [12] 2370 	mov	a,#0x10
      00073E F0               [24] 2371 	movx	@dptr,a
      00073F 74 27            [12] 2372 	mov	a,#0x27
      000741 A3               [24] 2373 	inc	dptr
      000742 F0               [24] 2374 	movx	@dptr,a
      000743 8F 82            [24] 2375 	mov	dpl,r7
      000745 12r01rD8         [24] 2376 	lcall	_hostTransfer
                                   2377 ;	USBHost.c:331: if (s != ERR_SUCCESS)
      000748 E5 82            [12] 2378 	mov	a,dpl
      00074A FF               [12] 2379 	mov	r7,a
      00074B 60 03            [24] 2380 	jz	00132$
                                   2381 ;	USBHost.c:332: return (s);
      00074D 8F 82            [24] 2382 	mov	dpl,r7
      00074F 22               [24] 2383 	ret
      000750                       2384 00132$:
                                   2385 ;	USBHost.c:333: if (UH_TX_LEN == 0)
      000750 E5 D7            [12] 2386 	mov	a,_UEP3_T_LEN
                                   2387 ;	USBHost.c:334: return (ERR_SUCCESS);
      000752 70 03            [24] 2388 	jnz	00134$
      000754 F5 82            [12] 2389 	mov	dpl,a
      000756 22               [24] 2390 	ret
      000757                       2391 00134$:
                                   2392 ;	USBHost.c:335: if (USB_RX_LEN == 0)
      000757 E5 D1            [12] 2393 	mov	a,_USB_RX_LEN
                                   2394 ;	USBHost.c:336: return (ERR_SUCCESS);
      000759 70 03            [24] 2395 	jnz	00136$
      00075B F5 82            [12] 2396 	mov	dpl,a
      00075D 22               [24] 2397 	ret
      00075E                       2398 00136$:
                                   2399 ;	USBHost.c:337: return (ERR_USB_BUF_OVER);
      00075E 75 82 17         [24] 2400 	mov	dpl,#0x17
                                   2401 ;	USBHost.c:338: }
      000761 22               [24] 2402 	ret
                                   2403 ;------------------------------------------------------------
                                   2404 ;Allocation info for local variables in function 'fillTxBuffer'
                                   2405 ;------------------------------------------------------------
                                   2406 ;len                       Allocated with name '_fillTxBuffer_PARM_2'
                                   2407 ;data                      Allocated with name '_fillTxBuffer_data_65536_106'
                                   2408 ;i                         Allocated with name '_fillTxBuffer_i_65536_107'
                                   2409 ;------------------------------------------------------------
                                   2410 ;	USBHost.c:340: void fillTxBuffer(PUINT8C data, unsigned char len)
                                   2411 ;	-----------------------------------------
                                   2412 ;	 function fillTxBuffer
                                   2413 ;	-----------------------------------------
      000762                       2414 _fillTxBuffer:
      000762 AF 83            [24] 2415 	mov	r7,dph
      000764 E5 82            [12] 2416 	mov	a,dpl
      000766 90r02r21         [24] 2417 	mov	dptr,#_fillTxBuffer_data_65536_106
      000769 F0               [24] 2418 	movx	@dptr,a
      00076A EF               [12] 2419 	mov	a,r7
      00076B A3               [24] 2420 	inc	dptr
      00076C F0               [24] 2421 	movx	@dptr,a
                                   2422 ;	USBHost.c:343: DEBUG_OUT("fillTxBuffer %i bytes\n", len);
      00076D 90r02r20         [24] 2423 	mov	dptr,#_fillTxBuffer_PARM_2
      000770 E0               [24] 2424 	movx	a,@dptr
      000771 FF               [12] 2425 	mov	r7,a
      000772 FD               [12] 2426 	mov	r5,a
      000773 7E 00            [12] 2427 	mov	r6,#0x00
      000775 C0 07            [24] 2428 	push	ar7
      000777 C0 06            [24] 2429 	push	ar6
      000779 C0 05            [24] 2430 	push	ar5
      00077B C0 05            [24] 2431 	push	ar5
      00077D C0 06            [24] 2432 	push	ar6
      00077F 74rC5            [12] 2433 	mov	a,#___str_6
      000781 C0 E0            [24] 2434 	push	acc
      000783 74s00            [12] 2435 	mov	a,#(___str_6 >> 8)
      000785 C0 E0            [24] 2436 	push	acc
      000787 74 80            [12] 2437 	mov	a,#0x80
      000789 C0 E0            [24] 2438 	push	acc
      00078B 12r00r00         [24] 2439 	lcall	_printf
      00078E E5 81            [12] 2440 	mov	a,sp
      000790 24 FB            [12] 2441 	add	a,#0xfb
      000792 F5 81            [12] 2442 	mov	sp,a
      000794 D0 05            [24] 2443 	pop	ar5
      000796 D0 06            [24] 2444 	pop	ar6
      000798 D0 07            [24] 2445 	pop	ar7
                                   2446 ;	USBHost.c:344: for(i = 0; i < len; i++)
      00079A 90r02r21         [24] 2447 	mov	dptr,#_fillTxBuffer_data_65536_106
      00079D E0               [24] 2448 	movx	a,@dptr
      00079E FB               [12] 2449 	mov	r3,a
      00079F A3               [24] 2450 	inc	dptr
      0007A0 E0               [24] 2451 	movx	a,@dptr
      0007A1 FC               [12] 2452 	mov	r4,a
      0007A2 7A 00            [12] 2453 	mov	r2,#0x00
      0007A4                       2454 00103$:
      0007A4 C3               [12] 2455 	clr	c
      0007A5 EA               [12] 2456 	mov	a,r2
      0007A6 9F               [12] 2457 	subb	a,r7
      0007A7 50 1E            [24] 2458 	jnc	00101$
                                   2459 ;	USBHost.c:345: TxBuffer[i] = data[i];
      0007A9 C0 05            [24] 2460 	push	ar5
      0007AB C0 06            [24] 2461 	push	ar6
      0007AD 8A 00            [24] 2462 	mov	ar0,r2
      0007AF 79 01            [12] 2463 	mov	r1,#(_TxBuffer >> 8)
      0007B1 EA               [12] 2464 	mov	a,r2
      0007B2 2B               [12] 2465 	add	a,r3
      0007B3 F5 82            [12] 2466 	mov	dpl,a
      0007B5 E4               [12] 2467 	clr	a
      0007B6 3C               [12] 2468 	addc	a,r4
      0007B7 F5 83            [12] 2469 	mov	dph,a
      0007B9 E4               [12] 2470 	clr	a
      0007BA 93               [24] 2471 	movc	a,@a+dptr
      0007BB 88 82            [24] 2472 	mov	dpl,r0
      0007BD 89 83            [24] 2473 	mov	dph,r1
      0007BF F0               [24] 2474 	movx	@dptr,a
                                   2475 ;	USBHost.c:344: for(i = 0; i < len; i++)
      0007C0 0A               [12] 2476 	inc	r2
      0007C1 D0 06            [24] 2477 	pop	ar6
      0007C3 D0 05            [24] 2478 	pop	ar5
      0007C5 80 DD            [24] 2479 	sjmp	00103$
      0007C7                       2480 00101$:
                                   2481 ;	USBHost.c:346: DEBUG_OUT("fillTxBuffer done\n", len);
      0007C7 C0 05            [24] 2482 	push	ar5
      0007C9 C0 06            [24] 2483 	push	ar6
      0007CB 74rDC            [12] 2484 	mov	a,#___str_7
      0007CD C0 E0            [24] 2485 	push	acc
      0007CF 74s00            [12] 2486 	mov	a,#(___str_7 >> 8)
      0007D1 C0 E0            [24] 2487 	push	acc
      0007D3 74 80            [12] 2488 	mov	a,#0x80
      0007D5 C0 E0            [24] 2489 	push	acc
      0007D7 12r00r00         [24] 2490 	lcall	_printf
      0007DA E5 81            [12] 2491 	mov	a,sp
      0007DC 24 FB            [12] 2492 	add	a,#0xfb
      0007DE F5 81            [12] 2493 	mov	sp,a
                                   2494 ;	USBHost.c:347: }
      0007E0 22               [24] 2495 	ret
                                   2496 ;------------------------------------------------------------
                                   2497 ;Allocation info for local variables in function 'getDeviceDescriptor'
                                   2498 ;------------------------------------------------------------
                                   2499 ;s                         Allocated with name '_getDeviceDescriptor_s_65536_109'
                                   2500 ;len                       Allocated with name '_getDeviceDescriptor_len_65536_109'
                                   2501 ;------------------------------------------------------------
                                   2502 ;	USBHost.c:349: unsigned char getDeviceDescriptor()
                                   2503 ;	-----------------------------------------
                                   2504 ;	 function getDeviceDescriptor
                                   2505 ;	-----------------------------------------
      0007E1                       2506 _getDeviceDescriptor:
                                   2507 ;	USBHost.c:353: endpoint0Size = DEFAULT_ENDP0_SIZE;        //TODO again?
      0007E1 90r00r00         [24] 2508 	mov	dptr,#_endpoint0Size
      0007E4 74 08            [12] 2509 	mov	a,#0x08
      0007E6 F0               [24] 2510 	movx	@dptr,a
                                   2511 ;	USBHost.c:354: DEBUG_OUT("getDeviceDescriptor\n");
      0007E7 74rEF            [12] 2512 	mov	a,#___str_8
      0007E9 C0 E0            [24] 2513 	push	acc
      0007EB 74s00            [12] 2514 	mov	a,#(___str_8 >> 8)
      0007ED C0 E0            [24] 2515 	push	acc
      0007EF 74 80            [12] 2516 	mov	a,#0x80
      0007F1 C0 E0            [24] 2517 	push	acc
      0007F3 12r00r00         [24] 2518 	lcall	_printf
      0007F6 15 81            [12] 2519 	dec	sp
      0007F8 15 81            [12] 2520 	dec	sp
      0007FA 15 81            [12] 2521 	dec	sp
                                   2522 ;	USBHost.c:355: fillTxBuffer(GetDeviceDescriptorRequest, sizeof(GetDeviceDescriptorRequest));
      0007FC 90r02r20         [24] 2523 	mov	dptr,#_fillTxBuffer_PARM_2
      0007FF 74 08            [12] 2524 	mov	a,#0x08
      000801 F0               [24] 2525 	movx	@dptr,a
      000802 90r00r00         [24] 2526 	mov	dptr,#_GetDeviceDescriptorRequest
      000805 12r07r62         [24] 2527 	lcall	_fillTxBuffer
                                   2528 ;	USBHost.c:356: s = hostCtrlTransfer(receiveDataBuffer, &len, RECEIVE_BUFFER_LEN);          
      000808 90r02r14         [24] 2529 	mov	dptr,#_hostCtrlTransfer_PARM_2
      00080B 74r23            [12] 2530 	mov	a,#_getDeviceDescriptor_len_65536_109
      00080D F0               [24] 2531 	movx	@dptr,a
      00080E 74s02            [12] 2532 	mov	a,#(_getDeviceDescriptor_len_65536_109 >> 8)
      000810 A3               [24] 2533 	inc	dptr
      000811 F0               [24] 2534 	movx	@dptr,a
      000812 E4               [12] 2535 	clr	a
      000813 A3               [24] 2536 	inc	dptr
      000814 F0               [24] 2537 	movx	@dptr,a
      000815 90r02r17         [24] 2538 	mov	dptr,#_hostCtrlTransfer_PARM_3
      000818 F0               [24] 2539 	movx	@dptr,a
      000819 74 02            [12] 2540 	mov	a,#0x02
      00081B A3               [24] 2541 	inc	dptr
      00081C F0               [24] 2542 	movx	@dptr,a
      00081D 90r00r01         [24] 2543 	mov	dptr,#_receiveDataBuffer
      000820 12r03r99         [24] 2544 	lcall	_hostCtrlTransfer
                                   2545 ;	USBHost.c:357: if (s != ERR_SUCCESS)
      000823 E5 82            [12] 2546 	mov	a,dpl
      000825 FF               [12] 2547 	mov	r7,a
      000826 60 03            [24] 2548 	jz	00102$
                                   2549 ;	USBHost.c:358: return s;
      000828 8F 82            [24] 2550 	mov	dpl,r7
      00082A 22               [24] 2551 	ret
      00082B                       2552 00102$:
                                   2553 ;	USBHost.c:360: DEBUG_OUT("Device descriptor request sent successfully\n");
      00082B 74r04            [12] 2554 	mov	a,#___str_9
      00082D C0 E0            [24] 2555 	push	acc
      00082F 74s01            [12] 2556 	mov	a,#(___str_9 >> 8)
      000831 C0 E0            [24] 2557 	push	acc
      000833 74 80            [12] 2558 	mov	a,#0x80
      000835 C0 E0            [24] 2559 	push	acc
      000837 12r00r00         [24] 2560 	lcall	_printf
      00083A 15 81            [12] 2561 	dec	sp
      00083C 15 81            [12] 2562 	dec	sp
      00083E 15 81            [12] 2563 	dec	sp
                                   2564 ;	USBHost.c:361: endpoint0Size = ((PXUSB_DEV_DESCR)receiveDataBuffer)->bMaxPacketSize0;
      000840 90r00r08         [24] 2565 	mov	dptr,#(_receiveDataBuffer + 0x0007)
      000843 E0               [24] 2566 	movx	a,@dptr
      000844 90r00r00         [24] 2567 	mov	dptr,#_endpoint0Size
      000847 F0               [24] 2568 	movx	@dptr,a
                                   2569 ;	USBHost.c:362: if (len < ((PUSB_SETUP_REQ)GetDeviceDescriptorRequest)->wLengthL)
      000848 90r00r06         [24] 2570 	mov	dptr,#(_GetDeviceDescriptorRequest + 0x0006)
      00084B E4               [12] 2571 	clr	a
      00084C 93               [24] 2572 	movc	a,@a+dptr
      00084D FF               [12] 2573 	mov	r7,a
      00084E 90r02r23         [24] 2574 	mov	dptr,#_getDeviceDescriptor_len_65536_109
      000851 E0               [24] 2575 	movx	a,@dptr
      000852 FD               [12] 2576 	mov	r5,a
      000853 A3               [24] 2577 	inc	dptr
      000854 E0               [24] 2578 	movx	a,@dptr
      000855 FE               [12] 2579 	mov	r6,a
      000856 7C 00            [12] 2580 	mov	r4,#0x00
      000858 C3               [12] 2581 	clr	c
      000859 ED               [12] 2582 	mov	a,r5
      00085A 9F               [12] 2583 	subb	a,r7
      00085B EE               [12] 2584 	mov	a,r6
      00085C 9C               [12] 2585 	subb	a,r4
      00085D 50 19            [24] 2586 	jnc	00104$
                                   2587 ;	USBHost.c:364: DEBUG_OUT("Received packet is smaller than expected\n")
      00085F 74r31            [12] 2588 	mov	a,#___str_10
      000861 C0 E0            [24] 2589 	push	acc
      000863 74s01            [12] 2590 	mov	a,#(___str_10 >> 8)
      000865 C0 E0            [24] 2591 	push	acc
      000867 74 80            [12] 2592 	mov	a,#0x80
      000869 C0 E0            [24] 2593 	push	acc
      00086B 12r00r00         [24] 2594 	lcall	_printf
      00086E 15 81            [12] 2595 	dec	sp
      000870 15 81            [12] 2596 	dec	sp
      000872 15 81            [12] 2597 	dec	sp
                                   2598 ;	USBHost.c:365: return ERR_USB_BUF_OVER;                
      000874 75 82 17         [24] 2599 	mov	dpl,#0x17
      000877 22               [24] 2600 	ret
      000878                       2601 00104$:
                                   2602 ;	USBHost.c:367: return ERR_SUCCESS;
      000878 75 82 00         [24] 2603 	mov	dpl,#0x00
                                   2604 ;	USBHost.c:368: }
      00087B 22               [24] 2605 	ret
                                   2606 ;------------------------------------------------------------
                                   2607 ;Allocation info for local variables in function 'setUsbAddress'
                                   2608 ;------------------------------------------------------------
                                   2609 ;addr                      Allocated with name '_setUsbAddress_addr_65536_111'
                                   2610 ;s                         Allocated with name '_setUsbAddress_s_65536_112'
                                   2611 ;pSetupReq                 Allocated with name '_setUsbAddress_pSetupReq_65536_112'
                                   2612 ;------------------------------------------------------------
                                   2613 ;	USBHost.c:370: unsigned char setUsbAddress(unsigned char addr)
                                   2614 ;	-----------------------------------------
                                   2615 ;	 function setUsbAddress
                                   2616 ;	-----------------------------------------
      00087C                       2617 _setUsbAddress:
      00087C E5 82            [12] 2618 	mov	a,dpl
      00087E 90r02r25         [24] 2619 	mov	dptr,#_setUsbAddress_addr_65536_111
      000881 F0               [24] 2620 	movx	@dptr,a
                                   2621 ;	USBHost.c:373: PXUSB_SETUP_REQ pSetupReq = ((PXUSB_SETUP_REQ)TxBuffer);
                                   2622 ;	USBHost.c:374: fillTxBuffer(SetUSBAddressRequest, sizeof(SetUSBAddressRequest));
      000882 90r02r20         [24] 2623 	mov	dptr,#_fillTxBuffer_PARM_2
      000885 74 08            [12] 2624 	mov	a,#0x08
      000887 F0               [24] 2625 	movx	@dptr,a
      000888 90r00r18         [24] 2626 	mov	dptr,#_SetUSBAddressRequest
      00088B 12r07r62         [24] 2627 	lcall	_fillTxBuffer
                                   2628 ;	USBHost.c:375: pSetupReq->wValueL = addr;          
      00088E 90r02r25         [24] 2629 	mov	dptr,#_setUsbAddress_addr_65536_111
      000891 E0               [24] 2630 	movx	a,@dptr
      000892 FF               [12] 2631 	mov	r7,a
      000893 90 01 02         [24] 2632 	mov	dptr,#(_TxBuffer + 0x0002)
      000896 F0               [24] 2633 	movx	@dptr,a
                                   2634 ;	USBHost.c:376: s = hostCtrlTransfer(0, 0, 0);   
      000897 90r02r14         [24] 2635 	mov	dptr,#_hostCtrlTransfer_PARM_2
      00089A E4               [12] 2636 	clr	a
      00089B F0               [24] 2637 	movx	@dptr,a
      00089C A3               [24] 2638 	inc	dptr
      00089D F0               [24] 2639 	movx	@dptr,a
      00089E A3               [24] 2640 	inc	dptr
      00089F F0               [24] 2641 	movx	@dptr,a
      0008A0 90r02r17         [24] 2642 	mov	dptr,#_hostCtrlTransfer_PARM_3
      0008A3 F0               [24] 2643 	movx	@dptr,a
      0008A4 A3               [24] 2644 	inc	dptr
      0008A5 F0               [24] 2645 	movx	@dptr,a
      0008A6 90 00 00         [24] 2646 	mov	dptr,#0x0000
      0008A9 C0 07            [24] 2647 	push	ar7
      0008AB 12r03r99         [24] 2648 	lcall	_hostCtrlTransfer
      0008AE AE 82            [24] 2649 	mov	r6,dpl
      0008B0 D0 07            [24] 2650 	pop	ar7
                                   2651 ;	USBHost.c:377: if (s != ERR_SUCCESS) return s;
      0008B2 EE               [12] 2652 	mov	a,r6
      0008B3 60 03            [24] 2653 	jz	00102$
      0008B5 8E 82            [24] 2654 	mov	dpl,r6
      0008B7 22               [24] 2655 	ret
      0008B8                       2656 00102$:
                                   2657 ;	USBHost.c:378: DEBUG_OUT( "SetAddress: %i\n" , addr);
      0008B8 8F 05            [24] 2658 	mov	ar5,r7
      0008BA 7E 00            [12] 2659 	mov	r6,#0x00
      0008BC C0 07            [24] 2660 	push	ar7
      0008BE C0 05            [24] 2661 	push	ar5
      0008C0 C0 06            [24] 2662 	push	ar6
      0008C2 74r5B            [12] 2663 	mov	a,#___str_11
      0008C4 C0 E0            [24] 2664 	push	acc
      0008C6 74s01            [12] 2665 	mov	a,#(___str_11 >> 8)
      0008C8 C0 E0            [24] 2666 	push	acc
      0008CA 74 80            [12] 2667 	mov	a,#0x80
      0008CC C0 E0            [24] 2668 	push	acc
      0008CE 12r00r00         [24] 2669 	lcall	_printf
      0008D1 E5 81            [12] 2670 	mov	a,sp
      0008D3 24 FB            [12] 2671 	add	a,#0xfb
      0008D5 F5 81            [12] 2672 	mov	sp,a
      0008D7 D0 07            [24] 2673 	pop	ar7
                                   2674 ;	USBHost.c:379: setHostUsbAddr(addr);
      0008D9 8F 82            [24] 2675 	mov	dpl,r7
      0008DB 12r00r6E         [24] 2676 	lcall	_setHostUsbAddr
                                   2677 ;	USBHost.c:380: delay(100);         
      0008DE 90 00 64         [24] 2678 	mov	dptr,#0x0064
      0008E1 12r00r00         [24] 2679 	lcall	_delay
                                   2680 ;	USBHost.c:381: return ERR_SUCCESS;
      0008E4 75 82 00         [24] 2681 	mov	dpl,#0x00
                                   2682 ;	USBHost.c:382: }
      0008E7 22               [24] 2683 	ret
                                   2684 ;------------------------------------------------------------
                                   2685 ;Allocation info for local variables in function 'setUsbConfig'
                                   2686 ;------------------------------------------------------------
                                   2687 ;cfg                       Allocated with name '_setUsbConfig_cfg_65536_113'
                                   2688 ;pSetupReq                 Allocated with name '_setUsbConfig_pSetupReq_65536_114'
                                   2689 ;------------------------------------------------------------
                                   2690 ;	USBHost.c:384: unsigned char setUsbConfig( unsigned char cfg )
                                   2691 ;	-----------------------------------------
                                   2692 ;	 function setUsbConfig
                                   2693 ;	-----------------------------------------
      0008E8                       2694 _setUsbConfig:
      0008E8 E5 82            [12] 2695 	mov	a,dpl
      0008EA 90r02r26         [24] 2696 	mov	dptr,#_setUsbConfig_cfg_65536_113
      0008ED F0               [24] 2697 	movx	@dptr,a
                                   2698 ;	USBHost.c:386: PXUSB_SETUP_REQ pSetupReq = ((PXUSB_SETUP_REQ)TxBuffer);
                                   2699 ;	USBHost.c:387: fillTxBuffer(SetupSetUsbConfig, sizeof(SetupSetUsbConfig));
      0008EE 90r02r20         [24] 2700 	mov	dptr,#_fillTxBuffer_PARM_2
      0008F1 74 08            [12] 2701 	mov	a,#0x08
      0008F3 F0               [24] 2702 	movx	@dptr,a
      0008F4 90r00r28         [24] 2703 	mov	dptr,#_SetupSetUsbConfig
      0008F7 12r07r62         [24] 2704 	lcall	_fillTxBuffer
                                   2705 ;	USBHost.c:388: pSetupReq->wValueL = cfg;                          
      0008FA 90r02r26         [24] 2706 	mov	dptr,#_setUsbConfig_cfg_65536_113
      0008FD E0               [24] 2707 	movx	a,@dptr
      0008FE 90 01 02         [24] 2708 	mov	dptr,#(_TxBuffer + 0x0002)
      000901 F0               [24] 2709 	movx	@dptr,a
                                   2710 ;	USBHost.c:389: return( hostCtrlTransfer(0, 0, 0) );            
      000902 90r02r14         [24] 2711 	mov	dptr,#_hostCtrlTransfer_PARM_2
      000905 E4               [12] 2712 	clr	a
      000906 F0               [24] 2713 	movx	@dptr,a
      000907 A3               [24] 2714 	inc	dptr
      000908 F0               [24] 2715 	movx	@dptr,a
      000909 A3               [24] 2716 	inc	dptr
      00090A F0               [24] 2717 	movx	@dptr,a
      00090B 90r02r17         [24] 2718 	mov	dptr,#_hostCtrlTransfer_PARM_3
      00090E F0               [24] 2719 	movx	@dptr,a
      00090F A3               [24] 2720 	inc	dptr
      000910 F0               [24] 2721 	movx	@dptr,a
      000911 90 00 00         [24] 2722 	mov	dptr,#0x0000
                                   2723 ;	USBHost.c:390: }
      000914 02r03r99         [24] 2724 	ljmp	_hostCtrlTransfer
                                   2725 ;------------------------------------------------------------
                                   2726 ;Allocation info for local variables in function 'getDeviceString'
                                   2727 ;------------------------------------------------------------
                                   2728 ;	USBHost.c:392: unsigned char getDeviceString()
                                   2729 ;	-----------------------------------------
                                   2730 ;	 function getDeviceString
                                   2731 ;	-----------------------------------------
      000917                       2732 _getDeviceString:
                                   2733 ;	USBHost.c:394: fillTxBuffer(GetDeviceStringRequest, sizeof(GetDeviceStringRequest));                         
      000917 90r02r20         [24] 2734 	mov	dptr,#_fillTxBuffer_PARM_2
      00091A 74 08            [12] 2735 	mov	a,#0x08
      00091C F0               [24] 2736 	movx	@dptr,a
      00091D 90r00r20         [24] 2737 	mov	dptr,#_GetDeviceStringRequest
      000920 12r07r62         [24] 2738 	lcall	_fillTxBuffer
                                   2739 ;	USBHost.c:395: return hostCtrlTransfer(receiveDataBuffer, 0, RECEIVE_BUFFER_LEN);
      000923 90r02r14         [24] 2740 	mov	dptr,#_hostCtrlTransfer_PARM_2
      000926 E4               [12] 2741 	clr	a
      000927 F0               [24] 2742 	movx	@dptr,a
      000928 A3               [24] 2743 	inc	dptr
      000929 F0               [24] 2744 	movx	@dptr,a
      00092A A3               [24] 2745 	inc	dptr
      00092B F0               [24] 2746 	movx	@dptr,a
      00092C 90r02r17         [24] 2747 	mov	dptr,#_hostCtrlTransfer_PARM_3
      00092F F0               [24] 2748 	movx	@dptr,a
      000930 74 02            [12] 2749 	mov	a,#0x02
      000932 A3               [24] 2750 	inc	dptr
      000933 F0               [24] 2751 	movx	@dptr,a
      000934 90r00r01         [24] 2752 	mov	dptr,#_receiveDataBuffer
                                   2753 ;	USBHost.c:396: }
      000937 02r03r99         [24] 2754 	ljmp	_hostCtrlTransfer
                                   2755 ;------------------------------------------------------------
                                   2756 ;Allocation info for local variables in function 'convertStringDescriptor'
                                   2757 ;------------------------------------------------------------
                                   2758 ;sloc0                     Allocated with name '_convertStringDescriptor_sloc0_1_0'
                                   2759 ;sloc1                     Allocated with name '_convertStringDescriptor_sloc1_1_0'
                                   2760 ;sloc2                     Allocated with name '_convertStringDescriptor_sloc2_1_0'
                                   2761 ;sloc3                     Allocated with name '_convertStringDescriptor_sloc3_1_0'
                                   2762 ;strBuffer                 Allocated with name '_convertStringDescriptor_PARM_2'
                                   2763 ;bufferLength              Allocated with name '_convertStringDescriptor_PARM_3'
                                   2764 ;index                     Allocated with name '_convertStringDescriptor_PARM_4'
                                   2765 ;usbBuffer                 Allocated with name '_convertStringDescriptor_usbBuffer_65536_116'
                                   2766 ;i                         Allocated with name '_convertStringDescriptor_i_65536_117'
                                   2767 ;len                       Allocated with name '_convertStringDescriptor_len_65536_117'
                                   2768 ;------------------------------------------------------------
                                   2769 ;	USBHost.c:398: char convertStringDescriptor(unsigned char __xdata *usbBuffer, unsigned char __xdata *strBuffer, unsigned short bufferLength, unsigned char index)
                                   2770 ;	-----------------------------------------
                                   2771 ;	 function convertStringDescriptor
                                   2772 ;	-----------------------------------------
      00093A                       2773 _convertStringDescriptor:
      00093A AF 83            [24] 2774 	mov	r7,dph
      00093C E5 82            [12] 2775 	mov	a,dpl
      00093E 90r02r2C         [24] 2776 	mov	dptr,#_convertStringDescriptor_usbBuffer_65536_116
      000941 F0               [24] 2777 	movx	@dptr,a
      000942 EF               [12] 2778 	mov	a,r7
      000943 A3               [24] 2779 	inc	dptr
      000944 F0               [24] 2780 	movx	@dptr,a
                                   2781 ;	USBHost.c:401: unsigned char i = 0, len = (usbBuffer[0] - 2) >> 1;
      000945 90r02r2C         [24] 2782 	mov	dptr,#_convertStringDescriptor_usbBuffer_65536_116
      000948 E0               [24] 2783 	movx	a,@dptr
      000949 FE               [12] 2784 	mov	r6,a
      00094A A3               [24] 2785 	inc	dptr
      00094B E0               [24] 2786 	movx	a,@dptr
      00094C FF               [12] 2787 	mov	r7,a
      00094D 8E 82            [24] 2788 	mov	dpl,r6
      00094F 8F 83            [24] 2789 	mov	dph,r7
      000951 E0               [24] 2790 	movx	a,@dptr
      000952 7C 00            [12] 2791 	mov	r4,#0x00
      000954 24 FE            [12] 2792 	add	a,#0xfe
      000956 FD               [12] 2793 	mov	r5,a
      000957 EC               [12] 2794 	mov	a,r4
      000958 34 FF            [12] 2795 	addc	a,#0xff
      00095A A2 E7            [12] 2796 	mov	c,acc.7
      00095C 13               [12] 2797 	rrc	a
      00095D CD               [12] 2798 	xch	a,r5
      00095E 13               [12] 2799 	rrc	a
      00095F CD               [12] 2800 	xch	a,r5
                                   2801 ;	USBHost.c:402: if(usbBuffer[1] != 3) return 0;    //check if device string
      000960 8E 82            [24] 2802 	mov	dpl,r6
      000962 8F 83            [24] 2803 	mov	dph,r7
      000964 A3               [24] 2804 	inc	dptr
      000965 E0               [24] 2805 	movx	a,@dptr
      000966 FC               [12] 2806 	mov	r4,a
      000967 BC 03 02         [24] 2807 	cjne	r4,#0x03,00134$
      00096A 80 04            [24] 2808 	sjmp	00117$
      00096C                       2809 00134$:
      00096C 75 82 00         [24] 2810 	mov	dpl,#0x00
      00096F 22               [24] 2811 	ret
      000970                       2812 00117$:
      000970 90r02r29         [24] 2813 	mov	dptr,#_convertStringDescriptor_PARM_3
      000973 E0               [24] 2814 	movx	a,@dptr
      000974 F5*0A            [12] 2815 	mov	_convertStringDescriptor_sloc1_1_0,a
      000976 A3               [24] 2816 	inc	dptr
      000977 E0               [24] 2817 	movx	a,@dptr
      000978 F5*0B            [12] 2818 	mov	(_convertStringDescriptor_sloc1_1_0 + 1),a
      00097A 90r02r27         [24] 2819 	mov	dptr,#_convertStringDescriptor_PARM_2
      00097D E0               [24] 2820 	movx	a,@dptr
      00097E F5*0E            [12] 2821 	mov	_convertStringDescriptor_sloc3_1_0,a
      000980 A3               [24] 2822 	inc	dptr
      000981 E0               [24] 2823 	movx	a,@dptr
      000982 F5*0F            [12] 2824 	mov	(_convertStringDescriptor_sloc3_1_0 + 1),a
      000984 85*0E*08         [24] 2825 	mov	_convertStringDescriptor_sloc0_1_0,_convertStringDescriptor_sloc3_1_0
      000987 85*0F*09         [24] 2826 	mov	(_convertStringDescriptor_sloc0_1_0 + 1),(_convertStringDescriptor_sloc3_1_0 + 1)
      00098A 78 00            [12] 2827 	mov	r0,#0x00
      00098C                       2828 00109$:
                                   2829 ;	USBHost.c:403: for(; (i < len) && (i < bufferLength - 1); i++)
      00098C C3               [12] 2830 	clr	c
      00098D E8               [12] 2831 	mov	a,r0
      00098E 9D               [12] 2832 	subb	a,r5
      00098F 50 71            [24] 2833 	jnc	00106$
      000991 C0 05            [24] 2834 	push	ar5
      000993 AC*0A            [24] 2835 	mov	r4,_convertStringDescriptor_sloc1_1_0
      000995 AD*0B            [24] 2836 	mov	r5,(_convertStringDescriptor_sloc1_1_0 + 1)
      000997 EC               [12] 2837 	mov	a,r4
      000998 24 FF            [12] 2838 	add	a,#0xff
      00099A F5*0C            [12] 2839 	mov	_convertStringDescriptor_sloc2_1_0,a
      00099C ED               [12] 2840 	mov	a,r5
      00099D 34 FF            [12] 2841 	addc	a,#0xff
      00099F F5*0D            [12] 2842 	mov	(_convertStringDescriptor_sloc2_1_0 + 1),a
      0009A1 88 03            [24] 2843 	mov	ar3,r0
      0009A3 7D 00            [12] 2844 	mov	r5,#0x00
      0009A5 C3               [12] 2845 	clr	c
      0009A6 EB               [12] 2846 	mov	a,r3
      0009A7 95*0C            [12] 2847 	subb	a,_convertStringDescriptor_sloc2_1_0
      0009A9 ED               [12] 2848 	mov	a,r5
      0009AA 95*0D            [12] 2849 	subb	a,(_convertStringDescriptor_sloc2_1_0 + 1)
      0009AC D0 05            [24] 2850 	pop	ar5
      0009AE 50 52            [24] 2851 	jnc	00106$
                                   2852 ;	USBHost.c:404: if(usbBuffer[2 + 1 + (i << 1)])
      0009B0 C0 05            [24] 2853 	push	ar5
      0009B2 88 03            [24] 2854 	mov	ar3,r0
      0009B4 7C 00            [12] 2855 	mov	r4,#0x00
      0009B6 EB               [12] 2856 	mov	a,r3
      0009B7 2B               [12] 2857 	add	a,r3
      0009B8 FB               [12] 2858 	mov	r3,a
      0009B9 EC               [12] 2859 	mov	a,r4
      0009BA 33               [12] 2860 	rlc	a
      0009BB FC               [12] 2861 	mov	r4,a
      0009BC 74 03            [12] 2862 	mov	a,#0x03
      0009BE 2B               [12] 2863 	add	a,r3
      0009BF FA               [12] 2864 	mov	r2,a
      0009C0 E4               [12] 2865 	clr	a
      0009C1 3C               [12] 2866 	addc	a,r4
      0009C2 FD               [12] 2867 	mov	r5,a
      0009C3 EA               [12] 2868 	mov	a,r2
      0009C4 2E               [12] 2869 	add	a,r6
      0009C5 FA               [12] 2870 	mov	r2,a
      0009C6 ED               [12] 2871 	mov	a,r5
      0009C7 3F               [12] 2872 	addc	a,r7
      0009C8 FD               [12] 2873 	mov	r5,a
      0009C9 8A 82            [24] 2874 	mov	dpl,r2
      0009CB 8D 83            [24] 2875 	mov	dph,r5
      0009CD E0               [24] 2876 	movx	a,@dptr
      0009CE D0 05            [24] 2877 	pop	ar5
      0009D0 60 0F            [24] 2878 	jz	00104$
                                   2879 ;	USBHost.c:405: strBuffer[i] = '?';
      0009D2 E8               [12] 2880 	mov	a,r0
      0009D3 25*08            [12] 2881 	add	a,_convertStringDescriptor_sloc0_1_0
      0009D5 F5 82            [12] 2882 	mov	dpl,a
      0009D7 E4               [12] 2883 	clr	a
      0009D8 35*09            [12] 2884 	addc	a,(_convertStringDescriptor_sloc0_1_0 + 1)
      0009DA F5 83            [12] 2885 	mov	dph,a
      0009DC 74 3F            [12] 2886 	mov	a,#0x3f
      0009DE F0               [24] 2887 	movx	@dptr,a
      0009DF 80 1E            [24] 2888 	sjmp	00110$
      0009E1                       2889 00104$:
                                   2890 ;	USBHost.c:407: strBuffer[i] = usbBuffer[2 + (i << 1)];
      0009E1 E8               [12] 2891 	mov	a,r0
      0009E2 25*0E            [12] 2892 	add	a,_convertStringDescriptor_sloc3_1_0
      0009E4 F9               [12] 2893 	mov	r1,a
      0009E5 E4               [12] 2894 	clr	a
      0009E6 35*0F            [12] 2895 	addc	a,(_convertStringDescriptor_sloc3_1_0 + 1)
      0009E8 FA               [12] 2896 	mov	r2,a
      0009E9 74 02            [12] 2897 	mov	a,#0x02
      0009EB 2B               [12] 2898 	add	a,r3
      0009EC FB               [12] 2899 	mov	r3,a
      0009ED E4               [12] 2900 	clr	a
      0009EE 3C               [12] 2901 	addc	a,r4
      0009EF FC               [12] 2902 	mov	r4,a
      0009F0 EB               [12] 2903 	mov	a,r3
      0009F1 2E               [12] 2904 	add	a,r6
      0009F2 F5 82            [12] 2905 	mov	dpl,a
      0009F4 EC               [12] 2906 	mov	a,r4
      0009F5 3F               [12] 2907 	addc	a,r7
      0009F6 F5 83            [12] 2908 	mov	dph,a
      0009F8 E0               [24] 2909 	movx	a,@dptr
      0009F9 FC               [12] 2910 	mov	r4,a
      0009FA 89 82            [24] 2911 	mov	dpl,r1
      0009FC 8A 83            [24] 2912 	mov	dph,r2
      0009FE F0               [24] 2913 	movx	@dptr,a
      0009FF                       2914 00110$:
                                   2915 ;	USBHost.c:403: for(; (i < len) && (i < bufferLength - 1); i++)
      0009FF 08               [12] 2916 	inc	r0
      000A00 80 8A            [24] 2917 	sjmp	00109$
      000A02                       2918 00106$:
                                   2919 ;	USBHost.c:408: strBuffer[i] = 0;
      000A02 E8               [12] 2920 	mov	a,r0
      000A03 25*0E            [12] 2921 	add	a,_convertStringDescriptor_sloc3_1_0
      000A05 F5 82            [12] 2922 	mov	dpl,a
      000A07 E4               [12] 2923 	clr	a
      000A08 35*0F            [12] 2924 	addc	a,(_convertStringDescriptor_sloc3_1_0 + 1)
      000A0A F5 83            [12] 2925 	mov	dph,a
      000A0C E4               [12] 2926 	clr	a
      000A0D F0               [24] 2927 	movx	@dptr,a
                                   2928 ;	USBHost.c:409: sendProtocolMSG(MSG_TYPE_DEVICE_STRING,(unsigned short)len, index+1, 0x34, 0x56, strBuffer);
      000A0E 7F 00            [12] 2929 	mov	r7,#0x00
      000A10 90r02r2B         [24] 2930 	mov	dptr,#_convertStringDescriptor_PARM_4
      000A13 E0               [24] 2931 	movx	a,@dptr
      000A14 FE               [12] 2932 	mov	r6,a
      000A15 0E               [12] 2933 	inc	r6
      000A16 90r00r00         [24] 2934 	mov	dptr,#_sendProtocolMSG_PARM_2
      000A19 ED               [12] 2935 	mov	a,r5
      000A1A F0               [24] 2936 	movx	@dptr,a
      000A1B EF               [12] 2937 	mov	a,r7
      000A1C A3               [24] 2938 	inc	dptr
      000A1D F0               [24] 2939 	movx	@dptr,a
      000A1E 90r00r00         [24] 2940 	mov	dptr,#_sendProtocolMSG_PARM_3
      000A21 EE               [12] 2941 	mov	a,r6
      000A22 F0               [24] 2942 	movx	@dptr,a
      000A23 90r00r00         [24] 2943 	mov	dptr,#_sendProtocolMSG_PARM_4
      000A26 74 34            [12] 2944 	mov	a,#0x34
      000A28 F0               [24] 2945 	movx	@dptr,a
      000A29 90r00r00         [24] 2946 	mov	dptr,#_sendProtocolMSG_PARM_5
      000A2C 74 56            [12] 2947 	mov	a,#0x56
      000A2E F0               [24] 2948 	movx	@dptr,a
      000A2F 90r00r00         [24] 2949 	mov	dptr,#_sendProtocolMSG_PARM_6
      000A32 E5*0E            [12] 2950 	mov	a,_convertStringDescriptor_sloc3_1_0
      000A34 F0               [24] 2951 	movx	@dptr,a
      000A35 E5*0F            [12] 2952 	mov	a,(_convertStringDescriptor_sloc3_1_0 + 1)
      000A37 A3               [24] 2953 	inc	dptr
      000A38 F0               [24] 2954 	movx	@dptr,a
      000A39 75 82 05         [24] 2955 	mov	dpl,#0x05
      000A3C 12r00r00         [24] 2956 	lcall	_sendProtocolMSG
                                   2957 ;	USBHost.c:410: return 1;
      000A3F 75 82 01         [24] 2958 	mov	dpl,#0x01
                                   2959 ;	USBHost.c:411: }
      000A42 22               [24] 2960 	ret
                                   2961 ;------------------------------------------------------------
                                   2962 ;Allocation info for local variables in function 'DEBUG_OUT_USB_BUFFER'
                                   2963 ;------------------------------------------------------------
                                   2964 ;usbBuffer                 Allocated with name '_DEBUG_OUT_USB_BUFFER_usbBuffer_65536_119'
                                   2965 ;i                         Allocated with name '_DEBUG_OUT_USB_BUFFER_i_65536_120'
                                   2966 ;------------------------------------------------------------
                                   2967 ;	USBHost.c:413: void DEBUG_OUT_USB_BUFFER(unsigned char __xdata *usbBuffer)
                                   2968 ;	-----------------------------------------
                                   2969 ;	 function DEBUG_OUT_USB_BUFFER
                                   2970 ;	-----------------------------------------
      000A43                       2971 _DEBUG_OUT_USB_BUFFER:
      000A43 AF 83            [24] 2972 	mov	r7,dph
      000A45 E5 82            [12] 2973 	mov	a,dpl
      000A47 90r02r2E         [24] 2974 	mov	dptr,#_DEBUG_OUT_USB_BUFFER_usbBuffer_65536_119
      000A4A F0               [24] 2975 	movx	@dptr,a
      000A4B EF               [12] 2976 	mov	a,r7
      000A4C A3               [24] 2977 	inc	dptr
      000A4D F0               [24] 2978 	movx	@dptr,a
                                   2979 ;	USBHost.c:416: for(i = 0; i < usbBuffer[0]; i++)
      000A4E 90r02r2E         [24] 2980 	mov	dptr,#_DEBUG_OUT_USB_BUFFER_usbBuffer_65536_119
      000A51 E0               [24] 2981 	movx	a,@dptr
      000A52 FE               [12] 2982 	mov	r6,a
      000A53 A3               [24] 2983 	inc	dptr
      000A54 E0               [24] 2984 	movx	a,@dptr
      000A55 FF               [12] 2985 	mov	r7,a
      000A56 7C 00            [12] 2986 	mov	r4,#0x00
      000A58 7D 00            [12] 2987 	mov	r5,#0x00
      000A5A                       2988 00103$:
      000A5A 8E 82            [24] 2989 	mov	dpl,r6
      000A5C 8F 83            [24] 2990 	mov	dph,r7
      000A5E E0               [24] 2991 	movx	a,@dptr
      000A5F FB               [12] 2992 	mov	r3,a
      000A60 7A 00            [12] 2993 	mov	r2,#0x00
      000A62 C3               [12] 2994 	clr	c
      000A63 EC               [12] 2995 	mov	a,r4
      000A64 9B               [12] 2996 	subb	a,r3
      000A65 ED               [12] 2997 	mov	a,r5
      000A66 64 80            [12] 2998 	xrl	a,#0x80
      000A68 8A F0            [24] 2999 	mov	b,r2
      000A6A 63 F0 80         [24] 3000 	xrl	b,#0x80
      000A6D 95 F0            [12] 3001 	subb	a,b
      000A6F 50 3C            [24] 3002 	jnc	00101$
                                   3003 ;	USBHost.c:418: DEBUG_OUT("0x%02X ", (uint16_t)(usbBuffer[i]));
      000A71 EC               [12] 3004 	mov	a,r4
      000A72 2E               [12] 3005 	add	a,r6
      000A73 F5 82            [12] 3006 	mov	dpl,a
      000A75 ED               [12] 3007 	mov	a,r5
      000A76 3F               [12] 3008 	addc	a,r7
      000A77 F5 83            [12] 3009 	mov	dph,a
      000A79 E0               [24] 3010 	movx	a,@dptr
      000A7A FB               [12] 3011 	mov	r3,a
      000A7B 7A 00            [12] 3012 	mov	r2,#0x00
      000A7D C0 07            [24] 3013 	push	ar7
      000A7F C0 06            [24] 3014 	push	ar6
      000A81 C0 05            [24] 3015 	push	ar5
      000A83 C0 04            [24] 3016 	push	ar4
      000A85 C0 03            [24] 3017 	push	ar3
      000A87 C0 02            [24] 3018 	push	ar2
      000A89 74r6B            [12] 3019 	mov	a,#___str_12
      000A8B C0 E0            [24] 3020 	push	acc
      000A8D 74s01            [12] 3021 	mov	a,#(___str_12 >> 8)
      000A8F C0 E0            [24] 3022 	push	acc
      000A91 74 80            [12] 3023 	mov	a,#0x80
      000A93 C0 E0            [24] 3024 	push	acc
      000A95 12r00r00         [24] 3025 	lcall	_printf
      000A98 E5 81            [12] 3026 	mov	a,sp
      000A9A 24 FB            [12] 3027 	add	a,#0xfb
      000A9C F5 81            [12] 3028 	mov	sp,a
      000A9E D0 04            [24] 3029 	pop	ar4
      000AA0 D0 05            [24] 3030 	pop	ar5
      000AA2 D0 06            [24] 3031 	pop	ar6
      000AA4 D0 07            [24] 3032 	pop	ar7
                                   3033 ;	USBHost.c:416: for(i = 0; i < usbBuffer[0]; i++)
      000AA6 0C               [12] 3034 	inc	r4
      000AA7 BC 00 B0         [24] 3035 	cjne	r4,#0x00,00103$
      000AAA 0D               [12] 3036 	inc	r5
      000AAB 80 AD            [24] 3037 	sjmp	00103$
      000AAD                       3038 00101$:
                                   3039 ;	USBHost.c:420: DEBUG_OUT("\n");
      000AAD 74r73            [12] 3040 	mov	a,#___str_13
      000AAF C0 E0            [24] 3041 	push	acc
      000AB1 74s01            [12] 3042 	mov	a,#(___str_13 >> 8)
      000AB3 C0 E0            [24] 3043 	push	acc
      000AB5 74 80            [12] 3044 	mov	a,#0x80
      000AB7 C0 E0            [24] 3045 	push	acc
      000AB9 12r00r00         [24] 3046 	lcall	_printf
      000ABC 15 81            [12] 3047 	dec	sp
      000ABE 15 81            [12] 3048 	dec	sp
      000AC0 15 81            [12] 3049 	dec	sp
                                   3050 ;	USBHost.c:421: }
      000AC2 22               [24] 3051 	ret
                                   3052 ;------------------------------------------------------------
                                   3053 ;Allocation info for local variables in function 'getConfigurationDescriptor'
                                   3054 ;------------------------------------------------------------
                                   3055 ;s                         Allocated with name '_getConfigurationDescriptor_s_65536_123'
                                   3056 ;len                       Allocated with name '_getConfigurationDescriptor_len_65536_123'
                                   3057 ;total                     Allocated with name '_getConfigurationDescriptor_total_65536_123'
                                   3058 ;------------------------------------------------------------
                                   3059 ;	USBHost.c:423: unsigned char getConfigurationDescriptor()
                                   3060 ;	-----------------------------------------
                                   3061 ;	 function getConfigurationDescriptor
                                   3062 ;	-----------------------------------------
      000AC3                       3063 _getConfigurationDescriptor:
                                   3064 ;	USBHost.c:427: fillTxBuffer(GetConfigurationDescriptorRequest, sizeof(GetConfigurationDescriptorRequest));
      000AC3 90r02r20         [24] 3065 	mov	dptr,#_fillTxBuffer_PARM_2
      000AC6 74 08            [12] 3066 	mov	a,#0x08
      000AC8 F0               [24] 3067 	movx	@dptr,a
      000AC9 90r00r08         [24] 3068 	mov	dptr,#_GetConfigurationDescriptorRequest
      000ACC 12r07r62         [24] 3069 	lcall	_fillTxBuffer
                                   3070 ;	USBHost.c:429: s = hostCtrlTransfer(receiveDataBuffer, &len, RECEIVE_BUFFER_LEN);             
      000ACF 90r02r14         [24] 3071 	mov	dptr,#_hostCtrlTransfer_PARM_2
      000AD2 74r30            [12] 3072 	mov	a,#_getConfigurationDescriptor_len_65536_123
      000AD4 F0               [24] 3073 	movx	@dptr,a
      000AD5 74s02            [12] 3074 	mov	a,#(_getConfigurationDescriptor_len_65536_123 >> 8)
      000AD7 A3               [24] 3075 	inc	dptr
      000AD8 F0               [24] 3076 	movx	@dptr,a
      000AD9 E4               [12] 3077 	clr	a
      000ADA A3               [24] 3078 	inc	dptr
      000ADB F0               [24] 3079 	movx	@dptr,a
      000ADC 90r02r17         [24] 3080 	mov	dptr,#_hostCtrlTransfer_PARM_3
      000ADF F0               [24] 3081 	movx	@dptr,a
      000AE0 74 02            [12] 3082 	mov	a,#0x02
      000AE2 A3               [24] 3083 	inc	dptr
      000AE3 F0               [24] 3084 	movx	@dptr,a
      000AE4 90r00r01         [24] 3085 	mov	dptr,#_receiveDataBuffer
      000AE7 12r03r99         [24] 3086 	lcall	_hostCtrlTransfer
                                   3087 ;	USBHost.c:430: if(s != ERR_SUCCESS)
      000AEA E5 82            [12] 3088 	mov	a,dpl
      000AEC FF               [12] 3089 	mov	r7,a
      000AED 60 03            [24] 3090 	jz	00102$
                                   3091 ;	USBHost.c:431: return s;
      000AEF 8F 82            [24] 3092 	mov	dpl,r7
      000AF1 22               [24] 3093 	ret
      000AF2                       3094 00102$:
                                   3095 ;	USBHost.c:433: if(len < ((PUSB_SETUP_REQ)GetConfigurationDescriptorRequest)->wLengthL)
      000AF2 90r00r0E         [24] 3096 	mov	dptr,#(_GetConfigurationDescriptorRequest + 0x0006)
      000AF5 E4               [12] 3097 	clr	a
      000AF6 93               [24] 3098 	movc	a,@a+dptr
      000AF7 FF               [12] 3099 	mov	r7,a
      000AF8 90r02r30         [24] 3100 	mov	dptr,#_getConfigurationDescriptor_len_65536_123
      000AFB E0               [24] 3101 	movx	a,@dptr
      000AFC FD               [12] 3102 	mov	r5,a
      000AFD A3               [24] 3103 	inc	dptr
      000AFE E0               [24] 3104 	movx	a,@dptr
      000AFF FE               [12] 3105 	mov	r6,a
      000B00 7C 00            [12] 3106 	mov	r4,#0x00
      000B02 C3               [12] 3107 	clr	c
      000B03 ED               [12] 3108 	mov	a,r5
      000B04 9F               [12] 3109 	subb	a,r7
      000B05 EE               [12] 3110 	mov	a,r6
      000B06 9C               [12] 3111 	subb	a,r4
      000B07 50 04            [24] 3112 	jnc	00104$
                                   3113 ;	USBHost.c:434: return ERR_USB_BUF_OVER;
      000B09 75 82 17         [24] 3114 	mov	dpl,#0x17
      000B0C 22               [24] 3115 	ret
      000B0D                       3116 00104$:
                                   3117 ;	USBHost.c:437: total = ((PXUSB_CFG_DESCR)receiveDataBuffer)->wTotalLengthL + (((PXUSB_CFG_DESCR)receiveDataBuffer)->wTotalLengthH << 8);
      000B0D 90r00r03         [24] 3118 	mov	dptr,#(_receiveDataBuffer + 0x0002)
      000B10 E0               [24] 3119 	movx	a,@dptr
      000B11 FF               [12] 3120 	mov	r7,a
      000B12 7E 00            [12] 3121 	mov	r6,#0x00
      000B14 90r00r04         [24] 3122 	mov	dptr,#(_receiveDataBuffer + 0x0003)
      000B17 E0               [24] 3123 	movx	a,@dptr
      000B18 FC               [12] 3124 	mov	r4,a
      000B19 E4               [12] 3125 	clr	a
      000B1A 2F               [12] 3126 	add	a,r7
      000B1B FF               [12] 3127 	mov	r7,a
      000B1C EC               [12] 3128 	mov	a,r4
      000B1D 3E               [12] 3129 	addc	a,r6
      000B1E FE               [12] 3130 	mov	r6,a
                                   3131 ;	USBHost.c:438: fillTxBuffer(GetConfigurationDescriptorRequest, sizeof(GetConfigurationDescriptorRequest));
      000B1F 90r02r20         [24] 3132 	mov	dptr,#_fillTxBuffer_PARM_2
      000B22 74 08            [12] 3133 	mov	a,#0x08
      000B24 F0               [24] 3134 	movx	@dptr,a
      000B25 90r00r08         [24] 3135 	mov	dptr,#_GetConfigurationDescriptorRequest
      000B28 C0 07            [24] 3136 	push	ar7
      000B2A C0 06            [24] 3137 	push	ar6
      000B2C 12r07r62         [24] 3138 	lcall	_fillTxBuffer
      000B2F D0 06            [24] 3139 	pop	ar6
      000B31 D0 07            [24] 3140 	pop	ar7
                                   3141 ;	USBHost.c:439: ((PUSB_SETUP_REQ)TxBuffer)->wLengthL = (unsigned char)(total & 255);
      000B33 8F 05            [24] 3142 	mov	ar5,r7
      000B35 90 01 06         [24] 3143 	mov	dptr,#(_TxBuffer + 0x0006)
      000B38 ED               [12] 3144 	mov	a,r5
      000B39 F0               [24] 3145 	movx	@dptr,a
                                   3146 ;	USBHost.c:440: ((PUSB_SETUP_REQ)TxBuffer)->wLengthH = (unsigned char)(total >> 8);
      000B3A 8E 07            [24] 3147 	mov	ar7,r6
      000B3C 90 01 07         [24] 3148 	mov	dptr,#(_TxBuffer + 0x0007)
      000B3F EF               [12] 3149 	mov	a,r7
      000B40 F0               [24] 3150 	movx	@dptr,a
                                   3151 ;	USBHost.c:441: s = hostCtrlTransfer(receiveDataBuffer, &len, RECEIVE_BUFFER_LEN);             
      000B41 90r02r14         [24] 3152 	mov	dptr,#_hostCtrlTransfer_PARM_2
      000B44 74r30            [12] 3153 	mov	a,#_getConfigurationDescriptor_len_65536_123
      000B46 F0               [24] 3154 	movx	@dptr,a
      000B47 74s02            [12] 3155 	mov	a,#(_getConfigurationDescriptor_len_65536_123 >> 8)
      000B49 A3               [24] 3156 	inc	dptr
      000B4A F0               [24] 3157 	movx	@dptr,a
      000B4B E4               [12] 3158 	clr	a
      000B4C A3               [24] 3159 	inc	dptr
      000B4D F0               [24] 3160 	movx	@dptr,a
      000B4E 90r02r17         [24] 3161 	mov	dptr,#_hostCtrlTransfer_PARM_3
      000B51 F0               [24] 3162 	movx	@dptr,a
      000B52 74 02            [12] 3163 	mov	a,#0x02
      000B54 A3               [24] 3164 	inc	dptr
      000B55 F0               [24] 3165 	movx	@dptr,a
      000B56 90r00r01         [24] 3166 	mov	dptr,#_receiveDataBuffer
      000B59 12r03r99         [24] 3167 	lcall	_hostCtrlTransfer
                                   3168 ;	USBHost.c:442: if(s != ERR_SUCCESS)
      000B5C E5 82            [12] 3169 	mov	a,dpl
      000B5E FF               [12] 3170 	mov	r7,a
      000B5F 60 03            [24] 3171 	jz	00106$
                                   3172 ;	USBHost.c:443: return s;
      000B61 8F 82            [24] 3173 	mov	dpl,r7
      000B63 22               [24] 3174 	ret
      000B64                       3175 00106$:
                                   3176 ;	USBHost.c:447: return ERR_SUCCESS;
      000B64 75 82 00         [24] 3177 	mov	dpl,#0x00
                                   3178 ;	USBHost.c:448: }
      000B67 22               [24] 3179 	ret
                                   3180 ;------------------------------------------------------------
                                   3181 ;Allocation info for local variables in function 'getInterfaceDescriptor'
                                   3182 ;------------------------------------------------------------
                                   3183 ;index                     Allocated with name '_getInterfaceDescriptor_index_65536_124'
                                   3184 ;temp                      Allocated with name '_getInterfaceDescriptor_temp_65536_125'
                                   3185 ;s                         Allocated with name '_getInterfaceDescriptor_s_65536_125'
                                   3186 ;len                       Allocated with name '_getInterfaceDescriptor_len_65536_125'
                                   3187 ;------------------------------------------------------------
                                   3188 ;	USBHost.c:450: unsigned char getInterfaceDescriptor(unsigned char index)
                                   3189 ;	-----------------------------------------
                                   3190 ;	 function getInterfaceDescriptor
                                   3191 ;	-----------------------------------------
      000B68                       3192 _getInterfaceDescriptor:
                                   3193 ;	USBHost.c:455: fillTxBuffer(GetInterfaceDescriptorRequest, sizeof(GetInterfaceDescriptorRequest));
      000B68 90r02r20         [24] 3194 	mov	dptr,#_fillTxBuffer_PARM_2
      000B6B 74 08            [12] 3195 	mov	a,#0x08
      000B6D F0               [24] 3196 	movx	@dptr,a
      000B6E 90r00r10         [24] 3197 	mov	dptr,#_GetInterfaceDescriptorRequest
      000B71 12r07r62         [24] 3198 	lcall	_fillTxBuffer
                                   3199 ;	USBHost.c:456: s = hostCtrlTransfer(receiveDataBuffer, &len, RECEIVE_BUFFER_LEN);             
      000B74 90r02r14         [24] 3200 	mov	dptr,#_hostCtrlTransfer_PARM_2
      000B77 74r32            [12] 3201 	mov	a,#_getInterfaceDescriptor_len_65536_125
      000B79 F0               [24] 3202 	movx	@dptr,a
      000B7A 74s02            [12] 3203 	mov	a,#(_getInterfaceDescriptor_len_65536_125 >> 8)
      000B7C A3               [24] 3204 	inc	dptr
      000B7D F0               [24] 3205 	movx	@dptr,a
      000B7E E4               [12] 3206 	clr	a
      000B7F A3               [24] 3207 	inc	dptr
      000B80 F0               [24] 3208 	movx	@dptr,a
      000B81 90r02r17         [24] 3209 	mov	dptr,#_hostCtrlTransfer_PARM_3
      000B84 F0               [24] 3210 	movx	@dptr,a
      000B85 74 02            [12] 3211 	mov	a,#0x02
      000B87 A3               [24] 3212 	inc	dptr
      000B88 F0               [24] 3213 	movx	@dptr,a
      000B89 90r00r01         [24] 3214 	mov	dptr,#_receiveDataBuffer
                                   3215 ;	USBHost.c:457: return s;                          
                                   3216 ;	USBHost.c:458: }
      000B8C 02r03r99         [24] 3217 	ljmp	_hostCtrlTransfer
                                   3218 ;------------------------------------------------------------
                                   3219 ;Allocation info for local variables in function 'resetHubDevices'
                                   3220 ;------------------------------------------------------------
                                   3221 ;hubindex                  Allocated with name '_resetHubDevices_hubindex_65536_126'
                                   3222 ;hiddevice                 Allocated with name '_resetHubDevices_hiddevice_65536_127'
                                   3223 ;------------------------------------------------------------
                                   3224 ;	USBHost.c:524: void resetHubDevices(unsigned char hubindex)
                                   3225 ;	-----------------------------------------
                                   3226 ;	 function resetHubDevices
                                   3227 ;	-----------------------------------------
      000B8F                       3228 _resetHubDevices:
      000B8F E5 82            [12] 3229 	mov	a,dpl
      000B91 90r02r94         [24] 3230 	mov	dptr,#_resetHubDevices_hubindex_65536_126
      000B94 F0               [24] 3231 	movx	@dptr,a
                                   3232 ;	USBHost.c:527: VendorProductID[hubindex].idVendorL = 0;
      000B95 E0               [24] 3233 	movx	a,@dptr
      000B96 FF               [12] 3234 	mov	r7,a
      000B97 75 F0 10         [24] 3235 	mov	b,#0x10
      000B9A A4               [48] 3236 	mul	ab
      000B9B FD               [12] 3237 	mov	r5,a
      000B9C AE F0            [24] 3238 	mov	r6,b
      000B9E 24r74            [12] 3239 	add	a,#_VendorProductID
      000BA0 F5 82            [12] 3240 	mov	dpl,a
      000BA2 EE               [12] 3241 	mov	a,r6
      000BA3 34s02            [12] 3242 	addc	a,#(_VendorProductID >> 8)
      000BA5 F5 83            [12] 3243 	mov	dph,a
      000BA7 E4               [12] 3244 	clr	a
      000BA8 F0               [24] 3245 	movx	@dptr,a
      000BA9 A3               [24] 3246 	inc	dptr
      000BAA F0               [24] 3247 	movx	@dptr,a
      000BAB A3               [24] 3248 	inc	dptr
      000BAC F0               [24] 3249 	movx	@dptr,a
      000BAD A3               [24] 3250 	inc	dptr
      000BAE F0               [24] 3251 	movx	@dptr,a
                                   3252 ;	USBHost.c:528: VendorProductID[hubindex].idVendorH = 0;
      000BAF ED               [12] 3253 	mov	a,r5
      000BB0 24r74            [12] 3254 	add	a,#_VendorProductID
      000BB2 FD               [12] 3255 	mov	r5,a
      000BB3 EE               [12] 3256 	mov	a,r6
      000BB4 34s02            [12] 3257 	addc	a,#(_VendorProductID >> 8)
      000BB6 FE               [12] 3258 	mov	r6,a
      000BB7 8D 82            [24] 3259 	mov	dpl,r5
      000BB9 8E 83            [24] 3260 	mov	dph,r6
      000BBB A3               [24] 3261 	inc	dptr
      000BBC A3               [24] 3262 	inc	dptr
      000BBD A3               [24] 3263 	inc	dptr
      000BBE A3               [24] 3264 	inc	dptr
      000BBF E4               [12] 3265 	clr	a
      000BC0 F0               [24] 3266 	movx	@dptr,a
      000BC1 A3               [24] 3267 	inc	dptr
      000BC2 F0               [24] 3268 	movx	@dptr,a
      000BC3 A3               [24] 3269 	inc	dptr
      000BC4 F0               [24] 3270 	movx	@dptr,a
      000BC5 A3               [24] 3271 	inc	dptr
      000BC6 F0               [24] 3272 	movx	@dptr,a
                                   3273 ;	USBHost.c:529: VendorProductID[hubindex].idProductL = 0;
      000BC7 74 08            [12] 3274 	mov	a,#0x08
      000BC9 2D               [12] 3275 	add	a,r5
      000BCA F5 82            [12] 3276 	mov	dpl,a
      000BCC E4               [12] 3277 	clr	a
      000BCD 3E               [12] 3278 	addc	a,r6
      000BCE F5 83            [12] 3279 	mov	dph,a
      000BD0 E4               [12] 3280 	clr	a
      000BD1 F0               [24] 3281 	movx	@dptr,a
      000BD2 A3               [24] 3282 	inc	dptr
      000BD3 F0               [24] 3283 	movx	@dptr,a
      000BD4 A3               [24] 3284 	inc	dptr
      000BD5 F0               [24] 3285 	movx	@dptr,a
      000BD6 A3               [24] 3286 	inc	dptr
      000BD7 F0               [24] 3287 	movx	@dptr,a
                                   3288 ;	USBHost.c:530: VendorProductID[hubindex].idProductH = 0;
      000BD8 74 0C            [12] 3289 	mov	a,#0x0c
      000BDA 2D               [12] 3290 	add	a,r5
      000BDB F5 82            [12] 3291 	mov	dpl,a
      000BDD E4               [12] 3292 	clr	a
      000BDE 3E               [12] 3293 	addc	a,r6
      000BDF F5 83            [12] 3294 	mov	dph,a
      000BE1 E4               [12] 3295 	clr	a
      000BE2 F0               [24] 3296 	movx	@dptr,a
      000BE3 A3               [24] 3297 	inc	dptr
      000BE4 F0               [24] 3298 	movx	@dptr,a
      000BE5 A3               [24] 3299 	inc	dptr
      000BE6 F0               [24] 3300 	movx	@dptr,a
      000BE7 A3               [24] 3301 	inc	dptr
      000BE8 F0               [24] 3302 	movx	@dptr,a
                                   3303 ;	USBHost.c:531: for (hiddevice = 0; hiddevice < MAX_HID_DEVICES; hiddevice++)
      000BE9 7E 00            [12] 3304 	mov	r6,#0x00
      000BEB                       3305 00104$:
                                   3306 ;	USBHost.c:533: if(HIDdevice[hiddevice].rootHub == hubindex){
      000BEB EE               [12] 3307 	mov	a,r6
      000BEC 75 F0 08         [24] 3308 	mov	b,#0x08
      000BEF A4               [48] 3309 	mul	ab
      000BF0 24r34            [12] 3310 	add	a,#_HIDdevice
      000BF2 FC               [12] 3311 	mov	r4,a
      000BF3 74s02            [12] 3312 	mov	a,#(_HIDdevice >> 8)
      000BF5 35 F0            [12] 3313 	addc	a,b
      000BF7 FD               [12] 3314 	mov	r5,a
      000BF8 74 01            [12] 3315 	mov	a,#0x01
      000BFA 2C               [12] 3316 	add	a,r4
      000BFB FA               [12] 3317 	mov	r2,a
      000BFC E4               [12] 3318 	clr	a
      000BFD 3D               [12] 3319 	addc	a,r5
      000BFE FB               [12] 3320 	mov	r3,a
      000BFF 8A 82            [24] 3321 	mov	dpl,r2
      000C01 8B 83            [24] 3322 	mov	dph,r3
      000C03 E0               [24] 3323 	movx	a,@dptr
      000C04 B5 07 29         [24] 3324 	cjne	a,ar7,00105$
                                   3325 ;	USBHost.c:534: HIDdevice[hiddevice].connected  = 0;
      000C07 8C 82            [24] 3326 	mov	dpl,r4
      000C09 8D 83            [24] 3327 	mov	dph,r5
      000C0B E4               [12] 3328 	clr	a
      000C0C F0               [24] 3329 	movx	@dptr,a
                                   3330 ;	USBHost.c:535: HIDdevice[hiddevice].rootHub  = 0;
      000C0D 8A 82            [24] 3331 	mov	dpl,r2
      000C0F 8B 83            [24] 3332 	mov	dph,r3
      000C11 F0               [24] 3333 	movx	@dptr,a
                                   3334 ;	USBHost.c:536: HIDdevice[hiddevice].interface  = 0;
      000C12 8C 82            [24] 3335 	mov	dpl,r4
      000C14 8D 83            [24] 3336 	mov	dph,r5
      000C16 A3               [24] 3337 	inc	dptr
      000C17 A3               [24] 3338 	inc	dptr
      000C18 F0               [24] 3339 	movx	@dptr,a
                                   3340 ;	USBHost.c:537: HIDdevice[hiddevice].endPoint  = 0;
      000C19 8C 82            [24] 3341 	mov	dpl,r4
      000C1B 8D 83            [24] 3342 	mov	dph,r5
      000C1D A3               [24] 3343 	inc	dptr
      000C1E A3               [24] 3344 	inc	dptr
      000C1F A3               [24] 3345 	inc	dptr
      000C20 F0               [24] 3346 	movx	@dptr,a
                                   3347 ;	USBHost.c:538: HIDdevice[hiddevice].type  = 0;
      000C21 8C 82            [24] 3348 	mov	dpl,r4
      000C23 8D 83            [24] 3349 	mov	dph,r5
      000C25 A3               [24] 3350 	inc	dptr
      000C26 A3               [24] 3351 	inc	dptr
      000C27 A3               [24] 3352 	inc	dptr
      000C28 A3               [24] 3353 	inc	dptr
      000C29 F0               [24] 3354 	movx	@dptr,a
      000C2A A3               [24] 3355 	inc	dptr
      000C2B F0               [24] 3356 	movx	@dptr,a
      000C2C A3               [24] 3357 	inc	dptr
      000C2D F0               [24] 3358 	movx	@dptr,a
      000C2E A3               [24] 3359 	inc	dptr
      000C2F F0               [24] 3360 	movx	@dptr,a
      000C30                       3361 00105$:
                                   3362 ;	USBHost.c:531: for (hiddevice = 0; hiddevice < MAX_HID_DEVICES; hiddevice++)
      000C30 0E               [12] 3363 	inc	r6
      000C31 BE 08 00         [24] 3364 	cjne	r6,#0x08,00119$
      000C34                       3365 00119$:
      000C34 40 B5            [24] 3366 	jc	00104$
                                   3367 ;	USBHost.c:541: }
      000C36 22               [24] 3368 	ret
                                   3369 ;------------------------------------------------------------
                                   3370 ;Allocation info for local variables in function 'pollHIDdevice'
                                   3371 ;------------------------------------------------------------
                                   3372 ;sloc0                     Allocated with name '_pollHIDdevice_sloc0_1_0'
                                   3373 ;sloc1                     Allocated with name '_pollHIDdevice_sloc1_1_0'
                                   3374 ;sloc2                     Allocated with name '_pollHIDdevice_sloc2_1_0'
                                   3375 ;s                         Allocated with name '_pollHIDdevice_s_65536_131'
                                   3376 ;hiddevice                 Allocated with name '_pollHIDdevice_hiddevice_65536_131'
                                   3377 ;len                       Allocated with name '_pollHIDdevice_len_65536_131'
                                   3378 ;------------------------------------------------------------
                                   3379 ;	USBHost.c:543: void pollHIDdevice()
                                   3380 ;	-----------------------------------------
                                   3381 ;	 function pollHIDdevice
                                   3382 ;	-----------------------------------------
      000C37                       3383 _pollHIDdevice:
                                   3384 ;	USBHost.c:546: for (hiddevice = 0; hiddevice < MAX_HID_DEVICES; hiddevice++)
      000C37 7F 00            [12] 3385 	mov	r7,#0x00
      000C39                       3386 00110$:
                                   3387 ;	USBHost.c:548: if(HIDdevice[hiddevice].connected){
      000C39 EF               [12] 3388 	mov	a,r7
      000C3A 75 F0 08         [24] 3389 	mov	b,#0x08
      000C3D A4               [48] 3390 	mul	ab
      000C3E FD               [12] 3391 	mov	r5,a
      000C3F AE F0            [24] 3392 	mov	r6,b
      000C41 24r34            [12] 3393 	add	a,#_HIDdevice
      000C43 FB               [12] 3394 	mov	r3,a
      000C44 EE               [12] 3395 	mov	a,r6
      000C45 34s02            [12] 3396 	addc	a,#(_HIDdevice >> 8)
      000C47 FC               [12] 3397 	mov	r4,a
      000C48 8B 82            [24] 3398 	mov	dpl,r3
      000C4A 8C 83            [24] 3399 	mov	dph,r4
      000C4C E0               [24] 3400 	movx	a,@dptr
      000C4D 70 03            [24] 3401 	jnz	00141$
      000C4F 02r0DrCE         [24] 3402 	ljmp	00111$
      000C52                       3403 00141$:
                                   3404 ;	USBHost.c:549: selectHubPort(HIDdevice[hiddevice].rootHub, 0);
      000C52 ED               [12] 3405 	mov	a,r5
      000C53 24r34            [12] 3406 	add	a,#_HIDdevice
      000C55 FD               [12] 3407 	mov	r5,a
      000C56 EE               [12] 3408 	mov	a,r6
      000C57 34s02            [12] 3409 	addc	a,#(_HIDdevice >> 8)
      000C59 FE               [12] 3410 	mov	r6,a
      000C5A 8D 82            [24] 3411 	mov	dpl,r5
      000C5C 8E 83            [24] 3412 	mov	dph,r6
      000C5E A3               [24] 3413 	inc	dptr
      000C5F E0               [24] 3414 	movx	a,@dptr
      000C60 FC               [12] 3415 	mov	r4,a
      000C61 90r02r0C         [24] 3416 	mov	dptr,#_selectHubPort_PARM_2
      000C64 E4               [12] 3417 	clr	a
      000C65 F0               [24] 3418 	movx	@dptr,a
      000C66 8C 82            [24] 3419 	mov	dpl,r4
      000C68 C0 07            [24] 3420 	push	ar7
      000C6A C0 06            [24] 3421 	push	ar6
      000C6C C0 05            [24] 3422 	push	ar5
      000C6E 12r01rA6         [24] 3423 	lcall	_selectHubPort
      000C71 D0 05            [24] 3424 	pop	ar5
      000C73 D0 06            [24] 3425 	pop	ar6
      000C75 D0 07            [24] 3426 	pop	ar7
                                   3427 ;	USBHost.c:550: s = hostTransfer( USB_PID_IN << 4 | HIDdevice[hiddevice].endPoint & 0x7F, HIDdevice[hiddevice].endPoint & 0x80 ? bUH_R_TOG | bUH_T_TOG : 0, 0 );
      000C77 8D 82            [24] 3428 	mov	dpl,r5
      000C79 8E 83            [24] 3429 	mov	dph,r6
      000C7B A3               [24] 3430 	inc	dptr
      000C7C A3               [24] 3431 	inc	dptr
      000C7D A3               [24] 3432 	inc	dptr
      000C7E E0               [24] 3433 	movx	a,@dptr
      000C7F FE               [12] 3434 	mov	r6,a
      000C80 74 7F            [12] 3435 	mov	a,#0x7f
      000C82 5E               [12] 3436 	anl	a,r6
      000C83 44 90            [12] 3437 	orl	a,#0x90
      000C85 FD               [12] 3438 	mov	r5,a
      000C86 EE               [12] 3439 	mov	a,r6
      000C87 30 E7 06         [24] 3440 	jnb	acc.7,00114$
      000C8A 7C C0            [12] 3441 	mov	r4,#0xc0
      000C8C 7E 00            [12] 3442 	mov	r6,#0x00
      000C8E 80 04            [24] 3443 	sjmp	00115$
      000C90                       3444 00114$:
      000C90 7C 00            [12] 3445 	mov	r4,#0x00
      000C92 7E 00            [12] 3446 	mov	r6,#0x00
      000C94                       3447 00115$:
      000C94 90r02r0E         [24] 3448 	mov	dptr,#_hostTransfer_PARM_2
      000C97 EC               [12] 3449 	mov	a,r4
      000C98 F0               [24] 3450 	movx	@dptr,a
      000C99 90r02r0F         [24] 3451 	mov	dptr,#_hostTransfer_PARM_3
      000C9C E4               [12] 3452 	clr	a
      000C9D F0               [24] 3453 	movx	@dptr,a
      000C9E A3               [24] 3454 	inc	dptr
      000C9F F0               [24] 3455 	movx	@dptr,a
      000CA0 8D 82            [24] 3456 	mov	dpl,r5
      000CA2 C0 07            [24] 3457 	push	ar7
      000CA4 12r01rD8         [24] 3458 	lcall	_hostTransfer
      000CA7 E5 82            [12] 3459 	mov	a,dpl
      000CA9 D0 07            [24] 3460 	pop	ar7
                                   3461 ;	USBHost.c:551: if ( s == ERR_SUCCESS )
      000CAB 60 03            [24] 3462 	jz	00143$
      000CAD 02r0DrCE         [24] 3463 	ljmp	00111$
      000CB0                       3464 00143$:
                                   3465 ;	USBHost.c:553: HIDdevice[hiddevice].endPoint ^= 0x80;
      000CB0 EF               [12] 3466 	mov	a,r7
      000CB1 75 F0 08         [24] 3467 	mov	b,#0x08
      000CB4 A4               [48] 3468 	mul	ab
      000CB5 24r34            [12] 3469 	add	a,#_HIDdevice
      000CB7 FD               [12] 3470 	mov	r5,a
      000CB8 74s02            [12] 3471 	mov	a,#(_HIDdevice >> 8)
      000CBA 35 F0            [12] 3472 	addc	a,b
      000CBC FE               [12] 3473 	mov	r6,a
      000CBD 74 03            [12] 3474 	mov	a,#0x03
      000CBF 2D               [12] 3475 	add	a,r5
      000CC0 FB               [12] 3476 	mov	r3,a
      000CC1 E4               [12] 3477 	clr	a
      000CC2 3E               [12] 3478 	addc	a,r6
      000CC3 FC               [12] 3479 	mov	r4,a
      000CC4 8B 82            [24] 3480 	mov	dpl,r3
      000CC6 8C 83            [24] 3481 	mov	dph,r4
      000CC8 E0               [24] 3482 	movx	a,@dptr
      000CC9 FA               [12] 3483 	mov	r2,a
      000CCA 63 02 80         [24] 3484 	xrl	ar2,#0x80
      000CCD 8B 82            [24] 3485 	mov	dpl,r3
      000CCF 8C 83            [24] 3486 	mov	dph,r4
      000CD1 EA               [12] 3487 	mov	a,r2
      000CD2 F0               [24] 3488 	movx	@dptr,a
                                   3489 ;	USBHost.c:554: len = USB_RX_LEN;
      000CD3 90r02r95         [24] 3490 	mov	dptr,#_pollHIDdevice_len_65536_131
      000CD6 E5 D1            [12] 3491 	mov	a,_USB_RX_LEN
      000CD8 F0               [24] 3492 	movx	@dptr,a
                                   3493 ;	USBHost.c:555: if ( len )
      000CD9 E0               [24] 3494 	movx	a,@dptr
      000CDA FA               [12] 3495 	mov	r2,a
      000CDB E0               [24] 3496 	movx	a,@dptr
      000CDC 70 03            [24] 3497 	jnz	00144$
      000CDE 02r0DrCE         [24] 3498 	ljmp	00111$
      000CE1                       3499 00144$:
                                   3500 ;	USBHost.c:557: LED = !LED;    
      000CE1 B2 96            [12] 3501 	cpl	_LED
                                   3502 ;	USBHost.c:559: sendHidPollMSG(MSG_TYPE_DEVICE_POLL,len, HIDdevice[hiddevice].type, hiddevice, HIDdevice[hiddevice].endPoint & 0x7F, RxBuffer,VendorProductID[HIDdevice[hiddevice].rootHub].idVendorL,VendorProductID[HIDdevice[hiddevice].rootHub].idVendorH,VendorProductID[HIDdevice[hiddevice].rootHub].idProductL,VendorProductID[HIDdevice[hiddevice].rootHub].idProductH);
      000CE3 8A*10            [24] 3503 	mov	_pollHIDdevice_sloc0_1_0,r2
      000CE5 75*11 00         [24] 3504 	mov	(_pollHIDdevice_sloc0_1_0 + 1),#0x00
      000CE8 74 04            [12] 3505 	mov	a,#0x04
      000CEA 2D               [12] 3506 	add	a,r5
      000CEB F8               [12] 3507 	mov	r0,a
      000CEC E4               [12] 3508 	clr	a
      000CED 3E               [12] 3509 	addc	a,r6
      000CEE FA               [12] 3510 	mov	r2,a
      000CEF 88 82            [24] 3511 	mov	dpl,r0
      000CF1 8A 83            [24] 3512 	mov	dph,r2
      000CF3 E0               [24] 3513 	movx	a,@dptr
      000CF4 F9               [12] 3514 	mov	r1,a
      000CF5 8B 82            [24] 3515 	mov	dpl,r3
      000CF7 8C 83            [24] 3516 	mov	dph,r4
      000CF9 E0               [24] 3517 	movx	a,@dptr
      000CFA FB               [12] 3518 	mov	r3,a
      000CFB 53 03 7F         [24] 3519 	anl	ar3,#0x7f
      000CFE 8D 82            [24] 3520 	mov	dpl,r5
      000D00 8E 83            [24] 3521 	mov	dph,r6
      000D02 A3               [24] 3522 	inc	dptr
      000D03 E0               [24] 3523 	movx	a,@dptr
      000D04 75 F0 10         [24] 3524 	mov	b,#0x10
      000D07 A4               [48] 3525 	mul	ab
      000D08 FE               [12] 3526 	mov	r6,a
      000D09 AD F0            [24] 3527 	mov	r5,b
      000D0B 24r74            [12] 3528 	add	a,#_VendorProductID
      000D0D F5 82            [12] 3529 	mov	dpl,a
      000D0F ED               [12] 3530 	mov	a,r5
      000D10 34s02            [12] 3531 	addc	a,#(_VendorProductID >> 8)
      000D12 F5 83            [12] 3532 	mov	dph,a
      000D14 E0               [24] 3533 	movx	a,@dptr
      000D15 F5*12            [12] 3534 	mov	_pollHIDdevice_sloc1_1_0,a
      000D17 EE               [12] 3535 	mov	a,r6
      000D18 24r74            [12] 3536 	add	a,#_VendorProductID
      000D1A FE               [12] 3537 	mov	r6,a
      000D1B ED               [12] 3538 	mov	a,r5
      000D1C 34s02            [12] 3539 	addc	a,#(_VendorProductID >> 8)
      000D1E FD               [12] 3540 	mov	r5,a
      000D1F 8E 82            [24] 3541 	mov	dpl,r6
      000D21 8D 83            [24] 3542 	mov	dph,r5
      000D23 A3               [24] 3543 	inc	dptr
      000D24 A3               [24] 3544 	inc	dptr
      000D25 A3               [24] 3545 	inc	dptr
      000D26 A3               [24] 3546 	inc	dptr
      000D27 E0               [24] 3547 	movx	a,@dptr
      000D28 F5*13            [12] 3548 	mov	_pollHIDdevice_sloc2_1_0,a
      000D2A 74 08            [12] 3549 	mov	a,#0x08
      000D2C 2E               [12] 3550 	add	a,r6
      000D2D F5 82            [12] 3551 	mov	dpl,a
      000D2F E4               [12] 3552 	clr	a
      000D30 3D               [12] 3553 	addc	a,r5
      000D31 F5 83            [12] 3554 	mov	dph,a
      000D33 E0               [24] 3555 	movx	a,@dptr
      000D34 FC               [12] 3556 	mov	r4,a
      000D35 74 0C            [12] 3557 	mov	a,#0x0c
      000D37 2E               [12] 3558 	add	a,r6
      000D38 F5 82            [12] 3559 	mov	dpl,a
      000D3A E4               [12] 3560 	clr	a
      000D3B 3D               [12] 3561 	addc	a,r5
      000D3C F5 83            [12] 3562 	mov	dph,a
      000D3E E0               [24] 3563 	movx	a,@dptr
      000D3F FE               [12] 3564 	mov	r6,a
      000D40 90r00r00         [24] 3565 	mov	dptr,#_sendHidPollMSG_PARM_2
      000D43 E5*10            [12] 3566 	mov	a,_pollHIDdevice_sloc0_1_0
      000D45 F0               [24] 3567 	movx	@dptr,a
      000D46 E5*11            [12] 3568 	mov	a,(_pollHIDdevice_sloc0_1_0 + 1)
      000D48 A3               [24] 3569 	inc	dptr
      000D49 F0               [24] 3570 	movx	@dptr,a
      000D4A 90r00r00         [24] 3571 	mov	dptr,#_sendHidPollMSG_PARM_3
      000D4D E9               [12] 3572 	mov	a,r1
      000D4E F0               [24] 3573 	movx	@dptr,a
      000D4F 90r00r00         [24] 3574 	mov	dptr,#_sendHidPollMSG_PARM_4
      000D52 EF               [12] 3575 	mov	a,r7
      000D53 F0               [24] 3576 	movx	@dptr,a
      000D54 90r00r00         [24] 3577 	mov	dptr,#_sendHidPollMSG_PARM_5
      000D57 EB               [12] 3578 	mov	a,r3
      000D58 F0               [24] 3579 	movx	@dptr,a
      000D59 90r00r00         [24] 3580 	mov	dptr,#_sendHidPollMSG_PARM_6
      000D5C 74 00            [12] 3581 	mov	a,#_RxBuffer
      000D5E F0               [24] 3582 	movx	@dptr,a
      000D5F 74 00            [12] 3583 	mov	a,#(_RxBuffer >> 8)
      000D61 A3               [24] 3584 	inc	dptr
      000D62 F0               [24] 3585 	movx	@dptr,a
      000D63 90r00r00         [24] 3586 	mov	dptr,#_sendHidPollMSG_PARM_7
      000D66 E5*12            [12] 3587 	mov	a,_pollHIDdevice_sloc1_1_0
      000D68 F0               [24] 3588 	movx	@dptr,a
      000D69 90r00r00         [24] 3589 	mov	dptr,#_sendHidPollMSG_PARM_8
      000D6C E5*13            [12] 3590 	mov	a,_pollHIDdevice_sloc2_1_0
      000D6E F0               [24] 3591 	movx	@dptr,a
      000D6F 90r00r00         [24] 3592 	mov	dptr,#_sendHidPollMSG_PARM_9
      000D72 EC               [12] 3593 	mov	a,r4
      000D73 F0               [24] 3594 	movx	@dptr,a
      000D74 90r00r00         [24] 3595 	mov	dptr,#_sendHidPollMSG_PARM_10
      000D77 EE               [12] 3596 	mov	a,r6
      000D78 F0               [24] 3597 	movx	@dptr,a
      000D79 75 82 04         [24] 3598 	mov	dpl,#0x04
      000D7C C0 07            [24] 3599 	push	ar7
      000D7E C0 02            [24] 3600 	push	ar2
      000D80 C0 00            [24] 3601 	push	ar0
      000D82 12r00r00         [24] 3602 	lcall	_sendHidPollMSG
      000D85 D0 00            [24] 3603 	pop	ar0
      000D87 D0 02            [24] 3604 	pop	ar2
      000D89 D0 07            [24] 3605 	pop	ar7
                                   3606 ;	USBHost.c:561: if (HIDdevice[hiddevice].type == REPORT_USAGE_MOUSE) {
      000D8B 88 82            [24] 3607 	mov	dpl,r0
      000D8D 8A 83            [24] 3608 	mov	dph,r2
      000D8F E0               [24] 3609 	movx	a,@dptr
      000D90 F8               [12] 3610 	mov	r0,a
      000D91 A3               [24] 3611 	inc	dptr
      000D92 E0               [24] 3612 	movx	a,@dptr
      000D93 FA               [12] 3613 	mov	r2,a
      000D94 A3               [24] 3614 	inc	dptr
      000D95 E0               [24] 3615 	movx	a,@dptr
      000D96 FE               [12] 3616 	mov	r6,a
      000D97 A3               [24] 3617 	inc	dptr
      000D98 E0               [24] 3618 	movx	a,@dptr
      000D99 FD               [12] 3619 	mov	r5,a
      000D9A B8 02 31         [24] 3620 	cjne	r0,#0x02,00111$
      000D9D BA 00 2E         [24] 3621 	cjne	r2,#0x00,00111$
      000DA0 BE 00 2B         [24] 3622 	cjne	r6,#0x00,00111$
      000DA3 BD 00 28         [24] 3623 	cjne	r5,#0x00,00111$
                                   3624 ;	USBHost.c:562: mouse_write(RxBuffer[0]); // byte 0: 00000RML  (  // )
      000DA6 90 00 00         [24] 3625 	mov	dptr,#_RxBuffer
      000DA9 E0               [24] 3626 	movx	a,@dptr
      000DAA F5 82            [12] 3627 	mov	dpl,a
      000DAC C0 07            [24] 3628 	push	ar7
      000DAE 12r00r00         [24] 3629 	lcall	_mouse_write
                                   3630 ;	USBHost.c:563: mouse_write(RxBuffer[1]); // byte 1: X (signed)
      000DB1 90 00 01         [24] 3631 	mov	dptr,#(_RxBuffer + 0x0001)
      000DB4 E0               [24] 3632 	movx	a,@dptr
      000DB5 F5 82            [12] 3633 	mov	dpl,a
      000DB7 12r00r00         [24] 3634 	lcall	_mouse_write
                                   3635 ;	USBHost.c:564: mouse_write(RxBuffer[2]); // byte 2: Y (signed)
      000DBA 90 00 02         [24] 3636 	mov	dptr,#(_RxBuffer + 0x0002)
      000DBD E0               [24] 3637 	movx	a,@dptr
      000DBE F5 82            [12] 3638 	mov	dpl,a
      000DC0 12r00r00         [24] 3639 	lcall	_mouse_write
                                   3640 ;	USBHost.c:565: mouse_write(RxBuffer[3]); // byte 3: Wheel (signed)
      000DC3 90 00 03         [24] 3641 	mov	dptr,#(_RxBuffer + 0x0003)
      000DC6 E0               [24] 3642 	movx	a,@dptr
      000DC7 F5 82            [12] 3643 	mov	dpl,a
      000DC9 12r00r00         [24] 3644 	lcall	_mouse_write
      000DCC D0 07            [24] 3645 	pop	ar7
      000DCE                       3646 00111$:
                                   3647 ;	USBHost.c:546: for (hiddevice = 0; hiddevice < MAX_HID_DEVICES; hiddevice++)
      000DCE 0F               [12] 3648 	inc	r7
      000DCF BF 08 00         [24] 3649 	cjne	r7,#0x08,00147$
      000DD2                       3650 00147$:
      000DD2 50 03            [24] 3651 	jnc	00148$
      000DD4 02r0Cr39         [24] 3652 	ljmp	00110$
      000DD7                       3653 00148$:
                                   3654 ;	USBHost.c:571: }
      000DD7 22               [24] 3655 	ret
                                   3656 ;------------------------------------------------------------
                                   3657 ;Allocation info for local variables in function 'parseHIDDeviceReport'
                                   3658 ;------------------------------------------------------------
                                   3659 ;sloc0                     Allocated with name '_parseHIDDeviceReport_sloc0_1_0'
                                   3660 ;sloc1                     Allocated with name '_parseHIDDeviceReport_sloc1_1_0'
                                   3661 ;sloc2                     Allocated with name '_parseHIDDeviceReport_sloc2_1_0'
                                   3662 ;sloc3                     Allocated with name '_parseHIDDeviceReport_sloc3_1_0'
                                   3663 ;sloc4                     Allocated with name '_parseHIDDeviceReport_sloc4_1_0'
                                   3664 ;sloc5                     Allocated with name '_parseHIDDeviceReport_sloc5_1_0'
                                   3665 ;sloc6                     Allocated with name '_parseHIDDeviceReport_sloc6_1_0'
                                   3666 ;length                    Allocated with name '_parseHIDDeviceReport_PARM_2'
                                   3667 ;CurrentDevive             Allocated with name '_parseHIDDeviceReport_PARM_3'
                                   3668 ;report                    Allocated with name '_parseHIDDeviceReport_report_65536_138'
                                   3669 ;i                         Allocated with name '_parseHIDDeviceReport_i_65536_139'
                                   3670 ;level                     Allocated with name '_parseHIDDeviceReport_level_65536_139'
                                   3671 ;isUsageSet                Allocated with name '_parseHIDDeviceReport_isUsageSet_65536_139'
                                   3672 ;j                         Allocated with name '_parseHIDDeviceReport_j_131072_140'
                                   3673 ;id                        Allocated with name '_parseHIDDeviceReport_id_131072_140'
                                   3674 ;size                      Allocated with name '_parseHIDDeviceReport_size_131072_140'
                                   3675 ;data                      Allocated with name '_parseHIDDeviceReport_data_131072_140'
                                   3676 ;vd                        Allocated with name '_parseHIDDeviceReport_vd_262144_144'
                                   3677 ;------------------------------------------------------------
                                   3678 ;	USBHost.c:573: void parseHIDDeviceReport(unsigned char __xdata *report, unsigned short length, unsigned char CurrentDevive)
                                   3679 ;	-----------------------------------------
                                   3680 ;	 function parseHIDDeviceReport
                                   3681 ;	-----------------------------------------
      000DD8                       3682 _parseHIDDeviceReport:
      000DD8 AF 83            [24] 3683 	mov	r7,dph
      000DDA E5 82            [12] 3684 	mov	a,dpl
      000DDC 90r02r99         [24] 3685 	mov	dptr,#_parseHIDDeviceReport_report_65536_138
      000DDF F0               [24] 3686 	movx	@dptr,a
      000DE0 EF               [12] 3687 	mov	a,r7
      000DE1 A3               [24] 3688 	inc	dptr
      000DE2 F0               [24] 3689 	movx	@dptr,a
                                   3690 ;	USBHost.c:575: unsigned short i = 0;
      000DE3 90r02r9B         [24] 3691 	mov	dptr,#_parseHIDDeviceReport_i_65536_139
      000DE6 E4               [12] 3692 	clr	a
      000DE7 F0               [24] 3693 	movx	@dptr,a
      000DE8 A3               [24] 3694 	inc	dptr
      000DE9 F0               [24] 3695 	movx	@dptr,a
                                   3696 ;	USBHost.c:576: unsigned char level = 0;
      000DEA 90r02r9D         [24] 3697 	mov	dptr,#_parseHIDDeviceReport_level_65536_139
      000DED F0               [24] 3698 	movx	@dptr,a
                                   3699 ;	USBHost.c:577: unsigned char isUsageSet = 0;
      000DEE 90r02r9E         [24] 3700 	mov	dptr,#_parseHIDDeviceReport_isUsageSet_65536_139
      000DF1 F0               [24] 3701 	movx	@dptr,a
                                   3702 ;	USBHost.c:578: while(i < length)
      000DF2 90r02r98         [24] 3703 	mov	dptr,#_parseHIDDeviceReport_PARM_3
      000DF5 E0               [24] 3704 	movx	a,@dptr
      000DF6 75 F0 08         [24] 3705 	mov	b,#0x08
      000DF9 A4               [48] 3706 	mul	ab
      000DFA 24r34            [12] 3707 	add	a,#_HIDdevice
      000DFC FE               [12] 3708 	mov	r6,a
      000DFD 74s02            [12] 3709 	mov	a,#(_HIDdevice >> 8)
      000DFF 35 F0            [12] 3710 	addc	a,b
      000E01 FF               [12] 3711 	mov	r7,a
      000E02 90r02r99         [24] 3712 	mov	dptr,#_parseHIDDeviceReport_report_65536_138
      000E05 E0               [24] 3713 	movx	a,@dptr
      000E06 F5*1A            [12] 3714 	mov	_parseHIDDeviceReport_sloc4_1_0,a
      000E08 A3               [24] 3715 	inc	dptr
      000E09 E0               [24] 3716 	movx	a,@dptr
      000E0A F5*1B            [12] 3717 	mov	(_parseHIDDeviceReport_sloc4_1_0 + 1),a
      000E0C AA*1A            [24] 3718 	mov	r2,_parseHIDDeviceReport_sloc4_1_0
      000E0E AB*1B            [24] 3719 	mov	r3,(_parseHIDDeviceReport_sloc4_1_0 + 1)
      000E10 90r02r96         [24] 3720 	mov	dptr,#_parseHIDDeviceReport_PARM_2
      000E13 E0               [24] 3721 	movx	a,@dptr
      000E14 F5*18            [12] 3722 	mov	_parseHIDDeviceReport_sloc3_1_0,a
      000E16 A3               [24] 3723 	inc	dptr
      000E17 E0               [24] 3724 	movx	a,@dptr
      000E18 F5*19            [12] 3725 	mov	(_parseHIDDeviceReport_sloc3_1_0 + 1),a
      000E1A                       3726 00151$:
      000E1A 90r02r9B         [24] 3727 	mov	dptr,#_parseHIDDeviceReport_i_65536_139
      000E1D E0               [24] 3728 	movx	a,@dptr
      000E1E F5*14            [12] 3729 	mov	_parseHIDDeviceReport_sloc0_1_0,a
      000E20 A3               [24] 3730 	inc	dptr
      000E21 E0               [24] 3731 	movx	a,@dptr
      000E22 F5*15            [12] 3732 	mov	(_parseHIDDeviceReport_sloc0_1_0 + 1),a
      000E24 C3               [12] 3733 	clr	c
      000E25 E5*14            [12] 3734 	mov	a,_parseHIDDeviceReport_sloc0_1_0
      000E27 95*18            [12] 3735 	subb	a,_parseHIDDeviceReport_sloc3_1_0
      000E29 E5*15            [12] 3736 	mov	a,(_parseHIDDeviceReport_sloc0_1_0 + 1)
      000E2B 95*19            [12] 3737 	subb	a,(_parseHIDDeviceReport_sloc3_1_0 + 1)
      000E2D 40 01            [24] 3738 	jc	00304$
      000E2F 22               [24] 3739 	ret
      000E30                       3740 00304$:
                                   3741 ;	USBHost.c:581: unsigned char id = report[i] & 0b11111100;
      000E30 C0 06            [24] 3742 	push	ar6
      000E32 C0 07            [24] 3743 	push	ar7
      000E34 E5*14            [12] 3744 	mov	a,_parseHIDDeviceReport_sloc0_1_0
      000E36 25*1A            [12] 3745 	add	a,_parseHIDDeviceReport_sloc4_1_0
      000E38 F5 82            [12] 3746 	mov	dpl,a
      000E3A E5*15            [12] 3747 	mov	a,(_parseHIDDeviceReport_sloc0_1_0 + 1)
      000E3C 35*1B            [12] 3748 	addc	a,(_parseHIDDeviceReport_sloc4_1_0 + 1)
      000E3E F5 83            [12] 3749 	mov	dph,a
      000E40 E0               [24] 3750 	movx	a,@dptr
      000E41 FF               [12] 3751 	mov	r7,a
      000E42 90r02r9F         [24] 3752 	mov	dptr,#_parseHIDDeviceReport_id_131072_140
      000E45 74 FC            [12] 3753 	mov	a,#0xfc
      000E47 5F               [12] 3754 	anl	a,r7
      000E48 F0               [24] 3755 	movx	@dptr,a
                                   3756 ;	USBHost.c:582: unsigned char size = report[i] & 0b00000011;
      000E49 74 03            [12] 3757 	mov	a,#0x03
      000E4B 5F               [12] 3758 	anl	a,r7
      000E4C F5*14            [12] 3759 	mov	_parseHIDDeviceReport_sloc0_1_0,a
      000E4E 90r02rA0         [24] 3760 	mov	dptr,#_parseHIDDeviceReport_size_131072_140
      000E51 F0               [24] 3761 	movx	@dptr,a
                                   3762 ;	USBHost.c:583: unsigned long data = 0;
      000E52 90r02rA1         [24] 3763 	mov	dptr,#_parseHIDDeviceReport_data_131072_140
      000E55 E4               [12] 3764 	clr	a
      000E56 F0               [24] 3765 	movx	@dptr,a
      000E57 A3               [24] 3766 	inc	dptr
      000E58 F0               [24] 3767 	movx	@dptr,a
      000E59 A3               [24] 3768 	inc	dptr
      000E5A F0               [24] 3769 	movx	@dptr,a
      000E5B A3               [24] 3770 	inc	dptr
      000E5C F0               [24] 3771 	movx	@dptr,a
                                   3772 ;	USBHost.c:584: if(size == 3) size++;
      000E5D 74 03            [12] 3773 	mov	a,#0x03
      000E5F B5*14 02         [24] 3774 	cjne	a,_parseHIDDeviceReport_sloc0_1_0,00305$
      000E62 80 06            [24] 3775 	sjmp	00306$
      000E64                       3776 00305$:
      000E64 D0 07            [24] 3777 	pop	ar7
      000E66 D0 06            [24] 3778 	pop	ar6
      000E68 80 0B            [24] 3779 	sjmp	00169$
      000E6A                       3780 00306$:
      000E6A D0 07            [24] 3781 	pop	ar7
      000E6C D0 06            [24] 3782 	pop	ar6
      000E6E 90r02rA0         [24] 3783 	mov	dptr,#_parseHIDDeviceReport_size_131072_140
      000E71 E5*14            [12] 3784 	mov	a,_parseHIDDeviceReport_sloc0_1_0
      000E73 04               [12] 3785 	inc	a
      000E74 F0               [24] 3786 	movx	@dptr,a
                                   3787 ;	USBHost.c:585: for(j = 0; j < size; j++)
      000E75                       3788 00169$:
      000E75 90r02r9B         [24] 3789 	mov	dptr,#_parseHIDDeviceReport_i_65536_139
      000E78 E0               [24] 3790 	movx	a,@dptr
      000E79 F5*14            [12] 3791 	mov	_parseHIDDeviceReport_sloc0_1_0,a
      000E7B A3               [24] 3792 	inc	dptr
      000E7C E0               [24] 3793 	movx	a,@dptr
      000E7D F5*15            [12] 3794 	mov	(_parseHIDDeviceReport_sloc0_1_0 + 1),a
      000E7F 90r02rA0         [24] 3795 	mov	dptr,#_parseHIDDeviceReport_size_131072_140
      000E82 E0               [24] 3796 	movx	a,@dptr
      000E83 F5*16            [12] 3797 	mov	_parseHIDDeviceReport_sloc1_1_0,a
      000E85 75*17 00         [24] 3798 	mov	_parseHIDDeviceReport_sloc2_1_0,#0x00
      000E88                       3799 00155$:
      000E88 C3               [12] 3800 	clr	c
      000E89 E5*17            [12] 3801 	mov	a,_parseHIDDeviceReport_sloc2_1_0
      000E8B 95*16            [12] 3802 	subb	a,_parseHIDDeviceReport_sloc1_1_0
      000E8D 50 5B            [24] 3803 	jnc	00103$
                                   3804 ;	USBHost.c:586: data |= ((unsigned long)report[i + 1 + j]) << (j * 8);
      000E8F C0 06            [24] 3805 	push	ar6
      000E91 C0 07            [24] 3806 	push	ar7
      000E93 AE*14            [24] 3807 	mov	r6,_parseHIDDeviceReport_sloc0_1_0
      000E95 AF*15            [24] 3808 	mov	r7,(_parseHIDDeviceReport_sloc0_1_0 + 1)
      000E97 0E               [12] 3809 	inc	r6
      000E98 BE 00 01         [24] 3810 	cjne	r6,#0x00,00308$
      000E9B 0F               [12] 3811 	inc	r7
      000E9C                       3812 00308$:
      000E9C A8*17            [24] 3813 	mov	r0,_parseHIDDeviceReport_sloc2_1_0
      000E9E 79 00            [12] 3814 	mov	r1,#0x00
      000EA0 E8               [12] 3815 	mov	a,r0
      000EA1 2E               [12] 3816 	add	a,r6
      000EA2 FE               [12] 3817 	mov	r6,a
      000EA3 E9               [12] 3818 	mov	a,r1
      000EA4 3F               [12] 3819 	addc	a,r7
      000EA5 FF               [12] 3820 	mov	r7,a
      000EA6 EE               [12] 3821 	mov	a,r6
      000EA7 2A               [12] 3822 	add	a,r2
      000EA8 F5 82            [12] 3823 	mov	dpl,a
      000EAA EF               [12] 3824 	mov	a,r7
      000EAB 3B               [12] 3825 	addc	a,r3
      000EAC F5 83            [12] 3826 	mov	dph,a
      000EAE E0               [24] 3827 	movx	a,@dptr
      000EAF F8               [12] 3828 	mov	r0,a
      000EB0 E4               [12] 3829 	clr	a
      000EB1 F9               [12] 3830 	mov	r1,a
      000EB2 FE               [12] 3831 	mov	r6,a
      000EB3 FF               [12] 3832 	mov	r7,a
      000EB4 E5*17            [12] 3833 	mov	a,_parseHIDDeviceReport_sloc2_1_0
      000EB6 C4               [12] 3834 	swap	a
      000EB7 03               [12] 3835 	rr	a
      000EB8 54 F8            [12] 3836 	anl	a,#0xf8
      000EBA FD               [12] 3837 	mov	r5,a
      000EBB 8D F0            [24] 3838 	mov	b,r5
      000EBD 05 F0            [12] 3839 	inc	b
      000EBF 80 0C            [24] 3840 	sjmp	00310$
      000EC1                       3841 00309$:
      000EC1 E8               [12] 3842 	mov	a,r0
      000EC2 28               [12] 3843 	add	a,r0
      000EC3 F8               [12] 3844 	mov	r0,a
      000EC4 E9               [12] 3845 	mov	a,r1
      000EC5 33               [12] 3846 	rlc	a
      000EC6 F9               [12] 3847 	mov	r1,a
      000EC7 EE               [12] 3848 	mov	a,r6
      000EC8 33               [12] 3849 	rlc	a
      000EC9 FE               [12] 3850 	mov	r6,a
      000ECA EF               [12] 3851 	mov	a,r7
      000ECB 33               [12] 3852 	rlc	a
      000ECC FF               [12] 3853 	mov	r7,a
      000ECD                       3854 00310$:
      000ECD D5 F0 F1         [24] 3855 	djnz	b,00309$
      000ED0 90r02rA1         [24] 3856 	mov	dptr,#_parseHIDDeviceReport_data_131072_140
      000ED3 E0               [24] 3857 	movx	a,@dptr
      000ED4 48               [12] 3858 	orl	a,r0
      000ED5 F0               [24] 3859 	movx	@dptr,a
      000ED6 A3               [24] 3860 	inc	dptr
      000ED7 E0               [24] 3861 	movx	a,@dptr
      000ED8 49               [12] 3862 	orl	a,r1
      000ED9 F0               [24] 3863 	movx	@dptr,a
      000EDA A3               [24] 3864 	inc	dptr
      000EDB E0               [24] 3865 	movx	a,@dptr
      000EDC 4E               [12] 3866 	orl	a,r6
      000EDD F0               [24] 3867 	movx	@dptr,a
      000EDE A3               [24] 3868 	inc	dptr
      000EDF E0               [24] 3869 	movx	a,@dptr
      000EE0 4F               [12] 3870 	orl	a,r7
      000EE1 F0               [24] 3871 	movx	@dptr,a
                                   3872 ;	USBHost.c:585: for(j = 0; j < size; j++)
      000EE2 05*17            [12] 3873 	inc	_parseHIDDeviceReport_sloc2_1_0
      000EE4 D0 07            [24] 3874 	pop	ar7
      000EE6 D0 06            [24] 3875 	pop	ar6
      000EE8 80 9E            [24] 3876 	sjmp	00155$
      000EEA                       3877 00103$:
                                   3878 ;	USBHost.c:587: for(j = 0; j < level - (id == REPORT_COLLECTION_END ? 1 : 0); j++)
      000EEA 90r02r9D         [24] 3879 	mov	dptr,#_parseHIDDeviceReport_level_65536_139
      000EED E0               [24] 3880 	movx	a,@dptr
      000EEE FD               [12] 3881 	mov	r5,a
      000EEF 90r02r9F         [24] 3882 	mov	dptr,#_parseHIDDeviceReport_id_131072_140
      000EF2 E0               [24] 3883 	movx	a,@dptr
      000EF3 FC               [12] 3884 	mov	r4,a
      000EF4 E4               [12] 3885 	clr	a
      000EF5 BC C0 01         [24] 3886 	cjne	r4,#0xc0,00311$
      000EF8 04               [12] 3887 	inc	a
      000EF9                       3888 00311$:
      000EF9 F5*17            [12] 3889 	mov	_parseHIDDeviceReport_sloc2_1_0,a
      000EFB 79 00            [12] 3890 	mov	r1,#0x00
      000EFD                       3891 00158$:
      000EFD 8D*14            [24] 3892 	mov	_parseHIDDeviceReport_sloc0_1_0,r5
      000EFF 75*15 00         [24] 3893 	mov	(_parseHIDDeviceReport_sloc0_1_0 + 1),#0x00
      000F02 E5*17            [12] 3894 	mov	a,_parseHIDDeviceReport_sloc2_1_0
      000F04 60 08            [24] 3895 	jz	00162$
      000F06 75*1C 01         [24] 3896 	mov	_parseHIDDeviceReport_sloc5_1_0,#0x01
      000F09 75*1D 00         [24] 3897 	mov	(_parseHIDDeviceReport_sloc5_1_0 + 1),#0x00
      000F0C 80 05            [24] 3898 	sjmp	00163$
      000F0E                       3899 00162$:
      000F0E E4               [12] 3900 	clr	a
      000F0F F5*1C            [12] 3901 	mov	_parseHIDDeviceReport_sloc5_1_0,a
      000F11 F5*1D            [12] 3902 	mov	(_parseHIDDeviceReport_sloc5_1_0 + 1),a
      000F13                       3903 00163$:
      000F13 C0 06            [24] 3904 	push	ar6
      000F15 C0 07            [24] 3905 	push	ar7
      000F17 E5*14            [12] 3906 	mov	a,_parseHIDDeviceReport_sloc0_1_0
      000F19 C3               [12] 3907 	clr	c
      000F1A 95*1C            [12] 3908 	subb	a,_parseHIDDeviceReport_sloc5_1_0
      000F1C F8               [12] 3909 	mov	r0,a
      000F1D E5*15            [12] 3910 	mov	a,(_parseHIDDeviceReport_sloc0_1_0 + 1)
      000F1F 95*1D            [12] 3911 	subb	a,(_parseHIDDeviceReport_sloc5_1_0 + 1)
      000F21 FF               [12] 3912 	mov	r7,a
      000F22 89 04            [24] 3913 	mov	ar4,r1
      000F24 7E 00            [12] 3914 	mov	r6,#0x00
      000F26 C3               [12] 3915 	clr	c
      000F27 EC               [12] 3916 	mov	a,r4
      000F28 98               [12] 3917 	subb	a,r0
      000F29 EE               [12] 3918 	mov	a,r6
      000F2A 64 80            [12] 3919 	xrl	a,#0x80
      000F2C 8F F0            [24] 3920 	mov	b,r7
      000F2E 63 F0 80         [24] 3921 	xrl	b,#0x80
      000F31 95 F0            [12] 3922 	subb	a,b
      000F33 D0 07            [24] 3923 	pop	ar7
      000F35 D0 06            [24] 3924 	pop	ar6
      000F37 50 30            [24] 3925 	jnc	00104$
                                   3926 ;	USBHost.c:588: DEBUG_OUT("    ");
      000F39 C0 07            [24] 3927 	push	ar7
      000F3B C0 06            [24] 3928 	push	ar6
      000F3D C0 05            [24] 3929 	push	ar5
      000F3F C0 03            [24] 3930 	push	ar3
      000F41 C0 02            [24] 3931 	push	ar2
      000F43 C0 01            [24] 3932 	push	ar1
      000F45 74r75            [12] 3933 	mov	a,#___str_14
      000F47 C0 E0            [24] 3934 	push	acc
      000F49 74s01            [12] 3935 	mov	a,#(___str_14 >> 8)
      000F4B C0 E0            [24] 3936 	push	acc
      000F4D 74 80            [12] 3937 	mov	a,#0x80
      000F4F C0 E0            [24] 3938 	push	acc
      000F51 12r00r00         [24] 3939 	lcall	_printf
      000F54 15 81            [12] 3940 	dec	sp
      000F56 15 81            [12] 3941 	dec	sp
      000F58 15 81            [12] 3942 	dec	sp
      000F5A D0 01            [24] 3943 	pop	ar1
      000F5C D0 02            [24] 3944 	pop	ar2
      000F5E D0 03            [24] 3945 	pop	ar3
      000F60 D0 05            [24] 3946 	pop	ar5
      000F62 D0 06            [24] 3947 	pop	ar6
      000F64 D0 07            [24] 3948 	pop	ar7
                                   3949 ;	USBHost.c:587: for(j = 0; j < level - (id == REPORT_COLLECTION_END ? 1 : 0); j++)
      000F66 09               [12] 3950 	inc	r1
      000F67 80 94            [24] 3951 	sjmp	00158$
      000F69                       3952 00104$:
                                   3953 ;	USBHost.c:589: switch(id)
      000F69 90r02r9F         [24] 3954 	mov	dptr,#_parseHIDDeviceReport_id_131072_140
      000F6C E0               [24] 3955 	movx	a,@dptr
      000F6D FD               [12] 3956 	mov	r5,a
      000F6E BD 04 02         [24] 3957 	cjne	r5,#0x04,00315$
      000F71 80 63            [24] 3958 	sjmp	00105$
      000F73                       3959 00315$:
      000F73 BD 08 03         [24] 3960 	cjne	r5,#0x08,00316$
      000F76 02r11rB6         [24] 3961 	ljmp	00113$
      000F79                       3962 00316$:
      000F79 BD 14 03         [24] 3963 	cjne	r5,#0x14,00317$
      000F7C 02r15r5F         [24] 3964 	ljmp	00134$
      000F7F                       3965 00317$:
      000F7F BD 18 03         [24] 3966 	cjne	r5,#0x18,00318$
      000F82 02r16r47         [24] 3967 	ljmp	00138$
      000F85                       3968 00318$:
      000F85 BD 24 03         [24] 3969 	cjne	r5,#0x24,00319$
      000F88 02r15r99         [24] 3970 	ljmp	00135$
      000F8B                       3971 00319$:
      000F8B BD 28 03         [24] 3972 	cjne	r5,#0x28,00320$
      000F8E 02r16r81         [24] 3973 	ljmp	00139$
      000F91                       3974 00320$:
      000F91 BD 34 03         [24] 3975 	cjne	r5,#0x34,00321$
      000F94 02r15rD3         [24] 3976 	ljmp	00136$
      000F97                       3977 00321$:
      000F97 BD 44 03         [24] 3978 	cjne	r5,#0x44,00322$
      000F9A 02r16r0D         [24] 3979 	ljmp	00137$
      000F9D                       3980 00322$:
      000F9D BD 64 03         [24] 3981 	cjne	r5,#0x64,00323$
      000FA0 02r17r3C         [24] 3982 	ljmp	00142$
      000FA3                       3983 00323$:
      000FA3 BD 74 03         [24] 3984 	cjne	r5,#0x74,00324$
      000FA6 02r18r24         [24] 3985 	ljmp	00146$
      000FA9                       3986 00324$:
      000FA9 BD 80 03         [24] 3987 	cjne	r5,#0x80,00325$
      000FAC 02r17r76         [24] 3988 	ljmp	00143$
      000FAF                       3989 00325$:
      000FAF BD 84 03         [24] 3990 	cjne	r5,#0x84,00326$
      000FB2 02r18r5E         [24] 3991 	ljmp	00147$
      000FB5                       3992 00326$:
      000FB5 BD 90 03         [24] 3993 	cjne	r5,#0x90,00327$
      000FB8 02r17rB0         [24] 3994 	ljmp	00144$
      000FBB                       3995 00327$:
      000FBB BD 94 03         [24] 3996 	cjne	r5,#0x94,00328$
      000FBE 02r18r98         [24] 3997 	ljmp	00148$
      000FC1                       3998 00328$:
      000FC1 BD A0 03         [24] 3999 	cjne	r5,#0xa0,00329$
      000FC4 02r16rBB         [24] 4000 	ljmp	00140$
      000FC7                       4001 00329$:
      000FC7 BD B0 03         [24] 4002 	cjne	r5,#0xb0,00330$
      000FCA 02r17rEA         [24] 4003 	ljmp	00145$
      000FCD                       4004 00330$:
      000FCD BD C0 03         [24] 4005 	cjne	r5,#0xc0,00331$
      000FD0 02r16rFC         [24] 4006 	ljmp	00141$
      000FD3                       4007 00331$:
      000FD3 02r18rD1         [24] 4008 	ljmp	00149$
                                   4009 ;	USBHost.c:591: case REPORT_USAGE_PAGE:    //todo clean up defines (case)
      000FD6                       4010 00105$:
                                   4011 ;	USBHost.c:593: unsigned long vd = data < REPORT_USAGE_PAGE_VENDOR ? data : REPORT_USAGE_PAGE_VENDOR;
      000FD6 90r02rA1         [24] 4012 	mov	dptr,#_parseHIDDeviceReport_data_131072_140
      000FD9 E0               [24] 4013 	movx	a,@dptr
      000FDA F5*1E            [12] 4014 	mov	_parseHIDDeviceReport_sloc6_1_0,a
      000FDC A3               [24] 4015 	inc	dptr
      000FDD E0               [24] 4016 	movx	a,@dptr
      000FDE F5*1F            [12] 4017 	mov	(_parseHIDDeviceReport_sloc6_1_0 + 1),a
      000FE0 A3               [24] 4018 	inc	dptr
      000FE1 E0               [24] 4019 	movx	a,@dptr
      000FE2 F5*20            [12] 4020 	mov	(_parseHIDDeviceReport_sloc6_1_0 + 2),a
      000FE4 A3               [24] 4021 	inc	dptr
      000FE5 E0               [24] 4022 	movx	a,@dptr
      000FE6 F5*21            [12] 4023 	mov	(_parseHIDDeviceReport_sloc6_1_0 + 3),a
      000FE8 C3               [12] 4024 	clr	c
      000FE9 E5*1F            [12] 4025 	mov	a,(_parseHIDDeviceReport_sloc6_1_0 + 1)
      000FEB 94 FF            [12] 4026 	subb	a,#0xff
      000FED E5*20            [12] 4027 	mov	a,(_parseHIDDeviceReport_sloc6_1_0 + 2)
      000FEF 94 00            [12] 4028 	subb	a,#0x00
      000FF1 E5*21            [12] 4029 	mov	a,(_parseHIDDeviceReport_sloc6_1_0 + 3)
      000FF3 94 00            [12] 4030 	subb	a,#0x00
      000FF5 40 0A            [24] 4031 	jc	00165$
      000FF7 E4               [12] 4032 	clr	a
      000FF8 F5*1E            [12] 4033 	mov	_parseHIDDeviceReport_sloc6_1_0,a
      000FFA 75*1F FF         [24] 4034 	mov	(_parseHIDDeviceReport_sloc6_1_0 + 1),#0xff
      000FFD F5*20            [12] 4035 	mov	(_parseHIDDeviceReport_sloc6_1_0 + 2),a
      000FFF F5*21            [12] 4036 	mov	(_parseHIDDeviceReport_sloc6_1_0 + 3),a
      001001                       4037 00165$:
                                   4038 ;	USBHost.c:594: DEBUG_OUT("Usage page ");
      001001 C0 07            [24] 4039 	push	ar7
      001003 C0 06            [24] 4040 	push	ar6
      001005 C0 03            [24] 4041 	push	ar3
      001007 C0 02            [24] 4042 	push	ar2
      001009 74r7A            [12] 4043 	mov	a,#___str_15
      00100B C0 E0            [24] 4044 	push	acc
      00100D 74s01            [12] 4045 	mov	a,#(___str_15 >> 8)
      00100F C0 E0            [24] 4046 	push	acc
      001011 74 80            [12] 4047 	mov	a,#0x80
      001013 C0 E0            [24] 4048 	push	acc
      001015 12r00r00         [24] 4049 	lcall	_printf
      001018 15 81            [12] 4050 	dec	sp
      00101A 15 81            [12] 4051 	dec	sp
      00101C 15 81            [12] 4052 	dec	sp
      00101E D0 02            [24] 4053 	pop	ar2
      001020 D0 03            [24] 4054 	pop	ar3
      001022 D0 06            [24] 4055 	pop	ar6
      001024 D0 07            [24] 4056 	pop	ar7
                                   4057 ;	USBHost.c:595: switch(vd)
      001026 74 01            [12] 4058 	mov	a,#0x01
      001028 B5*1E 0D         [24] 4059 	cjne	a,_parseHIDDeviceReport_sloc6_1_0,00333$
      00102B 14               [12] 4060 	dec	a
      00102C B5*1F 09         [24] 4061 	cjne	a,(_parseHIDDeviceReport_sloc6_1_0 + 1),00333$
      00102F B5*20 06         [24] 4062 	cjne	a,(_parseHIDDeviceReport_sloc6_1_0 + 2),00333$
      001032 B5*21 03         [24] 4063 	cjne	a,(_parseHIDDeviceReport_sloc6_1_0 + 3),00333$
      001035 02r10rF7         [24] 4064 	ljmp	00109$
      001038                       4065 00333$:
      001038 74 07            [12] 4066 	mov	a,#0x07
      00103A B5*1E 0C         [24] 4067 	cjne	a,_parseHIDDeviceReport_sloc6_1_0,00334$
      00103D E4               [12] 4068 	clr	a
      00103E B5*1F 08         [24] 4069 	cjne	a,(_parseHIDDeviceReport_sloc6_1_0 + 1),00334$
      001041 B5*20 05         [24] 4070 	cjne	a,(_parseHIDDeviceReport_sloc6_1_0 + 2),00334$
      001044 B5*21 02         [24] 4071 	cjne	a,(_parseHIDDeviceReport_sloc6_1_0 + 3),00334$
      001047 80 5E            [24] 4072 	sjmp	00107$
      001049                       4073 00334$:
      001049 74 08            [12] 4074 	mov	a,#0x08
      00104B B5*1E 0C         [24] 4075 	cjne	a,_parseHIDDeviceReport_sloc6_1_0,00335$
      00104E E4               [12] 4076 	clr	a
      00104F B5*1F 08         [24] 4077 	cjne	a,(_parseHIDDeviceReport_sloc6_1_0 + 1),00335$
      001052 B5*20 05         [24] 4078 	cjne	a,(_parseHIDDeviceReport_sloc6_1_0 + 2),00335$
      001055 B5*21 02         [24] 4079 	cjne	a,(_parseHIDDeviceReport_sloc6_1_0 + 3),00335$
      001058 80 25            [24] 4080 	sjmp	00106$
      00105A                       4081 00335$:
      00105A 74 09            [12] 4082 	mov	a,#0x09
      00105C B5*1E 0C         [24] 4083 	cjne	a,_parseHIDDeviceReport_sloc6_1_0,00336$
      00105F E4               [12] 4084 	clr	a
      001060 B5*1F 08         [24] 4085 	cjne	a,(_parseHIDDeviceReport_sloc6_1_0 + 1),00336$
      001063 B5*20 05         [24] 4086 	cjne	a,(_parseHIDDeviceReport_sloc6_1_0 + 2),00336$
      001066 B5*21 02         [24] 4087 	cjne	a,(_parseHIDDeviceReport_sloc6_1_0 + 3),00336$
      001069 80 64            [24] 4088 	sjmp	00108$
      00106B                       4089 00336$:
      00106B E4               [12] 4090 	clr	a
      00106C B5*1E 0D         [24] 4091 	cjne	a,_parseHIDDeviceReport_sloc6_1_0,00337$
      00106F B5*20 0A         [24] 4092 	cjne	a,(_parseHIDDeviceReport_sloc6_1_0 + 2),00337$
      001072 B5*21 07         [24] 4093 	cjne	a,(_parseHIDDeviceReport_sloc6_1_0 + 3),00337$
      001075 F4               [12] 4094 	cpl	a
      001076 B5*1F 03         [24] 4095 	cjne	a,(_parseHIDDeviceReport_sloc6_1_0 + 1),00337$
      001079 02r11r1E         [24] 4096 	ljmp	00110$
      00107C                       4097 00337$:
      00107C 02r11r57         [24] 4098 	ljmp	00111$
                                   4099 ;	USBHost.c:597: case REPORT_USAGE_PAGE_LEDS:
      00107F                       4100 00106$:
                                   4101 ;	USBHost.c:598: DEBUG_OUT("LEDs");
      00107F C0 07            [24] 4102 	push	ar7
      001081 C0 06            [24] 4103 	push	ar6
      001083 C0 03            [24] 4104 	push	ar3
      001085 C0 02            [24] 4105 	push	ar2
      001087 74r86            [12] 4106 	mov	a,#___str_16
      001089 C0 E0            [24] 4107 	push	acc
      00108B 74s01            [12] 4108 	mov	a,#(___str_16 >> 8)
      00108D C0 E0            [24] 4109 	push	acc
      00108F 74 80            [12] 4110 	mov	a,#0x80
      001091 C0 E0            [24] 4111 	push	acc
      001093 12r00r00         [24] 4112 	lcall	_printf
      001096 15 81            [12] 4113 	dec	sp
      001098 15 81            [12] 4114 	dec	sp
      00109A 15 81            [12] 4115 	dec	sp
      00109C D0 02            [24] 4116 	pop	ar2
      00109E D0 03            [24] 4117 	pop	ar3
      0010A0 D0 06            [24] 4118 	pop	ar6
      0010A2 D0 07            [24] 4119 	pop	ar7
                                   4120 ;	USBHost.c:599: break;
      0010A4 02r11r8E         [24] 4121 	ljmp	00112$
                                   4122 ;	USBHost.c:600: case REPORT_USAGE_PAGE_KEYBOARD:
      0010A7                       4123 00107$:
                                   4124 ;	USBHost.c:601: DEBUG_OUT("Keyboard/Keypad");
      0010A7 C0 07            [24] 4125 	push	ar7
      0010A9 C0 06            [24] 4126 	push	ar6
      0010AB C0 03            [24] 4127 	push	ar3
      0010AD C0 02            [24] 4128 	push	ar2
      0010AF 74r8B            [12] 4129 	mov	a,#___str_17
      0010B1 C0 E0            [24] 4130 	push	acc
      0010B3 74s01            [12] 4131 	mov	a,#(___str_17 >> 8)
      0010B5 C0 E0            [24] 4132 	push	acc
      0010B7 74 80            [12] 4133 	mov	a,#0x80
      0010B9 C0 E0            [24] 4134 	push	acc
      0010BB 12r00r00         [24] 4135 	lcall	_printf
      0010BE 15 81            [12] 4136 	dec	sp
      0010C0 15 81            [12] 4137 	dec	sp
      0010C2 15 81            [12] 4138 	dec	sp
      0010C4 D0 02            [24] 4139 	pop	ar2
      0010C6 D0 03            [24] 4140 	pop	ar3
      0010C8 D0 06            [24] 4141 	pop	ar6
      0010CA D0 07            [24] 4142 	pop	ar7
                                   4143 ;	USBHost.c:602: break;
      0010CC 02r11r8E         [24] 4144 	ljmp	00112$
                                   4145 ;	USBHost.c:603: case REPORT_USAGE_PAGE_BUTTON:
      0010CF                       4146 00108$:
                                   4147 ;	USBHost.c:604: DEBUG_OUT("Button");
      0010CF C0 07            [24] 4148 	push	ar7
      0010D1 C0 06            [24] 4149 	push	ar6
      0010D3 C0 03            [24] 4150 	push	ar3
      0010D5 C0 02            [24] 4151 	push	ar2
      0010D7 74r9B            [12] 4152 	mov	a,#___str_18
      0010D9 C0 E0            [24] 4153 	push	acc
      0010DB 74s01            [12] 4154 	mov	a,#(___str_18 >> 8)
      0010DD C0 E0            [24] 4155 	push	acc
      0010DF 74 80            [12] 4156 	mov	a,#0x80
      0010E1 C0 E0            [24] 4157 	push	acc
      0010E3 12r00r00         [24] 4158 	lcall	_printf
      0010E6 15 81            [12] 4159 	dec	sp
      0010E8 15 81            [12] 4160 	dec	sp
      0010EA 15 81            [12] 4161 	dec	sp
      0010EC D0 02            [24] 4162 	pop	ar2
      0010EE D0 03            [24] 4163 	pop	ar3
      0010F0 D0 06            [24] 4164 	pop	ar6
      0010F2 D0 07            [24] 4165 	pop	ar7
                                   4166 ;	USBHost.c:605: break;
      0010F4 02r11r8E         [24] 4167 	ljmp	00112$
                                   4168 ;	USBHost.c:606: case REPORT_USAGE_PAGE_GENERIC:
      0010F7                       4169 00109$:
                                   4170 ;	USBHost.c:607: DEBUG_OUT("generic desktop controls");
      0010F7 C0 07            [24] 4171 	push	ar7
      0010F9 C0 06            [24] 4172 	push	ar6
      0010FB C0 03            [24] 4173 	push	ar3
      0010FD C0 02            [24] 4174 	push	ar2
      0010FF 74rA2            [12] 4175 	mov	a,#___str_19
      001101 C0 E0            [24] 4176 	push	acc
      001103 74s01            [12] 4177 	mov	a,#(___str_19 >> 8)
      001105 C0 E0            [24] 4178 	push	acc
      001107 74 80            [12] 4179 	mov	a,#0x80
      001109 C0 E0            [24] 4180 	push	acc
      00110B 12r00r00         [24] 4181 	lcall	_printf
      00110E 15 81            [12] 4182 	dec	sp
      001110 15 81            [12] 4183 	dec	sp
      001112 15 81            [12] 4184 	dec	sp
      001114 D0 02            [24] 4185 	pop	ar2
      001116 D0 03            [24] 4186 	pop	ar3
      001118 D0 06            [24] 4187 	pop	ar6
      00111A D0 07            [24] 4188 	pop	ar7
                                   4189 ;	USBHost.c:608: break;
                                   4190 ;	USBHost.c:609: case REPORT_USAGE_PAGE_VENDOR:
      00111C 80 70            [24] 4191 	sjmp	00112$
      00111E                       4192 00110$:
                                   4193 ;	USBHost.c:610: DEBUG_OUT("vendor defined 0x%04lx", data);
      00111E C0 07            [24] 4194 	push	ar7
      001120 C0 06            [24] 4195 	push	ar6
      001122 C0 03            [24] 4196 	push	ar3
      001124 C0 02            [24] 4197 	push	ar2
      001126 90r02rA1         [24] 4198 	mov	dptr,#_parseHIDDeviceReport_data_131072_140
      001129 E0               [24] 4199 	movx	a,@dptr
      00112A C0 E0            [24] 4200 	push	acc
      00112C A3               [24] 4201 	inc	dptr
      00112D E0               [24] 4202 	movx	a,@dptr
      00112E C0 E0            [24] 4203 	push	acc
      001130 A3               [24] 4204 	inc	dptr
      001131 E0               [24] 4205 	movx	a,@dptr
      001132 C0 E0            [24] 4206 	push	acc
      001134 A3               [24] 4207 	inc	dptr
      001135 E0               [24] 4208 	movx	a,@dptr
      001136 C0 E0            [24] 4209 	push	acc
      001138 74rBB            [12] 4210 	mov	a,#___str_20
      00113A C0 E0            [24] 4211 	push	acc
      00113C 74s01            [12] 4212 	mov	a,#(___str_20 >> 8)
      00113E C0 E0            [24] 4213 	push	acc
      001140 74 80            [12] 4214 	mov	a,#0x80
      001142 C0 E0            [24] 4215 	push	acc
      001144 12r00r00         [24] 4216 	lcall	_printf
      001147 E5 81            [12] 4217 	mov	a,sp
      001149 24 F9            [12] 4218 	add	a,#0xf9
      00114B F5 81            [12] 4219 	mov	sp,a
      00114D D0 02            [24] 4220 	pop	ar2
      00114F D0 03            [24] 4221 	pop	ar3
      001151 D0 06            [24] 4222 	pop	ar6
      001153 D0 07            [24] 4223 	pop	ar7
                                   4224 ;	USBHost.c:611: break;
                                   4225 ;	USBHost.c:612: default:
      001155 80 37            [24] 4226 	sjmp	00112$
      001157                       4227 00111$:
                                   4228 ;	USBHost.c:613: DEBUG_OUT("unknown 0x%02lx", data);
      001157 C0 07            [24] 4229 	push	ar7
      001159 C0 06            [24] 4230 	push	ar6
      00115B C0 03            [24] 4231 	push	ar3
      00115D C0 02            [24] 4232 	push	ar2
      00115F 90r02rA1         [24] 4233 	mov	dptr,#_parseHIDDeviceReport_data_131072_140
      001162 E0               [24] 4234 	movx	a,@dptr
      001163 C0 E0            [24] 4235 	push	acc
      001165 A3               [24] 4236 	inc	dptr
      001166 E0               [24] 4237 	movx	a,@dptr
      001167 C0 E0            [24] 4238 	push	acc
      001169 A3               [24] 4239 	inc	dptr
      00116A E0               [24] 4240 	movx	a,@dptr
      00116B C0 E0            [24] 4241 	push	acc
      00116D A3               [24] 4242 	inc	dptr
      00116E E0               [24] 4243 	movx	a,@dptr
      00116F C0 E0            [24] 4244 	push	acc
      001171 74rD2            [12] 4245 	mov	a,#___str_21
      001173 C0 E0            [24] 4246 	push	acc
      001175 74s01            [12] 4247 	mov	a,#(___str_21 >> 8)
      001177 C0 E0            [24] 4248 	push	acc
      001179 74 80            [12] 4249 	mov	a,#0x80
      00117B C0 E0            [24] 4250 	push	acc
      00117D 12r00r00         [24] 4251 	lcall	_printf
      001180 E5 81            [12] 4252 	mov	a,sp
      001182 24 F9            [12] 4253 	add	a,#0xf9
      001184 F5 81            [12] 4254 	mov	sp,a
      001186 D0 02            [24] 4255 	pop	ar2
      001188 D0 03            [24] 4256 	pop	ar3
      00118A D0 06            [24] 4257 	pop	ar6
      00118C D0 07            [24] 4258 	pop	ar7
                                   4259 ;	USBHost.c:614: }
      00118E                       4260 00112$:
                                   4261 ;	USBHost.c:615: DEBUG_OUT("\n");
      00118E C0 07            [24] 4262 	push	ar7
      001190 C0 06            [24] 4263 	push	ar6
      001192 C0 03            [24] 4264 	push	ar3
      001194 C0 02            [24] 4265 	push	ar2
      001196 74r73            [12] 4266 	mov	a,#___str_13
      001198 C0 E0            [24] 4267 	push	acc
      00119A 74s01            [12] 4268 	mov	a,#(___str_13 >> 8)
      00119C C0 E0            [24] 4269 	push	acc
      00119E 74 80            [12] 4270 	mov	a,#0x80
      0011A0 C0 E0            [24] 4271 	push	acc
      0011A2 12r00r00         [24] 4272 	lcall	_printf
      0011A5 15 81            [12] 4273 	dec	sp
      0011A7 15 81            [12] 4274 	dec	sp
      0011A9 15 81            [12] 4275 	dec	sp
      0011AB D0 02            [24] 4276 	pop	ar2
      0011AD D0 03            [24] 4277 	pop	ar3
      0011AF D0 06            [24] 4278 	pop	ar6
      0011B1 D0 07            [24] 4279 	pop	ar7
                                   4280 ;	USBHost.c:617: break;
      0011B3 02r19r18         [24] 4281 	ljmp	00150$
                                   4282 ;	USBHost.c:618: case REPORT_USAGE:
      0011B6                       4283 00113$:
                                   4284 ;	USBHost.c:619: if (!isUsageSet){
      0011B6 90r02r9E         [24] 4285 	mov	dptr,#_parseHIDDeviceReport_isUsageSet_65536_139
      0011B9 E0               [24] 4286 	movx	a,@dptr
      0011BA 70 55            [24] 4287 	jnz	00117$
                                   4288 ;	USBHost.c:620: if (data == REPORT_USAGE_MOUSE) flash_led(); //  .
      0011BC 90r02rA1         [24] 4289 	mov	dptr,#_parseHIDDeviceReport_data_131072_140
      0011BF E0               [24] 4290 	movx	a,@dptr
      0011C0 F5*1E            [12] 4291 	mov	_parseHIDDeviceReport_sloc6_1_0,a
      0011C2 A3               [24] 4292 	inc	dptr
      0011C3 E0               [24] 4293 	movx	a,@dptr
      0011C4 F5*1F            [12] 4294 	mov	(_parseHIDDeviceReport_sloc6_1_0 + 1),a
      0011C6 A3               [24] 4295 	inc	dptr
      0011C7 E0               [24] 4296 	movx	a,@dptr
      0011C8 F5*20            [12] 4297 	mov	(_parseHIDDeviceReport_sloc6_1_0 + 2),a
      0011CA A3               [24] 4298 	inc	dptr
      0011CB E0               [24] 4299 	movx	a,@dptr
      0011CC F5*21            [12] 4300 	mov	(_parseHIDDeviceReport_sloc6_1_0 + 3),a
      0011CE 74 02            [12] 4301 	mov	a,#0x02
      0011D0 B5*1E 0C         [24] 4302 	cjne	a,_parseHIDDeviceReport_sloc6_1_0,00339$
      0011D3 E4               [12] 4303 	clr	a
      0011D4 B5*1F 08         [24] 4304 	cjne	a,(_parseHIDDeviceReport_sloc6_1_0 + 1),00339$
      0011D7 B5*20 05         [24] 4305 	cjne	a,(_parseHIDDeviceReport_sloc6_1_0 + 2),00339$
      0011DA B5*21 02         [24] 4306 	cjne	a,(_parseHIDDeviceReport_sloc6_1_0 + 3),00339$
      0011DD 80 02            [24] 4307 	sjmp	00340$
      0011DF                       4308 00339$:
      0011DF 80 13            [24] 4309 	sjmp	00115$
      0011E1                       4310 00340$:
      0011E1 C0 07            [24] 4311 	push	ar7
      0011E3 C0 06            [24] 4312 	push	ar6
      0011E5 C0 03            [24] 4313 	push	ar3
      0011E7 C0 02            [24] 4314 	push	ar2
      0011E9 12r00r00         [24] 4315 	lcall	_flash_led
      0011EC D0 02            [24] 4316 	pop	ar2
      0011EE D0 03            [24] 4317 	pop	ar3
      0011F0 D0 06            [24] 4318 	pop	ar6
      0011F2 D0 07            [24] 4319 	pop	ar7
      0011F4                       4320 00115$:
                                   4321 ;	USBHost.c:621: HIDdevice[CurrentDevive].type = data;
      0011F4 8E 82            [24] 4322 	mov	dpl,r6
      0011F6 8F 83            [24] 4323 	mov	dph,r7
      0011F8 A3               [24] 4324 	inc	dptr
      0011F9 A3               [24] 4325 	inc	dptr
      0011FA A3               [24] 4326 	inc	dptr
      0011FB A3               [24] 4327 	inc	dptr
      0011FC E5*1E            [12] 4328 	mov	a,_parseHIDDeviceReport_sloc6_1_0
      0011FE F0               [24] 4329 	movx	@dptr,a
      0011FF E5*1F            [12] 4330 	mov	a,(_parseHIDDeviceReport_sloc6_1_0 + 1)
      001201 A3               [24] 4331 	inc	dptr
      001202 F0               [24] 4332 	movx	@dptr,a
      001203 E5*20            [12] 4333 	mov	a,(_parseHIDDeviceReport_sloc6_1_0 + 2)
      001205 A3               [24] 4334 	inc	dptr
      001206 F0               [24] 4335 	movx	@dptr,a
      001207 E5*21            [12] 4336 	mov	a,(_parseHIDDeviceReport_sloc6_1_0 + 3)
      001209 A3               [24] 4337 	inc	dptr
      00120A F0               [24] 4338 	movx	@dptr,a
                                   4339 ;	USBHost.c:622: isUsageSet = 1;
      00120B 90r02r9E         [24] 4340 	mov	dptr,#_parseHIDDeviceReport_isUsageSet_65536_139
      00120E 74 01            [12] 4341 	mov	a,#0x01
      001210 F0               [24] 4342 	movx	@dptr,a
      001211                       4343 00117$:
                                   4344 ;	USBHost.c:624: DEBUG_OUT("Usage ");
      001211 C0 07            [24] 4345 	push	ar7
      001213 C0 06            [24] 4346 	push	ar6
      001215 C0 03            [24] 4347 	push	ar3
      001217 C0 02            [24] 4348 	push	ar2
      001219 74rE2            [12] 4349 	mov	a,#___str_22
      00121B C0 E0            [24] 4350 	push	acc
      00121D 74s01            [12] 4351 	mov	a,#(___str_22 >> 8)
      00121F C0 E0            [24] 4352 	push	acc
      001221 74 80            [12] 4353 	mov	a,#0x80
      001223 C0 E0            [24] 4354 	push	acc
      001225 12r00r00         [24] 4355 	lcall	_printf
      001228 15 81            [12] 4356 	dec	sp
      00122A 15 81            [12] 4357 	dec	sp
      00122C 15 81            [12] 4358 	dec	sp
      00122E D0 02            [24] 4359 	pop	ar2
      001230 D0 03            [24] 4360 	pop	ar3
      001232 D0 06            [24] 4361 	pop	ar6
      001234 D0 07            [24] 4362 	pop	ar7
                                   4363 ;	USBHost.c:625: switch(data)
      001236 90r02rA1         [24] 4364 	mov	dptr,#_parseHIDDeviceReport_data_131072_140
      001239 E0               [24] 4365 	movx	a,@dptr
      00123A F5*1E            [12] 4366 	mov	_parseHIDDeviceReport_sloc6_1_0,a
      00123C A3               [24] 4367 	inc	dptr
      00123D E0               [24] 4368 	movx	a,@dptr
      00123E F5*1F            [12] 4369 	mov	(_parseHIDDeviceReport_sloc6_1_0 + 1),a
      001240 A3               [24] 4370 	inc	dptr
      001241 E0               [24] 4371 	movx	a,@dptr
      001242 F5*20            [12] 4372 	mov	(_parseHIDDeviceReport_sloc6_1_0 + 2),a
      001244 A3               [24] 4373 	inc	dptr
      001245 E0               [24] 4374 	movx	a,@dptr
      001246 F5*21            [12] 4375 	mov	(_parseHIDDeviceReport_sloc6_1_0 + 3),a
      001248 C3               [12] 4376 	clr	c
      001249 74 38            [12] 4377 	mov	a,#0x38
      00124B 95*1E            [12] 4378 	subb	a,_parseHIDDeviceReport_sloc6_1_0
      00124D E4               [12] 4379 	clr	a
      00124E 95*1F            [12] 4380 	subb	a,(_parseHIDDeviceReport_sloc6_1_0 + 1)
      001250 E4               [12] 4381 	clr	a
      001251 95*20            [12] 4382 	subb	a,(_parseHIDDeviceReport_sloc6_1_0 + 2)
      001253 E4               [12] 4383 	clr	a
      001254 95*21            [12] 4384 	subb	a,(_parseHIDDeviceReport_sloc6_1_0 + 3)
      001256 50 03            [24] 4385 	jnc	00341$
      001258 02r15r0A         [24] 4386 	ljmp	00132$
      00125B                       4387 00341$:
      00125B E5*1E            [12] 4388 	mov	a,_parseHIDDeviceReport_sloc6_1_0
      00125D 24 0B            [12] 4389 	add	a,#(00342$-3-.)
      00125F 83               [24] 4390 	movc	a,@a+pc
      001260 F5 82            [12] 4391 	mov	dpl,a
      001262 E5*1E            [12] 4392 	mov	a,_parseHIDDeviceReport_sloc6_1_0
      001264 24 3D            [12] 4393 	add	a,#(00343$-3-.)
      001266 83               [24] 4394 	movc	a,@a+pc
      001267 F5 83            [12] 4395 	mov	dph,a
      001269 E4               [12] 4396 	clr	a
      00126A 73               [24] 4397 	jmp	@a+dptr
      00126B                       4398 00342$:
      00126BrDD                    4399 	.db	00118$
      00126Cr05                    4400 	.db	00119$
      00126Dr2D                    4401 	.db	00120$
      00126Er55                    4402 	.db	00121$
      00126Fr7D                    4403 	.db	00122$
      001270rA5                    4404 	.db	00123$
      001271rCD                    4405 	.db	00124$
      001272rF5                    4406 	.db	00125$
      001273r1D                    4407 	.db	00126$
      001274r45                    4408 	.db	00127$
      001275r0A                    4409 	.db	00132$
      001276r0A                    4410 	.db	00132$
      001277r0A                    4411 	.db	00132$
      001278r0A                    4412 	.db	00132$
      001279r0A                    4413 	.db	00132$
      00127Ar0A                    4414 	.db	00132$
      00127Br0A                    4415 	.db	00132$
      00127Cr0A                    4416 	.db	00132$
      00127Dr0A                    4417 	.db	00132$
      00127Er0A                    4418 	.db	00132$
      00127Fr0A                    4419 	.db	00132$
      001280r0A                    4420 	.db	00132$
      001281r0A                    4421 	.db	00132$
      001282r0A                    4422 	.db	00132$
      001283r0A                    4423 	.db	00132$
      001284r0A                    4424 	.db	00132$
      001285r0A                    4425 	.db	00132$
      001286r0A                    4426 	.db	00132$
      001287r0A                    4427 	.db	00132$
      001288r0A                    4428 	.db	00132$
      001289r0A                    4429 	.db	00132$
      00128Ar0A                    4430 	.db	00132$
      00128Br0A                    4431 	.db	00132$
      00128Cr0A                    4432 	.db	00132$
      00128Dr0A                    4433 	.db	00132$
      00128Er0A                    4434 	.db	00132$
      00128Fr0A                    4435 	.db	00132$
      001290r0A                    4436 	.db	00132$
      001291r0A                    4437 	.db	00132$
      001292r0A                    4438 	.db	00132$
      001293r0A                    4439 	.db	00132$
      001294r0A                    4440 	.db	00132$
      001295r0A                    4441 	.db	00132$
      001296r0A                    4442 	.db	00132$
      001297r0A                    4443 	.db	00132$
      001298r0A                    4444 	.db	00132$
      001299r0A                    4445 	.db	00132$
      00129Ar0A                    4446 	.db	00132$
      00129Br6D                    4447 	.db	00128$
      00129Cr95                    4448 	.db	00129$
      00129DrBC                    4449 	.db	00130$
      00129Er0A                    4450 	.db	00132$
      00129Fr0A                    4451 	.db	00132$
      0012A0r0A                    4452 	.db	00132$
      0012A1r0A                    4453 	.db	00132$
      0012A2r0A                    4454 	.db	00132$
      0012A3rE3                    4455 	.db	00131$
      0012A4                       4456 00343$:
      0012A4s12                    4457 	.db	00118$>>8
      0012A5s13                    4458 	.db	00119$>>8
      0012A6s13                    4459 	.db	00120$>>8
      0012A7s13                    4460 	.db	00121$>>8
      0012A8s13                    4461 	.db	00122$>>8
      0012A9s13                    4462 	.db	00123$>>8
      0012AAs13                    4463 	.db	00124$>>8
      0012ABs13                    4464 	.db	00125$>>8
      0012ACs14                    4465 	.db	00126$>>8
      0012ADs14                    4466 	.db	00127$>>8
      0012AEs15                    4467 	.db	00132$>>8
      0012AFs15                    4468 	.db	00132$>>8
      0012B0s15                    4469 	.db	00132$>>8
      0012B1s15                    4470 	.db	00132$>>8
      0012B2s15                    4471 	.db	00132$>>8
      0012B3s15                    4472 	.db	00132$>>8
      0012B4s15                    4473 	.db	00132$>>8
      0012B5s15                    4474 	.db	00132$>>8
      0012B6s15                    4475 	.db	00132$>>8
      0012B7s15                    4476 	.db	00132$>>8
      0012B8s15                    4477 	.db	00132$>>8
      0012B9s15                    4478 	.db	00132$>>8
      0012BAs15                    4479 	.db	00132$>>8
      0012BBs15                    4480 	.db	00132$>>8
      0012BCs15                    4481 	.db	00132$>>8
      0012BDs15                    4482 	.db	00132$>>8
      0012BEs15                    4483 	.db	00132$>>8
      0012BFs15                    4484 	.db	00132$>>8
      0012C0s15                    4485 	.db	00132$>>8
      0012C1s15                    4486 	.db	00132$>>8
      0012C2s15                    4487 	.db	00132$>>8
      0012C3s15                    4488 	.db	00132$>>8
      0012C4s15                    4489 	.db	00132$>>8
      0012C5s15                    4490 	.db	00132$>>8
      0012C6s15                    4491 	.db	00132$>>8
      0012C7s15                    4492 	.db	00132$>>8
      0012C8s15                    4493 	.db	00132$>>8
      0012C9s15                    4494 	.db	00132$>>8
      0012CAs15                    4495 	.db	00132$>>8
      0012CBs15                    4496 	.db	00132$>>8
      0012CCs15                    4497 	.db	00132$>>8
      0012CDs15                    4498 	.db	00132$>>8
      0012CEs15                    4499 	.db	00132$>>8
      0012CFs15                    4500 	.db	00132$>>8
      0012D0s15                    4501 	.db	00132$>>8
      0012D1s15                    4502 	.db	00132$>>8
      0012D2s15                    4503 	.db	00132$>>8
      0012D3s15                    4504 	.db	00132$>>8
      0012D4s14                    4505 	.db	00128$>>8
      0012D5s14                    4506 	.db	00129$>>8
      0012D6s14                    4507 	.db	00130$>>8
      0012D7s15                    4508 	.db	00132$>>8
      0012D8s15                    4509 	.db	00132$>>8
      0012D9s15                    4510 	.db	00132$>>8
      0012DAs15                    4511 	.db	00132$>>8
      0012DBs15                    4512 	.db	00132$>>8
      0012DCs14                    4513 	.db	00131$>>8
                                   4514 ;	USBHost.c:627: case REPORT_USAGE_UNKNOWN:
      0012DD                       4515 00118$:
                                   4516 ;	USBHost.c:628: DEBUG_OUT("Unknown");
      0012DD C0 07            [24] 4517 	push	ar7
      0012DF C0 06            [24] 4518 	push	ar6
      0012E1 C0 03            [24] 4519 	push	ar3
      0012E3 C0 02            [24] 4520 	push	ar2
      0012E5 74rE9            [12] 4521 	mov	a,#___str_23
      0012E7 C0 E0            [24] 4522 	push	acc
      0012E9 74s01            [12] 4523 	mov	a,#(___str_23 >> 8)
      0012EB C0 E0            [24] 4524 	push	acc
      0012ED 74 80            [12] 4525 	mov	a,#0x80
      0012EF C0 E0            [24] 4526 	push	acc
      0012F1 12r00r00         [24] 4527 	lcall	_printf
      0012F4 15 81            [12] 4528 	dec	sp
      0012F6 15 81            [12] 4529 	dec	sp
      0012F8 15 81            [12] 4530 	dec	sp
      0012FA D0 02            [24] 4531 	pop	ar2
      0012FC D0 03            [24] 4532 	pop	ar3
      0012FE D0 06            [24] 4533 	pop	ar6
      001300 D0 07            [24] 4534 	pop	ar7
                                   4535 ;	USBHost.c:629: break;
      001302 02r15r37         [24] 4536 	ljmp	00133$
                                   4537 ;	USBHost.c:630: case REPORT_USAGE_POINTER:
      001305                       4538 00119$:
                                   4539 ;	USBHost.c:631: DEBUG_OUT("Pointer");
      001305 C0 07            [24] 4540 	push	ar7
      001307 C0 06            [24] 4541 	push	ar6
      001309 C0 03            [24] 4542 	push	ar3
      00130B C0 02            [24] 4543 	push	ar2
      00130D 74rF1            [12] 4544 	mov	a,#___str_24
      00130F C0 E0            [24] 4545 	push	acc
      001311 74s01            [12] 4546 	mov	a,#(___str_24 >> 8)
      001313 C0 E0            [24] 4547 	push	acc
      001315 74 80            [12] 4548 	mov	a,#0x80
      001317 C0 E0            [24] 4549 	push	acc
      001319 12r00r00         [24] 4550 	lcall	_printf
      00131C 15 81            [12] 4551 	dec	sp
      00131E 15 81            [12] 4552 	dec	sp
      001320 15 81            [12] 4553 	dec	sp
      001322 D0 02            [24] 4554 	pop	ar2
      001324 D0 03            [24] 4555 	pop	ar3
      001326 D0 06            [24] 4556 	pop	ar6
      001328 D0 07            [24] 4557 	pop	ar7
                                   4558 ;	USBHost.c:632: break;
      00132A 02r15r37         [24] 4559 	ljmp	00133$
                                   4560 ;	USBHost.c:633: case REPORT_USAGE_MOUSE:
      00132D                       4561 00120$:
                                   4562 ;	USBHost.c:634: DEBUG_OUT("Mouse");
      00132D C0 07            [24] 4563 	push	ar7
      00132F C0 06            [24] 4564 	push	ar6
      001331 C0 03            [24] 4565 	push	ar3
      001333 C0 02            [24] 4566 	push	ar2
      001335 74rF9            [12] 4567 	mov	a,#___str_25
      001337 C0 E0            [24] 4568 	push	acc
      001339 74s01            [12] 4569 	mov	a,#(___str_25 >> 8)
      00133B C0 E0            [24] 4570 	push	acc
      00133D 74 80            [12] 4571 	mov	a,#0x80
      00133F C0 E0            [24] 4572 	push	acc
      001341 12r00r00         [24] 4573 	lcall	_printf
      001344 15 81            [12] 4574 	dec	sp
      001346 15 81            [12] 4575 	dec	sp
      001348 15 81            [12] 4576 	dec	sp
      00134A D0 02            [24] 4577 	pop	ar2
      00134C D0 03            [24] 4578 	pop	ar3
      00134E D0 06            [24] 4579 	pop	ar6
      001350 D0 07            [24] 4580 	pop	ar7
                                   4581 ;	USBHost.c:635: break;
      001352 02r15r37         [24] 4582 	ljmp	00133$
                                   4583 ;	USBHost.c:636: case REPORT_USAGE_RESERVED:
      001355                       4584 00121$:
                                   4585 ;	USBHost.c:637: DEBUG_OUT("Reserved");
      001355 C0 07            [24] 4586 	push	ar7
      001357 C0 06            [24] 4587 	push	ar6
      001359 C0 03            [24] 4588 	push	ar3
      00135B C0 02            [24] 4589 	push	ar2
      00135D 74rFF            [12] 4590 	mov	a,#___str_26
      00135F C0 E0            [24] 4591 	push	acc
      001361 74s01            [12] 4592 	mov	a,#(___str_26 >> 8)
      001363 C0 E0            [24] 4593 	push	acc
      001365 74 80            [12] 4594 	mov	a,#0x80
      001367 C0 E0            [24] 4595 	push	acc
      001369 12r00r00         [24] 4596 	lcall	_printf
      00136C 15 81            [12] 4597 	dec	sp
      00136E 15 81            [12] 4598 	dec	sp
      001370 15 81            [12] 4599 	dec	sp
      001372 D0 02            [24] 4600 	pop	ar2
      001374 D0 03            [24] 4601 	pop	ar3
      001376 D0 06            [24] 4602 	pop	ar6
      001378 D0 07            [24] 4603 	pop	ar7
                                   4604 ;	USBHost.c:638: break;
      00137A 02r15r37         [24] 4605 	ljmp	00133$
                                   4606 ;	USBHost.c:639: case REPORT_USAGE_JOYSTICK:
      00137D                       4607 00122$:
                                   4608 ;	USBHost.c:640: DEBUG_OUT("Joystick");
      00137D C0 07            [24] 4609 	push	ar7
      00137F C0 06            [24] 4610 	push	ar6
      001381 C0 03            [24] 4611 	push	ar3
      001383 C0 02            [24] 4612 	push	ar2
      001385 74r08            [12] 4613 	mov	a,#___str_27
      001387 C0 E0            [24] 4614 	push	acc
      001389 74s02            [12] 4615 	mov	a,#(___str_27 >> 8)
      00138B C0 E0            [24] 4616 	push	acc
      00138D 74 80            [12] 4617 	mov	a,#0x80
      00138F C0 E0            [24] 4618 	push	acc
      001391 12r00r00         [24] 4619 	lcall	_printf
      001394 15 81            [12] 4620 	dec	sp
      001396 15 81            [12] 4621 	dec	sp
      001398 15 81            [12] 4622 	dec	sp
      00139A D0 02            [24] 4623 	pop	ar2
      00139C D0 03            [24] 4624 	pop	ar3
      00139E D0 06            [24] 4625 	pop	ar6
      0013A0 D0 07            [24] 4626 	pop	ar7
                                   4627 ;	USBHost.c:641: break;
      0013A2 02r15r37         [24] 4628 	ljmp	00133$
                                   4629 ;	USBHost.c:642: case REPORT_USAGE_GAMEPAD:
      0013A5                       4630 00123$:
                                   4631 ;	USBHost.c:643: DEBUG_OUT("Gamepad");
      0013A5 C0 07            [24] 4632 	push	ar7
      0013A7 C0 06            [24] 4633 	push	ar6
      0013A9 C0 03            [24] 4634 	push	ar3
      0013AB C0 02            [24] 4635 	push	ar2
      0013AD 74r11            [12] 4636 	mov	a,#___str_28
      0013AF C0 E0            [24] 4637 	push	acc
      0013B1 74s02            [12] 4638 	mov	a,#(___str_28 >> 8)
      0013B3 C0 E0            [24] 4639 	push	acc
      0013B5 74 80            [12] 4640 	mov	a,#0x80
      0013B7 C0 E0            [24] 4641 	push	acc
      0013B9 12r00r00         [24] 4642 	lcall	_printf
      0013BC 15 81            [12] 4643 	dec	sp
      0013BE 15 81            [12] 4644 	dec	sp
      0013C0 15 81            [12] 4645 	dec	sp
      0013C2 D0 02            [24] 4646 	pop	ar2
      0013C4 D0 03            [24] 4647 	pop	ar3
      0013C6 D0 06            [24] 4648 	pop	ar6
      0013C8 D0 07            [24] 4649 	pop	ar7
                                   4650 ;	USBHost.c:644: break;
      0013CA 02r15r37         [24] 4651 	ljmp	00133$
                                   4652 ;	USBHost.c:645: case REPORT_USAGE_KEYBOARD:
      0013CD                       4653 00124$:
                                   4654 ;	USBHost.c:646: DEBUG_OUT("Keyboard");
      0013CD C0 07            [24] 4655 	push	ar7
      0013CF C0 06            [24] 4656 	push	ar6
      0013D1 C0 03            [24] 4657 	push	ar3
      0013D3 C0 02            [24] 4658 	push	ar2
      0013D5 74r19            [12] 4659 	mov	a,#___str_29
      0013D7 C0 E0            [24] 4660 	push	acc
      0013D9 74s02            [12] 4661 	mov	a,#(___str_29 >> 8)
      0013DB C0 E0            [24] 4662 	push	acc
      0013DD 74 80            [12] 4663 	mov	a,#0x80
      0013DF C0 E0            [24] 4664 	push	acc
      0013E1 12r00r00         [24] 4665 	lcall	_printf
      0013E4 15 81            [12] 4666 	dec	sp
      0013E6 15 81            [12] 4667 	dec	sp
      0013E8 15 81            [12] 4668 	dec	sp
      0013EA D0 02            [24] 4669 	pop	ar2
      0013EC D0 03            [24] 4670 	pop	ar3
      0013EE D0 06            [24] 4671 	pop	ar6
      0013F0 D0 07            [24] 4672 	pop	ar7
                                   4673 ;	USBHost.c:647: break;
      0013F2 02r15r37         [24] 4674 	ljmp	00133$
                                   4675 ;	USBHost.c:648: case REPORT_USAGE_KEYPAD:
      0013F5                       4676 00125$:
                                   4677 ;	USBHost.c:649: DEBUG_OUT("Keypad");
      0013F5 C0 07            [24] 4678 	push	ar7
      0013F7 C0 06            [24] 4679 	push	ar6
      0013F9 C0 03            [24] 4680 	push	ar3
      0013FB C0 02            [24] 4681 	push	ar2
      0013FD 74r22            [12] 4682 	mov	a,#___str_30
      0013FF C0 E0            [24] 4683 	push	acc
      001401 74s02            [12] 4684 	mov	a,#(___str_30 >> 8)
      001403 C0 E0            [24] 4685 	push	acc
      001405 74 80            [12] 4686 	mov	a,#0x80
      001407 C0 E0            [24] 4687 	push	acc
      001409 12r00r00         [24] 4688 	lcall	_printf
      00140C 15 81            [12] 4689 	dec	sp
      00140E 15 81            [12] 4690 	dec	sp
      001410 15 81            [12] 4691 	dec	sp
      001412 D0 02            [24] 4692 	pop	ar2
      001414 D0 03            [24] 4693 	pop	ar3
      001416 D0 06            [24] 4694 	pop	ar6
      001418 D0 07            [24] 4695 	pop	ar7
                                   4696 ;	USBHost.c:650: break;
      00141A 02r15r37         [24] 4697 	ljmp	00133$
                                   4698 ;	USBHost.c:651: case REPORT_USAGE_MULTI_AXIS:
      00141D                       4699 00126$:
                                   4700 ;	USBHost.c:652: DEBUG_OUT("Multi-Axis controller");
      00141D C0 07            [24] 4701 	push	ar7
      00141F C0 06            [24] 4702 	push	ar6
      001421 C0 03            [24] 4703 	push	ar3
      001423 C0 02            [24] 4704 	push	ar2
      001425 74r29            [12] 4705 	mov	a,#___str_31
      001427 C0 E0            [24] 4706 	push	acc
      001429 74s02            [12] 4707 	mov	a,#(___str_31 >> 8)
      00142B C0 E0            [24] 4708 	push	acc
      00142D 74 80            [12] 4709 	mov	a,#0x80
      00142F C0 E0            [24] 4710 	push	acc
      001431 12r00r00         [24] 4711 	lcall	_printf
      001434 15 81            [12] 4712 	dec	sp
      001436 15 81            [12] 4713 	dec	sp
      001438 15 81            [12] 4714 	dec	sp
      00143A D0 02            [24] 4715 	pop	ar2
      00143C D0 03            [24] 4716 	pop	ar3
      00143E D0 06            [24] 4717 	pop	ar6
      001440 D0 07            [24] 4718 	pop	ar7
                                   4719 ;	USBHost.c:653: break;
      001442 02r15r37         [24] 4720 	ljmp	00133$
                                   4721 ;	USBHost.c:654: case REPORT_USAGE_SYSTEM:
      001445                       4722 00127$:
                                   4723 ;	USBHost.c:655: DEBUG_OUT("Tablet system controls");
      001445 C0 07            [24] 4724 	push	ar7
      001447 C0 06            [24] 4725 	push	ar6
      001449 C0 03            [24] 4726 	push	ar3
      00144B C0 02            [24] 4727 	push	ar2
      00144D 74r3F            [12] 4728 	mov	a,#___str_32
      00144F C0 E0            [24] 4729 	push	acc
      001451 74s02            [12] 4730 	mov	a,#(___str_32 >> 8)
      001453 C0 E0            [24] 4731 	push	acc
      001455 74 80            [12] 4732 	mov	a,#0x80
      001457 C0 E0            [24] 4733 	push	acc
      001459 12r00r00         [24] 4734 	lcall	_printf
      00145C 15 81            [12] 4735 	dec	sp
      00145E 15 81            [12] 4736 	dec	sp
      001460 15 81            [12] 4737 	dec	sp
      001462 D0 02            [24] 4738 	pop	ar2
      001464 D0 03            [24] 4739 	pop	ar3
      001466 D0 06            [24] 4740 	pop	ar6
      001468 D0 07            [24] 4741 	pop	ar7
                                   4742 ;	USBHost.c:656: break;
      00146A 02r15r37         [24] 4743 	ljmp	00133$
                                   4744 ;	USBHost.c:658: case REPORT_USAGE_X:
      00146D                       4745 00128$:
                                   4746 ;	USBHost.c:659: DEBUG_OUT("X");
      00146D C0 07            [24] 4747 	push	ar7
      00146F C0 06            [24] 4748 	push	ar6
      001471 C0 03            [24] 4749 	push	ar3
      001473 C0 02            [24] 4750 	push	ar2
      001475 74r56            [12] 4751 	mov	a,#___str_33
      001477 C0 E0            [24] 4752 	push	acc
      001479 74s02            [12] 4753 	mov	a,#(___str_33 >> 8)
      00147B C0 E0            [24] 4754 	push	acc
      00147D 74 80            [12] 4755 	mov	a,#0x80
      00147F C0 E0            [24] 4756 	push	acc
      001481 12r00r00         [24] 4757 	lcall	_printf
      001484 15 81            [12] 4758 	dec	sp
      001486 15 81            [12] 4759 	dec	sp
      001488 15 81            [12] 4760 	dec	sp
      00148A D0 02            [24] 4761 	pop	ar2
      00148C D0 03            [24] 4762 	pop	ar3
      00148E D0 06            [24] 4763 	pop	ar6
      001490 D0 07            [24] 4764 	pop	ar7
                                   4765 ;	USBHost.c:660: break;
      001492 02r15r37         [24] 4766 	ljmp	00133$
                                   4767 ;	USBHost.c:661: case REPORT_USAGE_Y:
      001495                       4768 00129$:
                                   4769 ;	USBHost.c:662: DEBUG_OUT("Y");
      001495 C0 07            [24] 4770 	push	ar7
      001497 C0 06            [24] 4771 	push	ar6
      001499 C0 03            [24] 4772 	push	ar3
      00149B C0 02            [24] 4773 	push	ar2
      00149D 74r58            [12] 4774 	mov	a,#___str_34
      00149F C0 E0            [24] 4775 	push	acc
      0014A1 74s02            [12] 4776 	mov	a,#(___str_34 >> 8)
      0014A3 C0 E0            [24] 4777 	push	acc
      0014A5 74 80            [12] 4778 	mov	a,#0x80
      0014A7 C0 E0            [24] 4779 	push	acc
      0014A9 12r00r00         [24] 4780 	lcall	_printf
      0014AC 15 81            [12] 4781 	dec	sp
      0014AE 15 81            [12] 4782 	dec	sp
      0014B0 15 81            [12] 4783 	dec	sp
      0014B2 D0 02            [24] 4784 	pop	ar2
      0014B4 D0 03            [24] 4785 	pop	ar3
      0014B6 D0 06            [24] 4786 	pop	ar6
      0014B8 D0 07            [24] 4787 	pop	ar7
                                   4788 ;	USBHost.c:663: break;
                                   4789 ;	USBHost.c:664: case REPORT_USAGE_Z:
      0014BA 80 7B            [24] 4790 	sjmp	00133$
      0014BC                       4791 00130$:
                                   4792 ;	USBHost.c:665: DEBUG_OUT("Z");
      0014BC C0 07            [24] 4793 	push	ar7
      0014BE C0 06            [24] 4794 	push	ar6
      0014C0 C0 03            [24] 4795 	push	ar3
      0014C2 C0 02            [24] 4796 	push	ar2
      0014C4 74r5A            [12] 4797 	mov	a,#___str_35
      0014C6 C0 E0            [24] 4798 	push	acc
      0014C8 74s02            [12] 4799 	mov	a,#(___str_35 >> 8)
      0014CA C0 E0            [24] 4800 	push	acc
      0014CC 74 80            [12] 4801 	mov	a,#0x80
      0014CE C0 E0            [24] 4802 	push	acc
      0014D0 12r00r00         [24] 4803 	lcall	_printf
      0014D3 15 81            [12] 4804 	dec	sp
      0014D5 15 81            [12] 4805 	dec	sp
      0014D7 15 81            [12] 4806 	dec	sp
      0014D9 D0 02            [24] 4807 	pop	ar2
      0014DB D0 03            [24] 4808 	pop	ar3
      0014DD D0 06            [24] 4809 	pop	ar6
      0014DF D0 07            [24] 4810 	pop	ar7
                                   4811 ;	USBHost.c:666: break;
                                   4812 ;	USBHost.c:667: case REPORT_USAGE_WHEEL:
      0014E1 80 54            [24] 4813 	sjmp	00133$
      0014E3                       4814 00131$:
                                   4815 ;	USBHost.c:668: DEBUG_OUT("Wheel");
      0014E3 C0 07            [24] 4816 	push	ar7
      0014E5 C0 06            [24] 4817 	push	ar6
      0014E7 C0 03            [24] 4818 	push	ar3
      0014E9 C0 02            [24] 4819 	push	ar2
      0014EB 74r5C            [12] 4820 	mov	a,#___str_36
      0014ED C0 E0            [24] 4821 	push	acc
      0014EF 74s02            [12] 4822 	mov	a,#(___str_36 >> 8)
      0014F1 C0 E0            [24] 4823 	push	acc
      0014F3 74 80            [12] 4824 	mov	a,#0x80
      0014F5 C0 E0            [24] 4825 	push	acc
      0014F7 12r00r00         [24] 4826 	lcall	_printf
      0014FA 15 81            [12] 4827 	dec	sp
      0014FC 15 81            [12] 4828 	dec	sp
      0014FE 15 81            [12] 4829 	dec	sp
      001500 D0 02            [24] 4830 	pop	ar2
      001502 D0 03            [24] 4831 	pop	ar3
      001504 D0 06            [24] 4832 	pop	ar6
      001506 D0 07            [24] 4833 	pop	ar7
                                   4834 ;	USBHost.c:669: break;
                                   4835 ;	USBHost.c:670: default:
      001508 80 2D            [24] 4836 	sjmp	00133$
      00150A                       4837 00132$:
                                   4838 ;	USBHost.c:671: DEBUG_OUT("unknown 0x%02lx", data);
      00150A C0 07            [24] 4839 	push	ar7
      00150C C0 06            [24] 4840 	push	ar6
      00150E C0 03            [24] 4841 	push	ar3
      001510 C0 02            [24] 4842 	push	ar2
      001512 C0*1E            [24] 4843 	push	_parseHIDDeviceReport_sloc6_1_0
      001514 C0*1F            [24] 4844 	push	(_parseHIDDeviceReport_sloc6_1_0 + 1)
      001516 C0*20            [24] 4845 	push	(_parseHIDDeviceReport_sloc6_1_0 + 2)
      001518 C0*21            [24] 4846 	push	(_parseHIDDeviceReport_sloc6_1_0 + 3)
      00151A 74rD2            [12] 4847 	mov	a,#___str_21
      00151C C0 E0            [24] 4848 	push	acc
      00151E 74s01            [12] 4849 	mov	a,#(___str_21 >> 8)
      001520 C0 E0            [24] 4850 	push	acc
      001522 74 80            [12] 4851 	mov	a,#0x80
      001524 C0 E0            [24] 4852 	push	acc
      001526 12r00r00         [24] 4853 	lcall	_printf
      001529 E5 81            [12] 4854 	mov	a,sp
      00152B 24 F9            [12] 4855 	add	a,#0xf9
      00152D F5 81            [12] 4856 	mov	sp,a
      00152F D0 02            [24] 4857 	pop	ar2
      001531 D0 03            [24] 4858 	pop	ar3
      001533 D0 06            [24] 4859 	pop	ar6
      001535 D0 07            [24] 4860 	pop	ar7
                                   4861 ;	USBHost.c:672: }
      001537                       4862 00133$:
                                   4863 ;	USBHost.c:673: DEBUG_OUT("\n");
      001537 C0 07            [24] 4864 	push	ar7
      001539 C0 06            [24] 4865 	push	ar6
      00153B C0 03            [24] 4866 	push	ar3
      00153D C0 02            [24] 4867 	push	ar2
      00153F 74r73            [12] 4868 	mov	a,#___str_13
      001541 C0 E0            [24] 4869 	push	acc
      001543 74s01            [12] 4870 	mov	a,#(___str_13 >> 8)
      001545 C0 E0            [24] 4871 	push	acc
      001547 74 80            [12] 4872 	mov	a,#0x80
      001549 C0 E0            [24] 4873 	push	acc
      00154B 12r00r00         [24] 4874 	lcall	_printf
      00154E 15 81            [12] 4875 	dec	sp
      001550 15 81            [12] 4876 	dec	sp
      001552 15 81            [12] 4877 	dec	sp
      001554 D0 02            [24] 4878 	pop	ar2
      001556 D0 03            [24] 4879 	pop	ar3
      001558 D0 06            [24] 4880 	pop	ar6
      00155A D0 07            [24] 4881 	pop	ar7
                                   4882 ;	USBHost.c:674: break;
      00155C 02r19r18         [24] 4883 	ljmp	00150$
                                   4884 ;	USBHost.c:675: case REPORT_LOCAL_MINIMUM:
      00155F                       4885 00134$:
                                   4886 ;	USBHost.c:676: DEBUG_OUT("Logical min %lu\n", data);
      00155F C0 07            [24] 4887 	push	ar7
      001561 C0 06            [24] 4888 	push	ar6
      001563 C0 03            [24] 4889 	push	ar3
      001565 C0 02            [24] 4890 	push	ar2
      001567 90r02rA1         [24] 4891 	mov	dptr,#_parseHIDDeviceReport_data_131072_140
      00156A E0               [24] 4892 	movx	a,@dptr
      00156B C0 E0            [24] 4893 	push	acc
      00156D A3               [24] 4894 	inc	dptr
      00156E E0               [24] 4895 	movx	a,@dptr
      00156F C0 E0            [24] 4896 	push	acc
      001571 A3               [24] 4897 	inc	dptr
      001572 E0               [24] 4898 	movx	a,@dptr
      001573 C0 E0            [24] 4899 	push	acc
      001575 A3               [24] 4900 	inc	dptr
      001576 E0               [24] 4901 	movx	a,@dptr
      001577 C0 E0            [24] 4902 	push	acc
      001579 74r62            [12] 4903 	mov	a,#___str_37
      00157B C0 E0            [24] 4904 	push	acc
      00157D 74s02            [12] 4905 	mov	a,#(___str_37 >> 8)
      00157F C0 E0            [24] 4906 	push	acc
      001581 74 80            [12] 4907 	mov	a,#0x80
      001583 C0 E0            [24] 4908 	push	acc
      001585 12r00r00         [24] 4909 	lcall	_printf
      001588 E5 81            [12] 4910 	mov	a,sp
      00158A 24 F9            [12] 4911 	add	a,#0xf9
      00158C F5 81            [12] 4912 	mov	sp,a
      00158E D0 02            [24] 4913 	pop	ar2
      001590 D0 03            [24] 4914 	pop	ar3
      001592 D0 06            [24] 4915 	pop	ar6
      001594 D0 07            [24] 4916 	pop	ar7
                                   4917 ;	USBHost.c:677: break;
      001596 02r19r18         [24] 4918 	ljmp	00150$
                                   4919 ;	USBHost.c:678: case REPORT_LOCAL_MAXIMUM:
      001599                       4920 00135$:
                                   4921 ;	USBHost.c:679: DEBUG_OUT("Logical max %lu\n", data);
      001599 C0 07            [24] 4922 	push	ar7
      00159B C0 06            [24] 4923 	push	ar6
      00159D C0 03            [24] 4924 	push	ar3
      00159F C0 02            [24] 4925 	push	ar2
      0015A1 90r02rA1         [24] 4926 	mov	dptr,#_parseHIDDeviceReport_data_131072_140
      0015A4 E0               [24] 4927 	movx	a,@dptr
      0015A5 C0 E0            [24] 4928 	push	acc
      0015A7 A3               [24] 4929 	inc	dptr
      0015A8 E0               [24] 4930 	movx	a,@dptr
      0015A9 C0 E0            [24] 4931 	push	acc
      0015AB A3               [24] 4932 	inc	dptr
      0015AC E0               [24] 4933 	movx	a,@dptr
      0015AD C0 E0            [24] 4934 	push	acc
      0015AF A3               [24] 4935 	inc	dptr
      0015B0 E0               [24] 4936 	movx	a,@dptr
      0015B1 C0 E0            [24] 4937 	push	acc
      0015B3 74r73            [12] 4938 	mov	a,#___str_38
      0015B5 C0 E0            [24] 4939 	push	acc
      0015B7 74s02            [12] 4940 	mov	a,#(___str_38 >> 8)
      0015B9 C0 E0            [24] 4941 	push	acc
      0015BB 74 80            [12] 4942 	mov	a,#0x80
      0015BD C0 E0            [24] 4943 	push	acc
      0015BF 12r00r00         [24] 4944 	lcall	_printf
      0015C2 E5 81            [12] 4945 	mov	a,sp
      0015C4 24 F9            [12] 4946 	add	a,#0xf9
      0015C6 F5 81            [12] 4947 	mov	sp,a
      0015C8 D0 02            [24] 4948 	pop	ar2
      0015CA D0 03            [24] 4949 	pop	ar3
      0015CC D0 06            [24] 4950 	pop	ar6
      0015CE D0 07            [24] 4951 	pop	ar7
                                   4952 ;	USBHost.c:680: break;
      0015D0 02r19r18         [24] 4953 	ljmp	00150$
                                   4954 ;	USBHost.c:681: case REPORT_PHYSICAL_MINIMUM:
      0015D3                       4955 00136$:
                                   4956 ;	USBHost.c:682: DEBUG_OUT("Physical min %lu\n", data);
      0015D3 C0 07            [24] 4957 	push	ar7
      0015D5 C0 06            [24] 4958 	push	ar6
      0015D7 C0 03            [24] 4959 	push	ar3
      0015D9 C0 02            [24] 4960 	push	ar2
      0015DB 90r02rA1         [24] 4961 	mov	dptr,#_parseHIDDeviceReport_data_131072_140
      0015DE E0               [24] 4962 	movx	a,@dptr
      0015DF C0 E0            [24] 4963 	push	acc
      0015E1 A3               [24] 4964 	inc	dptr
      0015E2 E0               [24] 4965 	movx	a,@dptr
      0015E3 C0 E0            [24] 4966 	push	acc
      0015E5 A3               [24] 4967 	inc	dptr
      0015E6 E0               [24] 4968 	movx	a,@dptr
      0015E7 C0 E0            [24] 4969 	push	acc
      0015E9 A3               [24] 4970 	inc	dptr
      0015EA E0               [24] 4971 	movx	a,@dptr
      0015EB C0 E0            [24] 4972 	push	acc
      0015ED 74r84            [12] 4973 	mov	a,#___str_39
      0015EF C0 E0            [24] 4974 	push	acc
      0015F1 74s02            [12] 4975 	mov	a,#(___str_39 >> 8)
      0015F3 C0 E0            [24] 4976 	push	acc
      0015F5 74 80            [12] 4977 	mov	a,#0x80
      0015F7 C0 E0            [24] 4978 	push	acc
      0015F9 12r00r00         [24] 4979 	lcall	_printf
      0015FC E5 81            [12] 4980 	mov	a,sp
      0015FE 24 F9            [12] 4981 	add	a,#0xf9
      001600 F5 81            [12] 4982 	mov	sp,a
      001602 D0 02            [24] 4983 	pop	ar2
      001604 D0 03            [24] 4984 	pop	ar3
      001606 D0 06            [24] 4985 	pop	ar6
      001608 D0 07            [24] 4986 	pop	ar7
                                   4987 ;	USBHost.c:683: break;
      00160A 02r19r18         [24] 4988 	ljmp	00150$
                                   4989 ;	USBHost.c:684: case REPORT_PHYSICAL_MAXIMUM:
      00160D                       4990 00137$:
                                   4991 ;	USBHost.c:685: DEBUG_OUT("Physical max %lu\n", data);
      00160D C0 07            [24] 4992 	push	ar7
      00160F C0 06            [24] 4993 	push	ar6
      001611 C0 03            [24] 4994 	push	ar3
      001613 C0 02            [24] 4995 	push	ar2
      001615 90r02rA1         [24] 4996 	mov	dptr,#_parseHIDDeviceReport_data_131072_140
      001618 E0               [24] 4997 	movx	a,@dptr
      001619 C0 E0            [24] 4998 	push	acc
      00161B A3               [24] 4999 	inc	dptr
      00161C E0               [24] 5000 	movx	a,@dptr
      00161D C0 E0            [24] 5001 	push	acc
      00161F A3               [24] 5002 	inc	dptr
      001620 E0               [24] 5003 	movx	a,@dptr
      001621 C0 E0            [24] 5004 	push	acc
      001623 A3               [24] 5005 	inc	dptr
      001624 E0               [24] 5006 	movx	a,@dptr
      001625 C0 E0            [24] 5007 	push	acc
      001627 74r96            [12] 5008 	mov	a,#___str_40
      001629 C0 E0            [24] 5009 	push	acc
      00162B 74s02            [12] 5010 	mov	a,#(___str_40 >> 8)
      00162D C0 E0            [24] 5011 	push	acc
      00162F 74 80            [12] 5012 	mov	a,#0x80
      001631 C0 E0            [24] 5013 	push	acc
      001633 12r00r00         [24] 5014 	lcall	_printf
      001636 E5 81            [12] 5015 	mov	a,sp
      001638 24 F9            [12] 5016 	add	a,#0xf9
      00163A F5 81            [12] 5017 	mov	sp,a
      00163C D0 02            [24] 5018 	pop	ar2
      00163E D0 03            [24] 5019 	pop	ar3
      001640 D0 06            [24] 5020 	pop	ar6
      001642 D0 07            [24] 5021 	pop	ar7
                                   5022 ;	USBHost.c:686: break;
      001644 02r19r18         [24] 5023 	ljmp	00150$
                                   5024 ;	USBHost.c:687: case REPORT_USAGE_MINIMUM:
      001647                       5025 00138$:
                                   5026 ;	USBHost.c:688: DEBUG_OUT("Physical min %lu\n", data);
      001647 C0 07            [24] 5027 	push	ar7
      001649 C0 06            [24] 5028 	push	ar6
      00164B C0 03            [24] 5029 	push	ar3
      00164D C0 02            [24] 5030 	push	ar2
      00164F 90r02rA1         [24] 5031 	mov	dptr,#_parseHIDDeviceReport_data_131072_140
      001652 E0               [24] 5032 	movx	a,@dptr
      001653 C0 E0            [24] 5033 	push	acc
      001655 A3               [24] 5034 	inc	dptr
      001656 E0               [24] 5035 	movx	a,@dptr
      001657 C0 E0            [24] 5036 	push	acc
      001659 A3               [24] 5037 	inc	dptr
      00165A E0               [24] 5038 	movx	a,@dptr
      00165B C0 E0            [24] 5039 	push	acc
      00165D A3               [24] 5040 	inc	dptr
      00165E E0               [24] 5041 	movx	a,@dptr
      00165F C0 E0            [24] 5042 	push	acc
      001661 74r84            [12] 5043 	mov	a,#___str_39
      001663 C0 E0            [24] 5044 	push	acc
      001665 74s02            [12] 5045 	mov	a,#(___str_39 >> 8)
      001667 C0 E0            [24] 5046 	push	acc
      001669 74 80            [12] 5047 	mov	a,#0x80
      00166B C0 E0            [24] 5048 	push	acc
      00166D 12r00r00         [24] 5049 	lcall	_printf
      001670 E5 81            [12] 5050 	mov	a,sp
      001672 24 F9            [12] 5051 	add	a,#0xf9
      001674 F5 81            [12] 5052 	mov	sp,a
      001676 D0 02            [24] 5053 	pop	ar2
      001678 D0 03            [24] 5054 	pop	ar3
      00167A D0 06            [24] 5055 	pop	ar6
      00167C D0 07            [24] 5056 	pop	ar7
                                   5057 ;	USBHost.c:689: break;
      00167E 02r19r18         [24] 5058 	ljmp	00150$
                                   5059 ;	USBHost.c:690: case REPORT_USAGE_MAXIMUM:
      001681                       5060 00139$:
                                   5061 ;	USBHost.c:691: DEBUG_OUT("Physical max %lu\n", data);
      001681 C0 07            [24] 5062 	push	ar7
      001683 C0 06            [24] 5063 	push	ar6
      001685 C0 03            [24] 5064 	push	ar3
      001687 C0 02            [24] 5065 	push	ar2
      001689 90r02rA1         [24] 5066 	mov	dptr,#_parseHIDDeviceReport_data_131072_140
      00168C E0               [24] 5067 	movx	a,@dptr
      00168D C0 E0            [24] 5068 	push	acc
      00168F A3               [24] 5069 	inc	dptr
      001690 E0               [24] 5070 	movx	a,@dptr
      001691 C0 E0            [24] 5071 	push	acc
      001693 A3               [24] 5072 	inc	dptr
      001694 E0               [24] 5073 	movx	a,@dptr
      001695 C0 E0            [24] 5074 	push	acc
      001697 A3               [24] 5075 	inc	dptr
      001698 E0               [24] 5076 	movx	a,@dptr
      001699 C0 E0            [24] 5077 	push	acc
      00169B 74r96            [12] 5078 	mov	a,#___str_40
      00169D C0 E0            [24] 5079 	push	acc
      00169F 74s02            [12] 5080 	mov	a,#(___str_40 >> 8)
      0016A1 C0 E0            [24] 5081 	push	acc
      0016A3 74 80            [12] 5082 	mov	a,#0x80
      0016A5 C0 E0            [24] 5083 	push	acc
      0016A7 12r00r00         [24] 5084 	lcall	_printf
      0016AA E5 81            [12] 5085 	mov	a,sp
      0016AC 24 F9            [12] 5086 	add	a,#0xf9
      0016AE F5 81            [12] 5087 	mov	sp,a
      0016B0 D0 02            [24] 5088 	pop	ar2
      0016B2 D0 03            [24] 5089 	pop	ar3
      0016B4 D0 06            [24] 5090 	pop	ar6
      0016B6 D0 07            [24] 5091 	pop	ar7
                                   5092 ;	USBHost.c:692: break;
      0016B8 02r19r18         [24] 5093 	ljmp	00150$
                                   5094 ;	USBHost.c:693: case REPORT_COLLECTION:
      0016BB                       5095 00140$:
                                   5096 ;	USBHost.c:694: DEBUG_OUT("Collection start %lu\n", data);
      0016BB C0 07            [24] 5097 	push	ar7
      0016BD C0 06            [24] 5098 	push	ar6
      0016BF C0 03            [24] 5099 	push	ar3
      0016C1 C0 02            [24] 5100 	push	ar2
      0016C3 90r02rA1         [24] 5101 	mov	dptr,#_parseHIDDeviceReport_data_131072_140
      0016C6 E0               [24] 5102 	movx	a,@dptr
      0016C7 C0 E0            [24] 5103 	push	acc
      0016C9 A3               [24] 5104 	inc	dptr
      0016CA E0               [24] 5105 	movx	a,@dptr
      0016CB C0 E0            [24] 5106 	push	acc
      0016CD A3               [24] 5107 	inc	dptr
      0016CE E0               [24] 5108 	movx	a,@dptr
      0016CF C0 E0            [24] 5109 	push	acc
      0016D1 A3               [24] 5110 	inc	dptr
      0016D2 E0               [24] 5111 	movx	a,@dptr
      0016D3 C0 E0            [24] 5112 	push	acc
      0016D5 74rA8            [12] 5113 	mov	a,#___str_41
      0016D7 C0 E0            [24] 5114 	push	acc
      0016D9 74s02            [12] 5115 	mov	a,#(___str_41 >> 8)
      0016DB C0 E0            [24] 5116 	push	acc
      0016DD 74 80            [12] 5117 	mov	a,#0x80
      0016DF C0 E0            [24] 5118 	push	acc
      0016E1 12r00r00         [24] 5119 	lcall	_printf
      0016E4 E5 81            [12] 5120 	mov	a,sp
      0016E6 24 F9            [12] 5121 	add	a,#0xf9
      0016E8 F5 81            [12] 5122 	mov	sp,a
      0016EA D0 02            [24] 5123 	pop	ar2
      0016EC D0 03            [24] 5124 	pop	ar3
      0016EE D0 06            [24] 5125 	pop	ar6
      0016F0 D0 07            [24] 5126 	pop	ar7
                                   5127 ;	USBHost.c:695: level++;
      0016F2 90r02r9D         [24] 5128 	mov	dptr,#_parseHIDDeviceReport_level_65536_139
      0016F5 E0               [24] 5129 	movx	a,@dptr
      0016F6 24 01            [12] 5130 	add	a,#0x01
      0016F8 F0               [24] 5131 	movx	@dptr,a
                                   5132 ;	USBHost.c:696: break;
      0016F9 02r19r18         [24] 5133 	ljmp	00150$
                                   5134 ;	USBHost.c:697: case REPORT_COLLECTION_END:
      0016FC                       5135 00141$:
                                   5136 ;	USBHost.c:698: DEBUG_OUT("Collection end %lu\n", data);
      0016FC C0 07            [24] 5137 	push	ar7
      0016FE C0 06            [24] 5138 	push	ar6
      001700 C0 03            [24] 5139 	push	ar3
      001702 C0 02            [24] 5140 	push	ar2
      001704 90r02rA1         [24] 5141 	mov	dptr,#_parseHIDDeviceReport_data_131072_140
      001707 E0               [24] 5142 	movx	a,@dptr
      001708 C0 E0            [24] 5143 	push	acc
      00170A A3               [24] 5144 	inc	dptr
      00170B E0               [24] 5145 	movx	a,@dptr
      00170C C0 E0            [24] 5146 	push	acc
      00170E A3               [24] 5147 	inc	dptr
      00170F E0               [24] 5148 	movx	a,@dptr
      001710 C0 E0            [24] 5149 	push	acc
      001712 A3               [24] 5150 	inc	dptr
      001713 E0               [24] 5151 	movx	a,@dptr
      001714 C0 E0            [24] 5152 	push	acc
      001716 74rBE            [12] 5153 	mov	a,#___str_42
      001718 C0 E0            [24] 5154 	push	acc
      00171A 74s02            [12] 5155 	mov	a,#(___str_42 >> 8)
      00171C C0 E0            [24] 5156 	push	acc
      00171E 74 80            [12] 5157 	mov	a,#0x80
      001720 C0 E0            [24] 5158 	push	acc
      001722 12r00r00         [24] 5159 	lcall	_printf
      001725 E5 81            [12] 5160 	mov	a,sp
      001727 24 F9            [12] 5161 	add	a,#0xf9
      001729 F5 81            [12] 5162 	mov	sp,a
      00172B D0 02            [24] 5163 	pop	ar2
      00172D D0 03            [24] 5164 	pop	ar3
      00172F D0 06            [24] 5165 	pop	ar6
      001731 D0 07            [24] 5166 	pop	ar7
                                   5167 ;	USBHost.c:699: level--;
      001733 90r02r9D         [24] 5168 	mov	dptr,#_parseHIDDeviceReport_level_65536_139
      001736 E0               [24] 5169 	movx	a,@dptr
      001737 14               [12] 5170 	dec	a
      001738 F0               [24] 5171 	movx	@dptr,a
                                   5172 ;	USBHost.c:700: break;
      001739 02r19r18         [24] 5173 	ljmp	00150$
                                   5174 ;	USBHost.c:701: case REPORT_UNIT:
      00173C                       5175 00142$:
                                   5176 ;	USBHost.c:702: DEBUG_OUT("Unit 0x%02lx\n", data);
      00173C C0 07            [24] 5177 	push	ar7
      00173E C0 06            [24] 5178 	push	ar6
      001740 C0 03            [24] 5179 	push	ar3
      001742 C0 02            [24] 5180 	push	ar2
      001744 90r02rA1         [24] 5181 	mov	dptr,#_parseHIDDeviceReport_data_131072_140
      001747 E0               [24] 5182 	movx	a,@dptr
      001748 C0 E0            [24] 5183 	push	acc
      00174A A3               [24] 5184 	inc	dptr
      00174B E0               [24] 5185 	movx	a,@dptr
      00174C C0 E0            [24] 5186 	push	acc
      00174E A3               [24] 5187 	inc	dptr
      00174F E0               [24] 5188 	movx	a,@dptr
      001750 C0 E0            [24] 5189 	push	acc
      001752 A3               [24] 5190 	inc	dptr
      001753 E0               [24] 5191 	movx	a,@dptr
      001754 C0 E0            [24] 5192 	push	acc
      001756 74rD2            [12] 5193 	mov	a,#___str_43
      001758 C0 E0            [24] 5194 	push	acc
      00175A 74s02            [12] 5195 	mov	a,#(___str_43 >> 8)
      00175C C0 E0            [24] 5196 	push	acc
      00175E 74 80            [12] 5197 	mov	a,#0x80
      001760 C0 E0            [24] 5198 	push	acc
      001762 12r00r00         [24] 5199 	lcall	_printf
      001765 E5 81            [12] 5200 	mov	a,sp
      001767 24 F9            [12] 5201 	add	a,#0xf9
      001769 F5 81            [12] 5202 	mov	sp,a
      00176B D0 02            [24] 5203 	pop	ar2
      00176D D0 03            [24] 5204 	pop	ar3
      00176F D0 06            [24] 5205 	pop	ar6
      001771 D0 07            [24] 5206 	pop	ar7
                                   5207 ;	USBHost.c:703: break;
      001773 02r19r18         [24] 5208 	ljmp	00150$
                                   5209 ;	USBHost.c:704: case REPORT_INPUT:
      001776                       5210 00143$:
                                   5211 ;	USBHost.c:705: DEBUG_OUT("Input 0x%02lx\n", data);
      001776 C0 07            [24] 5212 	push	ar7
      001778 C0 06            [24] 5213 	push	ar6
      00177A C0 03            [24] 5214 	push	ar3
      00177C C0 02            [24] 5215 	push	ar2
      00177E 90r02rA1         [24] 5216 	mov	dptr,#_parseHIDDeviceReport_data_131072_140
      001781 E0               [24] 5217 	movx	a,@dptr
      001782 C0 E0            [24] 5218 	push	acc
      001784 A3               [24] 5219 	inc	dptr
      001785 E0               [24] 5220 	movx	a,@dptr
      001786 C0 E0            [24] 5221 	push	acc
      001788 A3               [24] 5222 	inc	dptr
      001789 E0               [24] 5223 	movx	a,@dptr
      00178A C0 E0            [24] 5224 	push	acc
      00178C A3               [24] 5225 	inc	dptr
      00178D E0               [24] 5226 	movx	a,@dptr
      00178E C0 E0            [24] 5227 	push	acc
      001790 74rE0            [12] 5228 	mov	a,#___str_44
      001792 C0 E0            [24] 5229 	push	acc
      001794 74s02            [12] 5230 	mov	a,#(___str_44 >> 8)
      001796 C0 E0            [24] 5231 	push	acc
      001798 74 80            [12] 5232 	mov	a,#0x80
      00179A C0 E0            [24] 5233 	push	acc
      00179C 12r00r00         [24] 5234 	lcall	_printf
      00179F E5 81            [12] 5235 	mov	a,sp
      0017A1 24 F9            [12] 5236 	add	a,#0xf9
      0017A3 F5 81            [12] 5237 	mov	sp,a
      0017A5 D0 02            [24] 5238 	pop	ar2
      0017A7 D0 03            [24] 5239 	pop	ar3
      0017A9 D0 06            [24] 5240 	pop	ar6
      0017AB D0 07            [24] 5241 	pop	ar7
                                   5242 ;	USBHost.c:706: break;
      0017AD 02r19r18         [24] 5243 	ljmp	00150$
                                   5244 ;	USBHost.c:707: case REPORT_OUTPUT:
      0017B0                       5245 00144$:
                                   5246 ;	USBHost.c:708: DEBUG_OUT("Output 0x%02lx\n", data);
      0017B0 C0 07            [24] 5247 	push	ar7
      0017B2 C0 06            [24] 5248 	push	ar6
      0017B4 C0 03            [24] 5249 	push	ar3
      0017B6 C0 02            [24] 5250 	push	ar2
      0017B8 90r02rA1         [24] 5251 	mov	dptr,#_parseHIDDeviceReport_data_131072_140
      0017BB E0               [24] 5252 	movx	a,@dptr
      0017BC C0 E0            [24] 5253 	push	acc
      0017BE A3               [24] 5254 	inc	dptr
      0017BF E0               [24] 5255 	movx	a,@dptr
      0017C0 C0 E0            [24] 5256 	push	acc
      0017C2 A3               [24] 5257 	inc	dptr
      0017C3 E0               [24] 5258 	movx	a,@dptr
      0017C4 C0 E0            [24] 5259 	push	acc
      0017C6 A3               [24] 5260 	inc	dptr
      0017C7 E0               [24] 5261 	movx	a,@dptr
      0017C8 C0 E0            [24] 5262 	push	acc
      0017CA 74rEF            [12] 5263 	mov	a,#___str_45
      0017CC C0 E0            [24] 5264 	push	acc
      0017CE 74s02            [12] 5265 	mov	a,#(___str_45 >> 8)
      0017D0 C0 E0            [24] 5266 	push	acc
      0017D2 74 80            [12] 5267 	mov	a,#0x80
      0017D4 C0 E0            [24] 5268 	push	acc
      0017D6 12r00r00         [24] 5269 	lcall	_printf
      0017D9 E5 81            [12] 5270 	mov	a,sp
      0017DB 24 F9            [12] 5271 	add	a,#0xf9
      0017DD F5 81            [12] 5272 	mov	sp,a
      0017DF D0 02            [24] 5273 	pop	ar2
      0017E1 D0 03            [24] 5274 	pop	ar3
      0017E3 D0 06            [24] 5275 	pop	ar6
      0017E5 D0 07            [24] 5276 	pop	ar7
                                   5277 ;	USBHost.c:709: break;
      0017E7 02r19r18         [24] 5278 	ljmp	00150$
                                   5279 ;	USBHost.c:710: case REPORT_FEATURE:
      0017EA                       5280 00145$:
                                   5281 ;	USBHost.c:711: DEBUG_OUT("Feature 0x%02lx\n", data);
      0017EA C0 07            [24] 5282 	push	ar7
      0017EC C0 06            [24] 5283 	push	ar6
      0017EE C0 03            [24] 5284 	push	ar3
      0017F0 C0 02            [24] 5285 	push	ar2
      0017F2 90r02rA1         [24] 5286 	mov	dptr,#_parseHIDDeviceReport_data_131072_140
      0017F5 E0               [24] 5287 	movx	a,@dptr
      0017F6 C0 E0            [24] 5288 	push	acc
      0017F8 A3               [24] 5289 	inc	dptr
      0017F9 E0               [24] 5290 	movx	a,@dptr
      0017FA C0 E0            [24] 5291 	push	acc
      0017FC A3               [24] 5292 	inc	dptr
      0017FD E0               [24] 5293 	movx	a,@dptr
      0017FE C0 E0            [24] 5294 	push	acc
      001800 A3               [24] 5295 	inc	dptr
      001801 E0               [24] 5296 	movx	a,@dptr
      001802 C0 E0            [24] 5297 	push	acc
      001804 74rFF            [12] 5298 	mov	a,#___str_46
      001806 C0 E0            [24] 5299 	push	acc
      001808 74s02            [12] 5300 	mov	a,#(___str_46 >> 8)
      00180A C0 E0            [24] 5301 	push	acc
      00180C 74 80            [12] 5302 	mov	a,#0x80
      00180E C0 E0            [24] 5303 	push	acc
      001810 12r00r00         [24] 5304 	lcall	_printf
      001813 E5 81            [12] 5305 	mov	a,sp
      001815 24 F9            [12] 5306 	add	a,#0xf9
      001817 F5 81            [12] 5307 	mov	sp,a
      001819 D0 02            [24] 5308 	pop	ar2
      00181B D0 03            [24] 5309 	pop	ar3
      00181D D0 06            [24] 5310 	pop	ar6
      00181F D0 07            [24] 5311 	pop	ar7
                                   5312 ;	USBHost.c:712: break;
      001821 02r19r18         [24] 5313 	ljmp	00150$
                                   5314 ;	USBHost.c:713: case REPORT_REPORT_SIZE:
      001824                       5315 00146$:
                                   5316 ;	USBHost.c:714: DEBUG_OUT("Report size %lu\n", data);
      001824 C0 07            [24] 5317 	push	ar7
      001826 C0 06            [24] 5318 	push	ar6
      001828 C0 03            [24] 5319 	push	ar3
      00182A C0 02            [24] 5320 	push	ar2
      00182C 90r02rA1         [24] 5321 	mov	dptr,#_parseHIDDeviceReport_data_131072_140
      00182F E0               [24] 5322 	movx	a,@dptr
      001830 C0 E0            [24] 5323 	push	acc
      001832 A3               [24] 5324 	inc	dptr
      001833 E0               [24] 5325 	movx	a,@dptr
      001834 C0 E0            [24] 5326 	push	acc
      001836 A3               [24] 5327 	inc	dptr
      001837 E0               [24] 5328 	movx	a,@dptr
      001838 C0 E0            [24] 5329 	push	acc
      00183A A3               [24] 5330 	inc	dptr
      00183B E0               [24] 5331 	movx	a,@dptr
      00183C C0 E0            [24] 5332 	push	acc
      00183E 74r10            [12] 5333 	mov	a,#___str_47
      001840 C0 E0            [24] 5334 	push	acc
      001842 74s03            [12] 5335 	mov	a,#(___str_47 >> 8)
      001844 C0 E0            [24] 5336 	push	acc
      001846 74 80            [12] 5337 	mov	a,#0x80
      001848 C0 E0            [24] 5338 	push	acc
      00184A 12r00r00         [24] 5339 	lcall	_printf
      00184D E5 81            [12] 5340 	mov	a,sp
      00184F 24 F9            [12] 5341 	add	a,#0xf9
      001851 F5 81            [12] 5342 	mov	sp,a
      001853 D0 02            [24] 5343 	pop	ar2
      001855 D0 03            [24] 5344 	pop	ar3
      001857 D0 06            [24] 5345 	pop	ar6
      001859 D0 07            [24] 5346 	pop	ar7
                                   5347 ;	USBHost.c:715: break;
      00185B 02r19r18         [24] 5348 	ljmp	00150$
                                   5349 ;	USBHost.c:716: case REPORT_REPORT_ID:
      00185E                       5350 00147$:
                                   5351 ;	USBHost.c:717: DEBUG_OUT("Report ID %lu\n", data);
      00185E C0 07            [24] 5352 	push	ar7
      001860 C0 06            [24] 5353 	push	ar6
      001862 C0 03            [24] 5354 	push	ar3
      001864 C0 02            [24] 5355 	push	ar2
      001866 90r02rA1         [24] 5356 	mov	dptr,#_parseHIDDeviceReport_data_131072_140
      001869 E0               [24] 5357 	movx	a,@dptr
      00186A C0 E0            [24] 5358 	push	acc
      00186C A3               [24] 5359 	inc	dptr
      00186D E0               [24] 5360 	movx	a,@dptr
      00186E C0 E0            [24] 5361 	push	acc
      001870 A3               [24] 5362 	inc	dptr
      001871 E0               [24] 5363 	movx	a,@dptr
      001872 C0 E0            [24] 5364 	push	acc
      001874 A3               [24] 5365 	inc	dptr
      001875 E0               [24] 5366 	movx	a,@dptr
      001876 C0 E0            [24] 5367 	push	acc
      001878 74r21            [12] 5368 	mov	a,#___str_48
      00187A C0 E0            [24] 5369 	push	acc
      00187C 74s03            [12] 5370 	mov	a,#(___str_48 >> 8)
      00187E C0 E0            [24] 5371 	push	acc
      001880 74 80            [12] 5372 	mov	a,#0x80
      001882 C0 E0            [24] 5373 	push	acc
      001884 12r00r00         [24] 5374 	lcall	_printf
      001887 E5 81            [12] 5375 	mov	a,sp
      001889 24 F9            [12] 5376 	add	a,#0xf9
      00188B F5 81            [12] 5377 	mov	sp,a
      00188D D0 02            [24] 5378 	pop	ar2
      00188F D0 03            [24] 5379 	pop	ar3
      001891 D0 06            [24] 5380 	pop	ar6
      001893 D0 07            [24] 5381 	pop	ar7
                                   5382 ;	USBHost.c:718: break;
      001895 02r19r18         [24] 5383 	ljmp	00150$
                                   5384 ;	USBHost.c:719: case REPORT_REPORT_COUNT:
      001898                       5385 00148$:
                                   5386 ;	USBHost.c:720: DEBUG_OUT("Report count %lu\n", data);
      001898 C0 07            [24] 5387 	push	ar7
      00189A C0 06            [24] 5388 	push	ar6
      00189C C0 03            [24] 5389 	push	ar3
      00189E C0 02            [24] 5390 	push	ar2
      0018A0 90r02rA1         [24] 5391 	mov	dptr,#_parseHIDDeviceReport_data_131072_140
      0018A3 E0               [24] 5392 	movx	a,@dptr
      0018A4 C0 E0            [24] 5393 	push	acc
      0018A6 A3               [24] 5394 	inc	dptr
      0018A7 E0               [24] 5395 	movx	a,@dptr
      0018A8 C0 E0            [24] 5396 	push	acc
      0018AA A3               [24] 5397 	inc	dptr
      0018AB E0               [24] 5398 	movx	a,@dptr
      0018AC C0 E0            [24] 5399 	push	acc
      0018AE A3               [24] 5400 	inc	dptr
      0018AF E0               [24] 5401 	movx	a,@dptr
      0018B0 C0 E0            [24] 5402 	push	acc
      0018B2 74r30            [12] 5403 	mov	a,#___str_49
      0018B4 C0 E0            [24] 5404 	push	acc
      0018B6 74s03            [12] 5405 	mov	a,#(___str_49 >> 8)
      0018B8 C0 E0            [24] 5406 	push	acc
      0018BA 74 80            [12] 5407 	mov	a,#0x80
      0018BC C0 E0            [24] 5408 	push	acc
      0018BE 12r00r00         [24] 5409 	lcall	_printf
      0018C1 E5 81            [12] 5410 	mov	a,sp
      0018C3 24 F9            [12] 5411 	add	a,#0xf9
      0018C5 F5 81            [12] 5412 	mov	sp,a
      0018C7 D0 02            [24] 5413 	pop	ar2
      0018C9 D0 03            [24] 5414 	pop	ar3
      0018CB D0 06            [24] 5415 	pop	ar6
      0018CD D0 07            [24] 5416 	pop	ar7
                                   5417 ;	USBHost.c:721: break;
                                   5418 ;	USBHost.c:722: default:
      0018CF 80 47            [24] 5419 	sjmp	00150$
      0018D1                       5420 00149$:
                                   5421 ;	USBHost.c:723: DEBUG_OUT("Unknown HID report identifier: 0x%02x (%i bytes) data: 0x%02lx\n", id, size, data);
      0018D1 A9*16            [24] 5422 	mov	r1,_parseHIDDeviceReport_sloc1_1_0
      0018D3 7C 00            [12] 5423 	mov	r4,#0x00
      0018D5 8D 00            [24] 5424 	mov	ar0,r5
      0018D7 7D 00            [12] 5425 	mov	r5,#0x00
      0018D9 C0 07            [24] 5426 	push	ar7
      0018DB C0 06            [24] 5427 	push	ar6
      0018DD C0 03            [24] 5428 	push	ar3
      0018DF C0 02            [24] 5429 	push	ar2
      0018E1 90r02rA1         [24] 5430 	mov	dptr,#_parseHIDDeviceReport_data_131072_140
      0018E4 E0               [24] 5431 	movx	a,@dptr
      0018E5 C0 E0            [24] 5432 	push	acc
      0018E7 A3               [24] 5433 	inc	dptr
      0018E8 E0               [24] 5434 	movx	a,@dptr
      0018E9 C0 E0            [24] 5435 	push	acc
      0018EB A3               [24] 5436 	inc	dptr
      0018EC E0               [24] 5437 	movx	a,@dptr
      0018ED C0 E0            [24] 5438 	push	acc
      0018EF A3               [24] 5439 	inc	dptr
      0018F0 E0               [24] 5440 	movx	a,@dptr
      0018F1 C0 E0            [24] 5441 	push	acc
      0018F3 C0 01            [24] 5442 	push	ar1
      0018F5 C0 04            [24] 5443 	push	ar4
      0018F7 C0 00            [24] 5444 	push	ar0
      0018F9 C0 05            [24] 5445 	push	ar5
      0018FB 74r42            [12] 5446 	mov	a,#___str_50
      0018FD C0 E0            [24] 5447 	push	acc
      0018FF 74s03            [12] 5448 	mov	a,#(___str_50 >> 8)
      001901 C0 E0            [24] 5449 	push	acc
      001903 74 80            [12] 5450 	mov	a,#0x80
      001905 C0 E0            [24] 5451 	push	acc
      001907 12r00r00         [24] 5452 	lcall	_printf
      00190A E5 81            [12] 5453 	mov	a,sp
      00190C 24 F5            [12] 5454 	add	a,#0xf5
      00190E F5 81            [12] 5455 	mov	sp,a
      001910 D0 02            [24] 5456 	pop	ar2
      001912 D0 03            [24] 5457 	pop	ar3
      001914 D0 06            [24] 5458 	pop	ar6
      001916 D0 07            [24] 5459 	pop	ar7
                                   5460 ;	USBHost.c:724: };
      001918                       5461 00150$:
                                   5462 ;	USBHost.c:725: i += size + 1;
      001918 90r02rA0         [24] 5463 	mov	dptr,#_parseHIDDeviceReport_size_131072_140
      00191B E0               [24] 5464 	movx	a,@dptr
      00191C FD               [12] 5465 	mov	r5,a
      00191D 7C 00            [12] 5466 	mov	r4,#0x00
      00191F 0D               [12] 5467 	inc	r5
      001920 BD 00 01         [24] 5468 	cjne	r5,#0x00,00344$
      001923 0C               [12] 5469 	inc	r4
      001924                       5470 00344$:
      001924 90r02r9B         [24] 5471 	mov	dptr,#_parseHIDDeviceReport_i_65536_139
      001927 E0               [24] 5472 	movx	a,@dptr
      001928 F8               [12] 5473 	mov	r0,a
      001929 A3               [24] 5474 	inc	dptr
      00192A E0               [24] 5475 	movx	a,@dptr
      00192B F9               [12] 5476 	mov	r1,a
      00192C ED               [12] 5477 	mov	a,r5
      00192D 28               [12] 5478 	add	a,r0
      00192E F8               [12] 5479 	mov	r0,a
      00192F EC               [12] 5480 	mov	a,r4
      001930 39               [12] 5481 	addc	a,r1
      001931 F9               [12] 5482 	mov	r1,a
      001932 90r02r9B         [24] 5483 	mov	dptr,#_parseHIDDeviceReport_i_65536_139
      001935 E8               [12] 5484 	mov	a,r0
      001936 F0               [24] 5485 	movx	@dptr,a
      001937 E9               [12] 5486 	mov	a,r1
      001938 A3               [24] 5487 	inc	dptr
      001939 F0               [24] 5488 	movx	@dptr,a
                                   5489 ;	USBHost.c:727: }
      00193A 02r0Er1A         [24] 5490 	ljmp	00151$
                                   5491 ;------------------------------------------------------------
                                   5492 ;Allocation info for local variables in function 'getHIDDeviceReport'
                                   5493 ;------------------------------------------------------------
                                   5494 ;CurrentDevive             Allocated with name '_getHIDDeviceReport_CurrentDevive_65536_148'
                                   5495 ;s                         Allocated with name '_getHIDDeviceReport_s_65536_149'
                                   5496 ;len                       Allocated with name '_getHIDDeviceReport_len_65536_149'
                                   5497 ;i                         Allocated with name '_getHIDDeviceReport_i_65536_149'
                                   5498 ;reportLen                 Allocated with name '_getHIDDeviceReport_reportLen_65536_149'
                                   5499 ;------------------------------------------------------------
                                   5500 ;	USBHost.c:729: unsigned char getHIDDeviceReport(unsigned char CurrentDevive)
                                   5501 ;	-----------------------------------------
                                   5502 ;	 function getHIDDeviceReport
                                   5503 ;	-----------------------------------------
      00193D                       5504 _getHIDDeviceReport:
      00193D E5 82            [12] 5505 	mov	a,dpl
      00193F 90r02rA5         [24] 5506 	mov	dptr,#_getHIDDeviceReport_CurrentDevive_65536_148
      001942 F0               [24] 5507 	movx	@dptr,a
                                   5508 ;	USBHost.c:733: DEBUG_OUT("Requesting report from interface %i\n", HIDdevice[CurrentDevive].interface);
      001943 E0               [24] 5509 	movx	a,@dptr
      001944 75 F0 08         [24] 5510 	mov	b,#0x08
      001947 A4               [48] 5511 	mul	ab
      001948 24r34            [12] 5512 	add	a,#_HIDdevice
      00194A FE               [12] 5513 	mov	r6,a
      00194B 74s02            [12] 5514 	mov	a,#(_HIDdevice >> 8)
      00194D 35 F0            [12] 5515 	addc	a,b
      00194F FF               [12] 5516 	mov	r7,a
      001950 74 02            [12] 5517 	mov	a,#0x02
      001952 2E               [12] 5518 	add	a,r6
      001953 FE               [12] 5519 	mov	r6,a
      001954 E4               [12] 5520 	clr	a
      001955 3F               [12] 5521 	addc	a,r7
      001956 FF               [12] 5522 	mov	r7,a
      001957 8E 82            [24] 5523 	mov	dpl,r6
      001959 8F 83            [24] 5524 	mov	dph,r7
      00195B E0               [24] 5525 	movx	a,@dptr
      00195C FD               [12] 5526 	mov	r5,a
      00195D 7C 00            [12] 5527 	mov	r4,#0x00
      00195F C0 07            [24] 5528 	push	ar7
      001961 C0 06            [24] 5529 	push	ar6
      001963 C0 05            [24] 5530 	push	ar5
      001965 C0 04            [24] 5531 	push	ar4
      001967 74r82            [12] 5532 	mov	a,#___str_51
      001969 C0 E0            [24] 5533 	push	acc
      00196B 74s03            [12] 5534 	mov	a,#(___str_51 >> 8)
      00196D C0 E0            [24] 5535 	push	acc
      00196F 74 80            [12] 5536 	mov	a,#0x80
      001971 C0 E0            [24] 5537 	push	acc
      001973 12r00r00         [24] 5538 	lcall	_printf
      001976 E5 81            [12] 5539 	mov	a,sp
      001978 24 FB            [12] 5540 	add	a,#0xfb
      00197A F5 81            [12] 5541 	mov	sp,a
                                   5542 ;	USBHost.c:735: fillTxBuffer(SetHIDIdleRequest, sizeof(SetHIDIdleRequest));
      00197C 90r02r20         [24] 5543 	mov	dptr,#_fillTxBuffer_PARM_2
      00197F 74 08            [12] 5544 	mov	a,#0x08
      001981 F0               [24] 5545 	movx	@dptr,a
      001982 90r00r30         [24] 5546 	mov	dptr,#_SetHIDIdleRequest
      001985 12r07r62         [24] 5547 	lcall	_fillTxBuffer
      001988 D0 06            [24] 5548 	pop	ar6
      00198A D0 07            [24] 5549 	pop	ar7
                                   5550 ;	USBHost.c:736: ((PXUSB_SETUP_REQ)TxBuffer)->wIndexL = HIDdevice[CurrentDevive].interface;    
      00198C 8E 82            [24] 5551 	mov	dpl,r6
      00198E 8F 83            [24] 5552 	mov	dph,r7
      001990 E0               [24] 5553 	movx	a,@dptr
      001991 90 01 04         [24] 5554 	mov	dptr,#(_TxBuffer + 0x0004)
      001994 F0               [24] 5555 	movx	@dptr,a
                                   5556 ;	USBHost.c:737: s = hostCtrlTransfer(receiveDataBuffer, &len, 0);
      001995 90r02r14         [24] 5557 	mov	dptr,#_hostCtrlTransfer_PARM_2
      001998 74rA6            [12] 5558 	mov	a,#_getHIDDeviceReport_len_65536_149
      00199A F0               [24] 5559 	movx	@dptr,a
      00199B 74s02            [12] 5560 	mov	a,#(_getHIDDeviceReport_len_65536_149 >> 8)
      00199D A3               [24] 5561 	inc	dptr
      00199E F0               [24] 5562 	movx	@dptr,a
      00199F E4               [12] 5563 	clr	a
      0019A0 A3               [24] 5564 	inc	dptr
      0019A1 F0               [24] 5565 	movx	@dptr,a
      0019A2 90r02r17         [24] 5566 	mov	dptr,#_hostCtrlTransfer_PARM_3
      0019A5 F0               [24] 5567 	movx	@dptr,a
      0019A6 A3               [24] 5568 	inc	dptr
      0019A7 F0               [24] 5569 	movx	@dptr,a
      0019A8 90r00r01         [24] 5570 	mov	dptr,#_receiveDataBuffer
      0019AB C0 07            [24] 5571 	push	ar7
      0019AD C0 06            [24] 5572 	push	ar6
      0019AF 12r03r99         [24] 5573 	lcall	_hostCtrlTransfer
                                   5574 ;	USBHost.c:743: fillTxBuffer(GetHIDReport, sizeof(GetHIDReport));
      0019B2 90r02r20         [24] 5575 	mov	dptr,#_fillTxBuffer_PARM_2
      0019B5 74 08            [12] 5576 	mov	a,#0x08
      0019B7 F0               [24] 5577 	movx	@dptr,a
      0019B8 90r00r38         [24] 5578 	mov	dptr,#_GetHIDReport
      0019BB 12r07r62         [24] 5579 	lcall	_fillTxBuffer
      0019BE D0 06            [24] 5580 	pop	ar6
      0019C0 D0 07            [24] 5581 	pop	ar7
                                   5582 ;	USBHost.c:744: ((PXUSB_SETUP_REQ)TxBuffer)->wIndexL = HIDdevice[CurrentDevive].interface;
      0019C2 8E 82            [24] 5583 	mov	dpl,r6
      0019C4 8F 83            [24] 5584 	mov	dph,r7
      0019C6 E0               [24] 5585 	movx	a,@dptr
      0019C7 90 01 04         [24] 5586 	mov	dptr,#(_TxBuffer + 0x0004)
      0019CA F0               [24] 5587 	movx	@dptr,a
                                   5588 ;	USBHost.c:745: ((PXUSB_SETUP_REQ)TxBuffer)->wLengthL = (unsigned char)(reportLen & 255); 
      0019CB 7F 00            [12] 5589 	mov	r7,#0x00
      0019CD 90 01 06         [24] 5590 	mov	dptr,#(_TxBuffer + 0x0006)
      0019D0 EF               [12] 5591 	mov	a,r7
      0019D1 F0               [24] 5592 	movx	@dptr,a
                                   5593 ;	USBHost.c:746: ((PXUSB_SETUP_REQ)TxBuffer)->wLengthH = (unsigned char)(reportLen >> 8);
      0019D2 90 01 07         [24] 5594 	mov	dptr,#(_TxBuffer + 0x0007)
      0019D5 74 02            [12] 5595 	mov	a,#0x02
      0019D7 F0               [24] 5596 	movx	@dptr,a
                                   5597 ;	USBHost.c:747: s = hostCtrlTransfer(receiveDataBuffer, &len, RECEIVE_BUFFER_LEN);
      0019D8 90r02r14         [24] 5598 	mov	dptr,#_hostCtrlTransfer_PARM_2
      0019DB 74rA6            [12] 5599 	mov	a,#_getHIDDeviceReport_len_65536_149
      0019DD F0               [24] 5600 	movx	@dptr,a
      0019DE 74s02            [12] 5601 	mov	a,#(_getHIDDeviceReport_len_65536_149 >> 8)
      0019E0 A3               [24] 5602 	inc	dptr
      0019E1 F0               [24] 5603 	movx	@dptr,a
      0019E2 E4               [12] 5604 	clr	a
      0019E3 A3               [24] 5605 	inc	dptr
      0019E4 F0               [24] 5606 	movx	@dptr,a
      0019E5 90r02r17         [24] 5607 	mov	dptr,#_hostCtrlTransfer_PARM_3
      0019E8 F0               [24] 5608 	movx	@dptr,a
      0019E9 74 02            [12] 5609 	mov	a,#0x02
      0019EB A3               [24] 5610 	inc	dptr
      0019EC F0               [24] 5611 	movx	@dptr,a
      0019ED 90r00r01         [24] 5612 	mov	dptr,#_receiveDataBuffer
      0019F0 12r03r99         [24] 5613 	lcall	_hostCtrlTransfer
                                   5614 ;	USBHost.c:748: if(s != ERR_SUCCESS)
      0019F3 E5 82            [12] 5615 	mov	a,dpl
      0019F5 FF               [12] 5616 	mov	r7,a
      0019F6 60 03            [24] 5617 	jz	00111$
                                   5618 ;	USBHost.c:749: return s;
      0019F8 8F 82            [24] 5619 	mov	dpl,r7
      0019FA 22               [24] 5620 	ret
                                   5621 ;	USBHost.c:751: for (i = 0; i < len; i++)
      0019FB                       5622 00111$:
      0019FB 7E 00            [12] 5623 	mov	r6,#0x00
      0019FD 7F 00            [12] 5624 	mov	r7,#0x00
      0019FF                       5625 00105$:
      0019FF 90r02rA6         [24] 5626 	mov	dptr,#_getHIDDeviceReport_len_65536_149
      001A02 E0               [24] 5627 	movx	a,@dptr
      001A03 FC               [12] 5628 	mov	r4,a
      001A04 A3               [24] 5629 	inc	dptr
      001A05 E0               [24] 5630 	movx	a,@dptr
      001A06 FD               [12] 5631 	mov	r5,a
      001A07 C3               [12] 5632 	clr	c
      001A08 EE               [12] 5633 	mov	a,r6
      001A09 9C               [12] 5634 	subb	a,r4
      001A0A EF               [12] 5635 	mov	a,r7
      001A0B 9D               [12] 5636 	subb	a,r5
      001A0C 50 36            [24] 5637 	jnc	00103$
                                   5638 ;	USBHost.c:753: DEBUG_OUT("0x%02X ", receiveDataBuffer[i]);
      001A0E EE               [12] 5639 	mov	a,r6
      001A0F 24r01            [12] 5640 	add	a,#_receiveDataBuffer
      001A11 F5 82            [12] 5641 	mov	dpl,a
      001A13 EF               [12] 5642 	mov	a,r7
      001A14 34s00            [12] 5643 	addc	a,#(_receiveDataBuffer >> 8)
      001A16 F5 83            [12] 5644 	mov	dph,a
      001A18 E0               [24] 5645 	movx	a,@dptr
      001A19 FD               [12] 5646 	mov	r5,a
      001A1A 7C 00            [12] 5647 	mov	r4,#0x00
      001A1C C0 07            [24] 5648 	push	ar7
      001A1E C0 06            [24] 5649 	push	ar6
      001A20 C0 05            [24] 5650 	push	ar5
      001A22 C0 04            [24] 5651 	push	ar4
      001A24 74r6B            [12] 5652 	mov	a,#___str_12
      001A26 C0 E0            [24] 5653 	push	acc
      001A28 74s01            [12] 5654 	mov	a,#(___str_12 >> 8)
      001A2A C0 E0            [24] 5655 	push	acc
      001A2C 74 80            [12] 5656 	mov	a,#0x80
      001A2E C0 E0            [24] 5657 	push	acc
      001A30 12r00r00         [24] 5658 	lcall	_printf
      001A33 E5 81            [12] 5659 	mov	a,sp
      001A35 24 FB            [12] 5660 	add	a,#0xfb
      001A37 F5 81            [12] 5661 	mov	sp,a
      001A39 D0 06            [24] 5662 	pop	ar6
      001A3B D0 07            [24] 5663 	pop	ar7
                                   5664 ;	USBHost.c:751: for (i = 0; i < len; i++)
      001A3D 0E               [12] 5665 	inc	r6
      001A3E BE 00 BE         [24] 5666 	cjne	r6,#0x00,00105$
      001A41 0F               [12] 5667 	inc	r7
      001A42 80 BB            [24] 5668 	sjmp	00105$
      001A44                       5669 00103$:
                                   5670 ;	USBHost.c:755: DEBUG_OUT("\n");
      001A44 74r73            [12] 5671 	mov	a,#___str_13
      001A46 C0 E0            [24] 5672 	push	acc
      001A48 74s01            [12] 5673 	mov	a,#(___str_13 >> 8)
      001A4A C0 E0            [24] 5674 	push	acc
      001A4C 74 80            [12] 5675 	mov	a,#0x80
      001A4E C0 E0            [24] 5676 	push	acc
      001A50 12r00r00         [24] 5677 	lcall	_printf
      001A53 15 81            [12] 5678 	dec	sp
      001A55 15 81            [12] 5679 	dec	sp
      001A57 15 81            [12] 5680 	dec	sp
                                   5681 ;	USBHost.c:756: sendProtocolMSG(MSG_TYPE_HID_INFO, len, CurrentDevive, HIDdevice[CurrentDevive].interface, HIDdevice[CurrentDevive].rootHub, receiveDataBuffer);
      001A59 90r02rA6         [24] 5682 	mov	dptr,#_getHIDDeviceReport_len_65536_149
      001A5C E0               [24] 5683 	movx	a,@dptr
      001A5D FE               [12] 5684 	mov	r6,a
      001A5E A3               [24] 5685 	inc	dptr
      001A5F E0               [24] 5686 	movx	a,@dptr
      001A60 FF               [12] 5687 	mov	r7,a
      001A61 90r02rA5         [24] 5688 	mov	dptr,#_getHIDDeviceReport_CurrentDevive_65536_148
      001A64 E0               [24] 5689 	movx	a,@dptr
      001A65 FD               [12] 5690 	mov	r5,a
      001A66 75 F0 08         [24] 5691 	mov	b,#0x08
      001A69 A4               [48] 5692 	mul	ab
      001A6A 24r34            [12] 5693 	add	a,#_HIDdevice
      001A6C FB               [12] 5694 	mov	r3,a
      001A6D 74s02            [12] 5695 	mov	a,#(_HIDdevice >> 8)
      001A6F 35 F0            [12] 5696 	addc	a,b
      001A71 FC               [12] 5697 	mov	r4,a
      001A72 8B 82            [24] 5698 	mov	dpl,r3
      001A74 8C 83            [24] 5699 	mov	dph,r4
      001A76 A3               [24] 5700 	inc	dptr
      001A77 A3               [24] 5701 	inc	dptr
      001A78 E0               [24] 5702 	movx	a,@dptr
      001A79 FA               [12] 5703 	mov	r2,a
      001A7A 8B 82            [24] 5704 	mov	dpl,r3
      001A7C 8C 83            [24] 5705 	mov	dph,r4
      001A7E A3               [24] 5706 	inc	dptr
      001A7F E0               [24] 5707 	movx	a,@dptr
      001A80 FC               [12] 5708 	mov	r4,a
      001A81 90r00r00         [24] 5709 	mov	dptr,#_sendProtocolMSG_PARM_2
      001A84 EE               [12] 5710 	mov	a,r6
      001A85 F0               [24] 5711 	movx	@dptr,a
      001A86 EF               [12] 5712 	mov	a,r7
      001A87 A3               [24] 5713 	inc	dptr
      001A88 F0               [24] 5714 	movx	@dptr,a
      001A89 90r00r00         [24] 5715 	mov	dptr,#_sendProtocolMSG_PARM_3
      001A8C ED               [12] 5716 	mov	a,r5
      001A8D F0               [24] 5717 	movx	@dptr,a
      001A8E 90r00r00         [24] 5718 	mov	dptr,#_sendProtocolMSG_PARM_4
      001A91 EA               [12] 5719 	mov	a,r2
      001A92 F0               [24] 5720 	movx	@dptr,a
      001A93 90r00r00         [24] 5721 	mov	dptr,#_sendProtocolMSG_PARM_5
      001A96 EC               [12] 5722 	mov	a,r4
      001A97 F0               [24] 5723 	movx	@dptr,a
      001A98 90r00r00         [24] 5724 	mov	dptr,#_sendProtocolMSG_PARM_6
      001A9B 74r01            [12] 5725 	mov	a,#_receiveDataBuffer
      001A9D F0               [24] 5726 	movx	@dptr,a
      001A9E 74s00            [12] 5727 	mov	a,#(_receiveDataBuffer >> 8)
      001AA0 A3               [24] 5728 	inc	dptr
      001AA1 F0               [24] 5729 	movx	@dptr,a
      001AA2 75 82 07         [24] 5730 	mov	dpl,#0x07
      001AA5 C0 05            [24] 5731 	push	ar5
      001AA7 12r00r00         [24] 5732 	lcall	_sendProtocolMSG
      001AAA D0 05            [24] 5733 	pop	ar5
                                   5734 ;	USBHost.c:757: parseHIDDeviceReport(receiveDataBuffer, len, CurrentDevive);
      001AAC 90r02rA6         [24] 5735 	mov	dptr,#_getHIDDeviceReport_len_65536_149
      001AAF E0               [24] 5736 	movx	a,@dptr
      001AB0 FE               [12] 5737 	mov	r6,a
      001AB1 A3               [24] 5738 	inc	dptr
      001AB2 E0               [24] 5739 	movx	a,@dptr
      001AB3 FF               [12] 5740 	mov	r7,a
      001AB4 90r02r96         [24] 5741 	mov	dptr,#_parseHIDDeviceReport_PARM_2
      001AB7 EE               [12] 5742 	mov	a,r6
      001AB8 F0               [24] 5743 	movx	@dptr,a
      001AB9 EF               [12] 5744 	mov	a,r7
      001ABA A3               [24] 5745 	inc	dptr
      001ABB F0               [24] 5746 	movx	@dptr,a
      001ABC 90r02r98         [24] 5747 	mov	dptr,#_parseHIDDeviceReport_PARM_3
      001ABF ED               [12] 5748 	mov	a,r5
      001AC0 F0               [24] 5749 	movx	@dptr,a
      001AC1 90r00r01         [24] 5750 	mov	dptr,#_receiveDataBuffer
      001AC4 12r0DrD8         [24] 5751 	lcall	_parseHIDDeviceReport
                                   5752 ;	USBHost.c:758: return (ERR_SUCCESS);
      001AC7 75 82 00         [24] 5753 	mov	dpl,#0x00
                                   5754 ;	USBHost.c:759: }
      001ACA 22               [24] 5755 	ret
                                   5756 ;------------------------------------------------------------
                                   5757 ;Allocation info for local variables in function 'readInterface'
                                   5758 ;------------------------------------------------------------
                                   5759 ;interface                 Allocated with name '_readInterface_PARM_2'
                                   5760 ;rootHubIndex              Allocated with name '_readInterface_rootHubIndex_65536_152'
                                   5761 ;------------------------------------------------------------
                                   5762 ;	USBHost.c:761: void readInterface(unsigned char rootHubIndex, PXUSB_ITF_DESCR interface)
                                   5763 ;	-----------------------------------------
                                   5764 ;	 function readInterface
                                   5765 ;	-----------------------------------------
      001ACB                       5766 _readInterface:
                                   5767 ;	USBHost.c:765: DEBUG_OUT("Interface %d\n", interface->bInterfaceNumber);
      001ACB 90r02rA8         [24] 5768 	mov	dptr,#_readInterface_PARM_2
      001ACE E0               [24] 5769 	movx	a,@dptr
      001ACF FE               [12] 5770 	mov	r6,a
      001AD0 A3               [24] 5771 	inc	dptr
      001AD1 E0               [24] 5772 	movx	a,@dptr
      001AD2 FF               [12] 5773 	mov	r7,a
      001AD3 8E 82            [24] 5774 	mov	dpl,r6
      001AD5 8F 83            [24] 5775 	mov	dph,r7
      001AD7 A3               [24] 5776 	inc	dptr
      001AD8 A3               [24] 5777 	inc	dptr
      001AD9 E0               [24] 5778 	movx	a,@dptr
      001ADA FD               [12] 5779 	mov	r5,a
      001ADB 7C 00            [12] 5780 	mov	r4,#0x00
      001ADD C0 07            [24] 5781 	push	ar7
      001ADF C0 06            [24] 5782 	push	ar6
      001AE1 C0 05            [24] 5783 	push	ar5
      001AE3 C0 04            [24] 5784 	push	ar4
      001AE5 74rA7            [12] 5785 	mov	a,#___str_52
      001AE7 C0 E0            [24] 5786 	push	acc
      001AE9 74s03            [12] 5787 	mov	a,#(___str_52 >> 8)
      001AEB C0 E0            [24] 5788 	push	acc
      001AED 74 80            [12] 5789 	mov	a,#0x80
      001AEF C0 E0            [24] 5790 	push	acc
      001AF1 12r00r00         [24] 5791 	lcall	_printf
      001AF4 E5 81            [12] 5792 	mov	a,sp
      001AF6 24 FB            [12] 5793 	add	a,#0xfb
      001AF8 F5 81            [12] 5794 	mov	sp,a
      001AFA D0 06            [24] 5795 	pop	ar6
      001AFC D0 07            [24] 5796 	pop	ar7
                                   5797 ;	USBHost.c:766: DEBUG_OUT("  Class %d\n", interface->bInterfaceClass);
      001AFE 8E 82            [24] 5798 	mov	dpl,r6
      001B00 8F 83            [24] 5799 	mov	dph,r7
      001B02 A3               [24] 5800 	inc	dptr
      001B03 A3               [24] 5801 	inc	dptr
      001B04 A3               [24] 5802 	inc	dptr
      001B05 A3               [24] 5803 	inc	dptr
      001B06 A3               [24] 5804 	inc	dptr
      001B07 E0               [24] 5805 	movx	a,@dptr
      001B08 FD               [12] 5806 	mov	r5,a
      001B09 7C 00            [12] 5807 	mov	r4,#0x00
      001B0B C0 07            [24] 5808 	push	ar7
      001B0D C0 06            [24] 5809 	push	ar6
      001B0F C0 05            [24] 5810 	push	ar5
      001B11 C0 04            [24] 5811 	push	ar4
      001B13 74rB5            [12] 5812 	mov	a,#___str_53
      001B15 C0 E0            [24] 5813 	push	acc
      001B17 74s03            [12] 5814 	mov	a,#(___str_53 >> 8)
      001B19 C0 E0            [24] 5815 	push	acc
      001B1B 74 80            [12] 5816 	mov	a,#0x80
      001B1D C0 E0            [24] 5817 	push	acc
      001B1F 12r00r00         [24] 5818 	lcall	_printf
      001B22 E5 81            [12] 5819 	mov	a,sp
      001B24 24 FB            [12] 5820 	add	a,#0xfb
      001B26 F5 81            [12] 5821 	mov	sp,a
      001B28 D0 06            [24] 5822 	pop	ar6
      001B2A D0 07            [24] 5823 	pop	ar7
                                   5824 ;	USBHost.c:767: DEBUG_OUT("  Sub Class %d\n", interface->bInterfaceSubClass);
      001B2C 74 06            [12] 5825 	mov	a,#0x06
      001B2E 2E               [12] 5826 	add	a,r6
      001B2F F5 82            [12] 5827 	mov	dpl,a
      001B31 E4               [12] 5828 	clr	a
      001B32 3F               [12] 5829 	addc	a,r7
      001B33 F5 83            [12] 5830 	mov	dph,a
      001B35 E0               [24] 5831 	movx	a,@dptr
      001B36 FD               [12] 5832 	mov	r5,a
      001B37 7C 00            [12] 5833 	mov	r4,#0x00
      001B39 C0 07            [24] 5834 	push	ar7
      001B3B C0 06            [24] 5835 	push	ar6
      001B3D C0 05            [24] 5836 	push	ar5
      001B3F C0 04            [24] 5837 	push	ar4
      001B41 74rC1            [12] 5838 	mov	a,#___str_54
      001B43 C0 E0            [24] 5839 	push	acc
      001B45 74s03            [12] 5840 	mov	a,#(___str_54 >> 8)
      001B47 C0 E0            [24] 5841 	push	acc
      001B49 74 80            [12] 5842 	mov	a,#0x80
      001B4B C0 E0            [24] 5843 	push	acc
      001B4D 12r00r00         [24] 5844 	lcall	_printf
      001B50 E5 81            [12] 5845 	mov	a,sp
      001B52 24 FB            [12] 5846 	add	a,#0xfb
      001B54 F5 81            [12] 5847 	mov	sp,a
      001B56 D0 06            [24] 5848 	pop	ar6
      001B58 D0 07            [24] 5849 	pop	ar7
                                   5850 ;	USBHost.c:768: DEBUG_OUT("  Interface Protocol %d\n", interface->bInterfaceProtocol);
      001B5A 74 07            [12] 5851 	mov	a,#0x07
      001B5C 2E               [12] 5852 	add	a,r6
      001B5D F5 82            [12] 5853 	mov	dpl,a
      001B5F E4               [12] 5854 	clr	a
      001B60 3F               [12] 5855 	addc	a,r7
      001B61 F5 83            [12] 5856 	mov	dph,a
      001B63 E0               [24] 5857 	movx	a,@dptr
      001B64 FF               [12] 5858 	mov	r7,a
      001B65 7E 00            [12] 5859 	mov	r6,#0x00
      001B67 C0 07            [24] 5860 	push	ar7
      001B69 C0 06            [24] 5861 	push	ar6
      001B6B 74rD1            [12] 5862 	mov	a,#___str_55
      001B6D C0 E0            [24] 5863 	push	acc
      001B6F 74s03            [12] 5864 	mov	a,#(___str_55 >> 8)
      001B71 C0 E0            [24] 5865 	push	acc
      001B73 74 80            [12] 5866 	mov	a,#0x80
      001B75 C0 E0            [24] 5867 	push	acc
      001B77 12r00r00         [24] 5868 	lcall	_printf
      001B7A E5 81            [12] 5869 	mov	a,sp
      001B7C 24 FB            [12] 5870 	add	a,#0xfb
      001B7E F5 81            [12] 5871 	mov	sp,a
                                   5872 ;	USBHost.c:769: }
      001B80 22               [24] 5873 	ret
                                   5874 ;------------------------------------------------------------
                                   5875 ;Allocation info for local variables in function 'readHIDInterface'
                                   5876 ;------------------------------------------------------------
                                   5877 ;descriptor                Allocated with name '_readHIDInterface_PARM_2'
                                   5878 ;interface                 Allocated with name '_readHIDInterface_interface_65536_154'
                                   5879 ;------------------------------------------------------------
                                   5880 ;	USBHost.c:771: void readHIDInterface(PXUSB_ITF_DESCR interface, PXUSB_HID_DESCR descriptor)
                                   5881 ;	-----------------------------------------
                                   5882 ;	 function readHIDInterface
                                   5883 ;	-----------------------------------------
      001B81                       5884 _readHIDInterface:
      001B81 AF 83            [24] 5885 	mov	r7,dph
      001B83 E5 82            [12] 5886 	mov	a,dpl
      001B85 90r02rAC         [24] 5887 	mov	dptr,#_readHIDInterface_interface_65536_154
      001B88 F0               [24] 5888 	movx	@dptr,a
      001B89 EF               [12] 5889 	mov	a,r7
      001B8A A3               [24] 5890 	inc	dptr
      001B8B F0               [24] 5891 	movx	@dptr,a
                                   5892 ;	USBHost.c:775: DEBUG_OUT("HID at Interface %d\n", interface->bInterfaceNumber);
      001B8C 90r02rAC         [24] 5893 	mov	dptr,#_readHIDInterface_interface_65536_154
      001B8F E0               [24] 5894 	movx	a,@dptr
      001B90 FE               [12] 5895 	mov	r6,a
      001B91 A3               [24] 5896 	inc	dptr
      001B92 E0               [24] 5897 	movx	a,@dptr
      001B93 FF               [12] 5898 	mov	r7,a
      001B94 8E 82            [24] 5899 	mov	dpl,r6
      001B96 8F 83            [24] 5900 	mov	dph,r7
      001B98 A3               [24] 5901 	inc	dptr
      001B99 A3               [24] 5902 	inc	dptr
      001B9A E0               [24] 5903 	movx	a,@dptr
      001B9B FF               [12] 5904 	mov	r7,a
      001B9C 7E 00            [12] 5905 	mov	r6,#0x00
      001B9E C0 07            [24] 5906 	push	ar7
      001BA0 C0 06            [24] 5907 	push	ar6
      001BA2 74rEA            [12] 5908 	mov	a,#___str_56
      001BA4 C0 E0            [24] 5909 	push	acc
      001BA6 74s03            [12] 5910 	mov	a,#(___str_56 >> 8)
      001BA8 C0 E0            [24] 5911 	push	acc
      001BAA 74 80            [12] 5912 	mov	a,#0x80
      001BAC C0 E0            [24] 5913 	push	acc
      001BAE 12r00r00         [24] 5914 	lcall	_printf
      001BB1 E5 81            [12] 5915 	mov	a,sp
      001BB3 24 FB            [12] 5916 	add	a,#0xfb
      001BB5 F5 81            [12] 5917 	mov	sp,a
                                   5918 ;	USBHost.c:776: DEBUG_OUT("  USB %d.%d%d\n", (descriptor->bcdHIDH & 15), (descriptor->bcdHIDL >> 4), (descriptor->bcdHIDL & 15));
      001BB7 90r02rAA         [24] 5919 	mov	dptr,#_readHIDInterface_PARM_2
      001BBA E0               [24] 5920 	movx	a,@dptr
      001BBB FE               [12] 5921 	mov	r6,a
      001BBC A3               [24] 5922 	inc	dptr
      001BBD E0               [24] 5923 	movx	a,@dptr
      001BBE FF               [12] 5924 	mov	r7,a
      001BBF 8E 82            [24] 5925 	mov	dpl,r6
      001BC1 8F 83            [24] 5926 	mov	dph,r7
      001BC3 A3               [24] 5927 	inc	dptr
      001BC4 A3               [24] 5928 	inc	dptr
      001BC5 E0               [24] 5929 	movx	a,@dptr
      001BC6 FD               [12] 5930 	mov	r5,a
      001BC7 FB               [12] 5931 	mov	r3,a
      001BC8 53 03 0F         [24] 5932 	anl	ar3,#0x0f
      001BCB 7C 00            [12] 5933 	mov	r4,#0x00
      001BCD ED               [12] 5934 	mov	a,r5
      001BCE C4               [12] 5935 	swap	a
      001BCF 54 0F            [12] 5936 	anl	a,#0x0f
      001BD1 FD               [12] 5937 	mov	r5,a
      001BD2 7A 00            [12] 5938 	mov	r2,#0x00
      001BD4 8E 82            [24] 5939 	mov	dpl,r6
      001BD6 8F 83            [24] 5940 	mov	dph,r7
      001BD8 A3               [24] 5941 	inc	dptr
      001BD9 A3               [24] 5942 	inc	dptr
      001BDA A3               [24] 5943 	inc	dptr
      001BDB E0               [24] 5944 	movx	a,@dptr
      001BDC F8               [12] 5945 	mov	r0,a
      001BDD 53 00 0F         [24] 5946 	anl	ar0,#0x0f
      001BE0 79 00            [12] 5947 	mov	r1,#0x00
      001BE2 C0 07            [24] 5948 	push	ar7
      001BE4 C0 06            [24] 5949 	push	ar6
      001BE6 C0 03            [24] 5950 	push	ar3
      001BE8 C0 04            [24] 5951 	push	ar4
      001BEA C0 05            [24] 5952 	push	ar5
      001BEC C0 02            [24] 5953 	push	ar2
      001BEE C0 00            [24] 5954 	push	ar0
      001BF0 C0 01            [24] 5955 	push	ar1
      001BF2 74rFF            [12] 5956 	mov	a,#___str_57
      001BF4 C0 E0            [24] 5957 	push	acc
      001BF6 74s03            [12] 5958 	mov	a,#(___str_57 >> 8)
      001BF8 C0 E0            [24] 5959 	push	acc
      001BFA 74 80            [12] 5960 	mov	a,#0x80
      001BFC C0 E0            [24] 5961 	push	acc
      001BFE 12r00r00         [24] 5962 	lcall	_printf
      001C01 E5 81            [12] 5963 	mov	a,sp
      001C03 24 F7            [12] 5964 	add	a,#0xf7
      001C05 F5 81            [12] 5965 	mov	sp,a
      001C07 D0 06            [24] 5966 	pop	ar6
      001C09 D0 07            [24] 5967 	pop	ar7
                                   5968 ;	USBHost.c:777: DEBUG_OUT("  Country code 0x%02X\n", descriptor->bCountryCode);
      001C0B 8E 82            [24] 5969 	mov	dpl,r6
      001C0D 8F 83            [24] 5970 	mov	dph,r7
      001C0F A3               [24] 5971 	inc	dptr
      001C10 A3               [24] 5972 	inc	dptr
      001C11 A3               [24] 5973 	inc	dptr
      001C12 A3               [24] 5974 	inc	dptr
      001C13 E0               [24] 5975 	movx	a,@dptr
      001C14 FD               [12] 5976 	mov	r5,a
      001C15 7C 00            [12] 5977 	mov	r4,#0x00
      001C17 C0 07            [24] 5978 	push	ar7
      001C19 C0 06            [24] 5979 	push	ar6
      001C1B C0 05            [24] 5980 	push	ar5
      001C1D C0 04            [24] 5981 	push	ar4
      001C1F 74r0E            [12] 5982 	mov	a,#___str_58
      001C21 C0 E0            [24] 5983 	push	acc
      001C23 74s04            [12] 5984 	mov	a,#(___str_58 >> 8)
      001C25 C0 E0            [24] 5985 	push	acc
      001C27 74 80            [12] 5986 	mov	a,#0x80
      001C29 C0 E0            [24] 5987 	push	acc
      001C2B 12r00r00         [24] 5988 	lcall	_printf
      001C2E E5 81            [12] 5989 	mov	a,sp
      001C30 24 FB            [12] 5990 	add	a,#0xfb
      001C32 F5 81            [12] 5991 	mov	sp,a
      001C34 D0 06            [24] 5992 	pop	ar6
      001C36 D0 07            [24] 5993 	pop	ar7
                                   5994 ;	USBHost.c:778: DEBUG_OUT("  TypeX 0x%02X\n", descriptor->bDescriptorTypeX);
      001C38 74 06            [12] 5995 	mov	a,#0x06
      001C3A 2E               [12] 5996 	add	a,r6
      001C3B F5 82            [12] 5997 	mov	dpl,a
      001C3D E4               [12] 5998 	clr	a
      001C3E 3F               [12] 5999 	addc	a,r7
      001C3F F5 83            [12] 6000 	mov	dph,a
      001C41 E0               [24] 6001 	movx	a,@dptr
      001C42 FF               [12] 6002 	mov	r7,a
      001C43 7E 00            [12] 6003 	mov	r6,#0x00
      001C45 C0 07            [24] 6004 	push	ar7
      001C47 C0 06            [24] 6005 	push	ar6
      001C49 74r25            [12] 6006 	mov	a,#___str_59
      001C4B C0 E0            [24] 6007 	push	acc
      001C4D 74s04            [12] 6008 	mov	a,#(___str_59 >> 8)
      001C4F C0 E0            [24] 6009 	push	acc
      001C51 74 80            [12] 6010 	mov	a,#0x80
      001C53 C0 E0            [24] 6011 	push	acc
      001C55 12r00r00         [24] 6012 	lcall	_printf
      001C58 E5 81            [12] 6013 	mov	a,sp
      001C5A 24 FB            [12] 6014 	add	a,#0xfb
      001C5C F5 81            [12] 6015 	mov	sp,a
                                   6016 ;	USBHost.c:779: }
      001C5E 22               [24] 6017 	ret
                                   6018 ;------------------------------------------------------------
                                   6019 ;Allocation info for local variables in function 'readEndpoint'
                                   6020 ;------------------------------------------------------------
                                   6021 ;	USBHost.c:781: void readEndpoint()
                                   6022 ;	-----------------------------------------
                                   6023 ;	 function readEndpoint
                                   6024 ;	-----------------------------------------
      001C5F                       6025 _readEndpoint:
                                   6026 ;	USBHost.c:783: }
      001C5F 22               [24] 6027 	ret
                                   6028 ;------------------------------------------------------------
                                   6029 ;Allocation info for local variables in function 'initializeRootHubConnection'
                                   6030 ;------------------------------------------------------------
                                   6031 ;sloc0                     Allocated with name '_initializeRootHubConnection_sloc0_1_0'
                                   6032 ;sloc1                     Allocated with name '_initializeRootHubConnection_sloc1_1_0'
                                   6033 ;sloc2                     Allocated with name '_initializeRootHubConnection_sloc2_1_0'
                                   6034 ;sloc3                     Allocated with name '_initializeRootHubConnection_sloc3_1_0'
                                   6035 ;sloc4                     Allocated with name '_initializeRootHubConnection_sloc4_1_0'
                                   6036 ;sloc5                     Allocated with name '_initializeRootHubConnection_sloc5_1_0'
                                   6037 ;sloc6                     Allocated with name '_initializeRootHubConnection_sloc6_1_0'
                                   6038 ;sloc7                     Allocated with name '_initializeRootHubConnection_sloc7_1_0'
                                   6039 ;sloc8                     Allocated with name '_initializeRootHubConnection_sloc8_1_0'
                                   6040 ;rootHubIndex              Allocated with name '_initializeRootHubConnection_rootHubIndex_65536_158'
                                   6041 ;retry                     Allocated with name '_initializeRootHubConnection_retry_65536_159'
                                   6042 ;i                         Allocated with name '_initializeRootHubConnection_i_65536_159'
                                   6043 ;s                         Allocated with name '_initializeRootHubConnection_s_65536_159'
                                   6044 ;cfg                       Allocated with name '_initializeRootHubConnection_cfg_65536_159'
                                   6045 ;dv_cls                    Allocated with name '_initializeRootHubConnection_dv_cls_65536_159'
                                   6046 ;addr                      Allocated with name '_initializeRootHubConnection_addr_65536_159'
                                   6047 ;HIDDevice                 Allocated with name '_initializeRootHubConnection_HIDDevice_65536_159'
                                   6048 ;i                         Allocated with name '_initializeRootHubConnection_i_458753_170'
                                   6049 ;total                     Allocated with name '_initializeRootHubConnection_total_458753_170'
                                   6050 ;temp                      Allocated with name '_initializeRootHubConnection_temp_458753_170'
                                   6051 ;currentInterface          Allocated with name '_initializeRootHubConnection_currentInterface_458753_170'
                                   6052 ;interfaces                Allocated with name '_initializeRootHubConnection_interfaces_458753_170'
                                   6053 ;desc                      Allocated with name '_initializeRootHubConnection_desc_524289_174'
                                   6054 ;d                         Allocated with name '_initializeRootHubConnection_d_655361_176'
                                   6055 ;hiddevice                 Allocated with name '_initializeRootHubConnection_hiddevice_720897_177'
                                   6056 ;------------------------------------------------------------
                                   6057 ;	USBHost.c:785: unsigned char initializeRootHubConnection(unsigned char rootHubIndex)
                                   6058 ;	-----------------------------------------
                                   6059 ;	 function initializeRootHubConnection
                                   6060 ;	-----------------------------------------
      001C60                       6061 _initializeRootHubConnection:
      001C60 E5 82            [12] 6062 	mov	a,dpl
      001C62 90r02rAE         [24] 6063 	mov	dptr,#_initializeRootHubConnection_rootHubIndex_65536_158
      001C65 F0               [24] 6064 	movx	@dptr,a
                                   6065 ;	USBHost.c:787: unsigned char retry, i, s = ERR_SUCCESS, cfg, dv_cls, addr;
      001C66 90r02rAF         [24] 6066 	mov	dptr,#_initializeRootHubConnection_s_65536_159
      001C69 E4               [12] 6067 	clr	a
      001C6A F0               [24] 6068 	movx	@dptr,a
                                   6069 ;	USBHost.c:790: for(retry = 0; retry < 10; retry++) //todo test fewer retries
      001C6B 90r02rAE         [24] 6070 	mov	dptr,#_initializeRootHubConnection_rootHubIndex_65536_158
      001C6E E0               [24] 6071 	movx	a,@dptr
      001C6F FF               [12] 6072 	mov	r7,a
      001C70 FE               [12] 6073 	mov	r6,a
      001C71 FD               [12] 6074 	mov	r5,a
      001C72 75 F0 03         [24] 6075 	mov	b,#0x03
      001C75 A4               [48] 6076 	mul	ab
      001C76 F5*22            [12] 6077 	mov	_initializeRootHubConnection_sloc0_1_0,a
      001C78 85 F0*23         [24] 6078 	mov	(_initializeRootHubConnection_sloc0_1_0 + 1),b
      001C7B 8F*27            [24] 6079 	mov	_initializeRootHubConnection_sloc3_1_0,r7
      001C7D 75*26 00         [24] 6080 	mov	_initializeRootHubConnection_sloc2_1_0,#0x00
      001C80                       6081 00147$:
                                   6082 ;	USBHost.c:792: delay( 100 );
      001C80 90 00 64         [24] 6083 	mov	dptr,#0x0064
      001C83 C0 07            [24] 6084 	push	ar7
      001C85 C0 06            [24] 6085 	push	ar6
      001C87 C0 05            [24] 6086 	push	ar5
      001C89 12r00r00         [24] 6087 	lcall	_delay
                                   6088 ;	USBHost.c:793: delay(100); //todo test lower delay
      001C8C 90 00 64         [24] 6089 	mov	dptr,#0x0064
      001C8F 12r00r00         [24] 6090 	lcall	_delay
                                   6091 ;	USBHost.c:794: resetHubDevices(rootHubIndex);
      001C92 85*27 82         [24] 6092 	mov	dpl,_initializeRootHubConnection_sloc3_1_0
      001C95 12r0Br8F         [24] 6093 	lcall	_resetHubDevices
                                   6094 ;	USBHost.c:795: resetRootHubPort(rootHubIndex);                      
      001C98 85*27 82         [24] 6095 	mov	dpl,_initializeRootHubConnection_sloc3_1_0
      001C9B 12r00r94         [24] 6096 	lcall	_resetRootHubPort
      001C9E D0 05            [24] 6097 	pop	ar5
      001CA0 D0 06            [24] 6098 	pop	ar6
      001CA2 D0 07            [24] 6099 	pop	ar7
                                   6100 ;	USBHost.c:796: for (i = 0; i < 100; i++) //todo test fewer retries
      001CA4 78 00            [12] 6101 	mov	r0,#0x00
      001CA6                       6102 00137$:
                                   6103 ;	USBHost.c:798: delay(1);
      001CA6 90 00 01         [24] 6104 	mov	dptr,#0x0001
      001CA9 C0 07            [24] 6105 	push	ar7
      001CAB C0 06            [24] 6106 	push	ar6
      001CAD C0 05            [24] 6107 	push	ar5
      001CAF C0 00            [24] 6108 	push	ar0
      001CB1 12r00r00         [24] 6109 	lcall	_delay
      001CB4 D0 00            [24] 6110 	pop	ar0
      001CB6 D0 05            [24] 6111 	pop	ar5
      001CB8 D0 06            [24] 6112 	pop	ar6
      001CBA D0 07            [24] 6113 	pop	ar7
                                   6114 ;	USBHost.c:799: if (enableRootHubPort(rootHubIndex) == ERR_SUCCESS)  
      001CBC 8F 82            [24] 6115 	mov	dpl,r7
      001CBE C0 07            [24] 6116 	push	ar7
      001CC0 C0 06            [24] 6117 	push	ar6
      001CC2 C0 05            [24] 6118 	push	ar5
      001CC4 C0 00            [24] 6119 	push	ar0
      001CC6 12r00rE4         [24] 6120 	lcall	_enableRootHubPort
      001CC9 E5 82            [12] 6121 	mov	a,dpl
      001CCB D0 00            [24] 6122 	pop	ar0
      001CCD D0 05            [24] 6123 	pop	ar5
      001CCF D0 06            [24] 6124 	pop	ar6
      001CD1 D0 07            [24] 6125 	pop	ar7
      001CD3 60 06            [24] 6126 	jz	00103$
                                   6127 ;	USBHost.c:796: for (i = 0; i < 100; i++) //todo test fewer retries
      001CD5 08               [12] 6128 	inc	r0
      001CD6 B8 64 00         [24] 6129 	cjne	r0,#0x64,00255$
      001CD9                       6130 00255$:
      001CD9 40 CB            [24] 6131 	jc	00137$
      001CDB                       6132 00103$:
                                   6133 ;	USBHost.c:802: if (i == 100)                                              
      001CDB B8 64 41         [24] 6134 	cjne	r0,#0x64,00105$
                                   6135 ;	USBHost.c:804: disableRootHubPort(rootHubIndex);
      001CDE C0 05            [24] 6136 	push	ar5
      001CE0 8F 82            [24] 6137 	mov	dpl,r7
      001CE2 C0 07            [24] 6138 	push	ar7
      001CE4 C0 06            [24] 6139 	push	ar6
      001CE6 C0 05            [24] 6140 	push	ar5
      001CE8 12r00r00         [24] 6141 	lcall	_disableRootHubPort
      001CEB D0 05            [24] 6142 	pop	ar5
      001CED D0 06            [24] 6143 	pop	ar6
      001CEF D0 07            [24] 6144 	pop	ar7
                                   6145 ;	USBHost.c:805: DEBUG_OUT("Failed to enable root hub port %i\n", rootHubIndex);
      001CF1 8F 00            [24] 6146 	mov	ar0,r7
      001CF3 7D 00            [12] 6147 	mov	r5,#0x00
      001CF5 C0 07            [24] 6148 	push	ar7
      001CF7 C0 06            [24] 6149 	push	ar6
      001CF9 C0 05            [24] 6150 	push	ar5
      001CFB C0 00            [24] 6151 	push	ar0
      001CFD C0 05            [24] 6152 	push	ar5
      001CFF 74r35            [12] 6153 	mov	a,#___str_60
      001D01 C0 E0            [24] 6154 	push	acc
      001D03 74s04            [12] 6155 	mov	a,#(___str_60 >> 8)
      001D05 C0 E0            [24] 6156 	push	acc
      001D07 74 80            [12] 6157 	mov	a,#0x80
      001D09 C0 E0            [24] 6158 	push	acc
      001D0B 12r00r00         [24] 6159 	lcall	_printf
      001D0E E5 81            [12] 6160 	mov	a,sp
      001D10 24 FB            [12] 6161 	add	a,#0xfb
      001D12 F5 81            [12] 6162 	mov	sp,a
      001D14 D0 05            [24] 6163 	pop	ar5
      001D16 D0 06            [24] 6164 	pop	ar6
      001D18 D0 07            [24] 6165 	pop	ar7
                                   6166 ;	USBHost.c:806: continue;
      001D1A D0 05            [24] 6167 	pop	ar5
      001D1C 02r23r97         [24] 6168 	ljmp	00135$
      001D1F                       6169 00105$:
                                   6170 ;	USBHost.c:809: selectHubPort(rootHubIndex, 0);
      001D1F C0 05            [24] 6171 	push	ar5
      001D21 90r02r0C         [24] 6172 	mov	dptr,#_selectHubPort_PARM_2
      001D24 E4               [12] 6173 	clr	a
      001D25 F0               [24] 6174 	movx	@dptr,a
      001D26 8E 82            [24] 6175 	mov	dpl,r6
      001D28 C0 07            [24] 6176 	push	ar7
      001D2A C0 06            [24] 6177 	push	ar6
      001D2C C0 05            [24] 6178 	push	ar5
      001D2E 12r01rA6         [24] 6179 	lcall	_selectHubPort
      001D31 D0 05            [24] 6180 	pop	ar5
      001D33 D0 06            [24] 6181 	pop	ar6
                                   6182 ;	USBHost.c:810: DEBUG_OUT("root hub port %i enabled\n", rootHubIndex);
      001D35 8E 00            [24] 6183 	mov	ar0,r6
      001D37 7D 00            [12] 6184 	mov	r5,#0x00
      001D39 C0 06            [24] 6185 	push	ar6
      001D3B C0 05            [24] 6186 	push	ar5
      001D3D C0 00            [24] 6187 	push	ar0
      001D3F C0 05            [24] 6188 	push	ar5
      001D41 74r58            [12] 6189 	mov	a,#___str_61
      001D43 C0 E0            [24] 6190 	push	acc
      001D45 74s04            [12] 6191 	mov	a,#(___str_61 >> 8)
      001D47 C0 E0            [24] 6192 	push	acc
      001D49 74 80            [12] 6193 	mov	a,#0x80
      001D4B C0 E0            [24] 6194 	push	acc
      001D4D 12r00r00         [24] 6195 	lcall	_printf
      001D50 E5 81            [12] 6196 	mov	a,sp
      001D52 24 FB            [12] 6197 	add	a,#0xfb
      001D54 F5 81            [12] 6198 	mov	sp,a
      001D56 D0 05            [24] 6199 	pop	ar5
                                   6200 ;	USBHost.c:811: s = getDeviceDescriptor();
      001D58 12r07rE1         [24] 6201 	lcall	_getDeviceDescriptor
      001D5B AD 82            [24] 6202 	mov	r5,dpl
      001D5D D0 06            [24] 6203 	pop	ar6
      001D5F D0 07            [24] 6204 	pop	ar7
      001D61 90r02rAF         [24] 6205 	mov	dptr,#_initializeRootHubConnection_s_65536_159
      001D64 ED               [12] 6206 	mov	a,r5
      001D65 F0               [24] 6207 	movx	@dptr,a
                                   6208 ;	USBHost.c:813: if ( s == ERR_SUCCESS )
      001D66 ED               [12] 6209 	mov	a,r5
      001D67 D0 05            [24] 6210 	pop	ar5
      001D69 60 03            [24] 6211 	jz	00259$
      001D6B 02r23r26         [24] 6212 	ljmp	00134$
      001D6E                       6213 00259$:
                                   6214 ;	USBHost.c:815: dv_cls = ((PXUSB_DEV_DESCR)receiveDataBuffer)->bDeviceClass;
      001D6E C0 05            [24] 6215 	push	ar5
      001D70 90r00r05         [24] 6216 	mov	dptr,#(_receiveDataBuffer + 0x0004)
      001D73 E0               [24] 6217 	movx	a,@dptr
      001D74 F8               [12] 6218 	mov	r0,a
                                   6219 ;	USBHost.c:816: DEBUG_OUT( "Device class %i\n", dv_cls);
      001D75 7D 00            [12] 6220 	mov	r5,#0x00
      001D77 C0 07            [24] 6221 	push	ar7
      001D79 C0 06            [24] 6222 	push	ar6
      001D7B C0 05            [24] 6223 	push	ar5
      001D7D C0 00            [24] 6224 	push	ar0
      001D7F C0 05            [24] 6225 	push	ar5
      001D81 74r72            [12] 6226 	mov	a,#___str_62
      001D83 C0 E0            [24] 6227 	push	acc
      001D85 74s04            [12] 6228 	mov	a,#(___str_62 >> 8)
      001D87 C0 E0            [24] 6229 	push	acc
      001D89 74 80            [12] 6230 	mov	a,#0x80
      001D8B C0 E0            [24] 6231 	push	acc
      001D8D 12r00r00         [24] 6232 	lcall	_printf
      001D90 E5 81            [12] 6233 	mov	a,sp
      001D92 24 FB            [12] 6234 	add	a,#0xfb
      001D94 F5 81            [12] 6235 	mov	sp,a
      001D96 D0 05            [24] 6236 	pop	ar5
                                   6237 ;	USBHost.c:817: DEBUG_OUT( "Max packet size %i\n", ((PXUSB_DEV_DESCR)receiveDataBuffer)->bMaxPacketSize0);
      001D98 90r00r08         [24] 6238 	mov	dptr,#(_receiveDataBuffer + 0x0007)
      001D9B E0               [24] 6239 	movx	a,@dptr
      001D9C F8               [12] 6240 	mov	r0,a
      001D9D 7D 00            [12] 6241 	mov	r5,#0x00
      001D9F C0 05            [24] 6242 	push	ar5
      001DA1 C0 00            [24] 6243 	push	ar0
      001DA3 C0 05            [24] 6244 	push	ar5
      001DA5 74r83            [12] 6245 	mov	a,#___str_63
      001DA7 C0 E0            [24] 6246 	push	acc
      001DA9 74s04            [12] 6247 	mov	a,#(___str_63 >> 8)
      001DAB C0 E0            [24] 6248 	push	acc
      001DAD 74 80            [12] 6249 	mov	a,#0x80
      001DAF C0 E0            [24] 6250 	push	acc
      001DB1 12r00r00         [24] 6251 	lcall	_printf
      001DB4 E5 81            [12] 6252 	mov	a,sp
      001DB6 24 FB            [12] 6253 	add	a,#0xfb
      001DB8 F5 81            [12] 6254 	mov	sp,a
      001DBA D0 05            [24] 6255 	pop	ar5
      001DBC D0 06            [24] 6256 	pop	ar6
                                   6257 ;	USBHost.c:818: VendorProductID[rootHubIndex].idVendorL = ((PXUSB_DEV_DESCR)receiveDataBuffer)->idVendorL;
      001DBE EE               [12] 6258 	mov	a,r6
      001DBF 75 F0 10         [24] 6259 	mov	b,#0x10
      001DC2 A4               [48] 6260 	mul	ab
      001DC3 F8               [12] 6261 	mov	r0,a
      001DC4 AD F0            [24] 6262 	mov	r5,b
      001DC6 24r74            [12] 6263 	add	a,#_VendorProductID
      001DC8 F5*24            [12] 6264 	mov	_initializeRootHubConnection_sloc1_1_0,a
      001DCA ED               [12] 6265 	mov	a,r5
      001DCB 34s02            [12] 6266 	addc	a,#(_VendorProductID >> 8)
      001DCD F5*25            [12] 6267 	mov	(_initializeRootHubConnection_sloc1_1_0 + 1),a
      001DCF 90r00r09         [24] 6268 	mov	dptr,#(_receiveDataBuffer + 0x0008)
      001DD2 E0               [24] 6269 	movx	a,@dptr
      001DD3 F9               [12] 6270 	mov	r1,a
      001DD4 7A 00            [12] 6271 	mov	r2,#0x00
      001DD6 7B 00            [12] 6272 	mov	r3,#0x00
      001DD8 7C 00            [12] 6273 	mov	r4,#0x00
      001DDA 85*24 82         [24] 6274 	mov	dpl,_initializeRootHubConnection_sloc1_1_0
      001DDD 85*25 83         [24] 6275 	mov	dph,(_initializeRootHubConnection_sloc1_1_0 + 1)
      001DE0 E9               [12] 6276 	mov	a,r1
      001DE1 F0               [24] 6277 	movx	@dptr,a
      001DE2 EA               [12] 6278 	mov	a,r2
      001DE3 A3               [24] 6279 	inc	dptr
      001DE4 F0               [24] 6280 	movx	@dptr,a
      001DE5 EB               [12] 6281 	mov	a,r3
      001DE6 A3               [24] 6282 	inc	dptr
      001DE7 F0               [24] 6283 	movx	@dptr,a
      001DE8 EC               [12] 6284 	mov	a,r4
      001DE9 A3               [24] 6285 	inc	dptr
      001DEA F0               [24] 6286 	movx	@dptr,a
                                   6287 ;	USBHost.c:819: VendorProductID[rootHubIndex].idVendorH = ((PXUSB_DEV_DESCR)receiveDataBuffer)->idVendorH;
      001DEB E8               [12] 6288 	mov	a,r0
      001DEC 24r74            [12] 6289 	add	a,#_VendorProductID
      001DEE F8               [12] 6290 	mov	r0,a
      001DEF ED               [12] 6291 	mov	a,r5
      001DF0 34s02            [12] 6292 	addc	a,#(_VendorProductID >> 8)
      001DF2 FD               [12] 6293 	mov	r5,a
      001DF3 74 04            [12] 6294 	mov	a,#0x04
      001DF5 28               [12] 6295 	add	a,r0
      001DF6 F5*24            [12] 6296 	mov	_initializeRootHubConnection_sloc1_1_0,a
      001DF8 E4               [12] 6297 	clr	a
      001DF9 3D               [12] 6298 	addc	a,r5
      001DFA F5*25            [12] 6299 	mov	(_initializeRootHubConnection_sloc1_1_0 + 1),a
      001DFC 90r00r0A         [24] 6300 	mov	dptr,#(_receiveDataBuffer + 0x0009)
      001DFF E0               [24] 6301 	movx	a,@dptr
      001E00 F9               [12] 6302 	mov	r1,a
      001E01 7A 00            [12] 6303 	mov	r2,#0x00
      001E03 7B 00            [12] 6304 	mov	r3,#0x00
      001E05 7C 00            [12] 6305 	mov	r4,#0x00
      001E07 85*24 82         [24] 6306 	mov	dpl,_initializeRootHubConnection_sloc1_1_0
      001E0A 85*25 83         [24] 6307 	mov	dph,(_initializeRootHubConnection_sloc1_1_0 + 1)
      001E0D E9               [12] 6308 	mov	a,r1
      001E0E F0               [24] 6309 	movx	@dptr,a
      001E0F EA               [12] 6310 	mov	a,r2
      001E10 A3               [24] 6311 	inc	dptr
      001E11 F0               [24] 6312 	movx	@dptr,a
      001E12 EB               [12] 6313 	mov	a,r3
      001E13 A3               [24] 6314 	inc	dptr
      001E14 F0               [24] 6315 	movx	@dptr,a
      001E15 EC               [12] 6316 	mov	a,r4
      001E16 A3               [24] 6317 	inc	dptr
      001E17 F0               [24] 6318 	movx	@dptr,a
                                   6319 ;	USBHost.c:820: VendorProductID[rootHubIndex].idProductL = ((PXUSB_DEV_DESCR)receiveDataBuffer)->idProductL;
      001E18 74 08            [12] 6320 	mov	a,#0x08
      001E1A 28               [12] 6321 	add	a,r0
      001E1B F5*24            [12] 6322 	mov	_initializeRootHubConnection_sloc1_1_0,a
      001E1D E4               [12] 6323 	clr	a
      001E1E 3D               [12] 6324 	addc	a,r5
      001E1F F5*25            [12] 6325 	mov	(_initializeRootHubConnection_sloc1_1_0 + 1),a
      001E21 90r00r0B         [24] 6326 	mov	dptr,#(_receiveDataBuffer + 0x000a)
      001E24 E0               [24] 6327 	movx	a,@dptr
      001E25 F9               [12] 6328 	mov	r1,a
      001E26 7A 00            [12] 6329 	mov	r2,#0x00
      001E28 7B 00            [12] 6330 	mov	r3,#0x00
      001E2A 7C 00            [12] 6331 	mov	r4,#0x00
      001E2C 85*24 82         [24] 6332 	mov	dpl,_initializeRootHubConnection_sloc1_1_0
      001E2F 85*25 83         [24] 6333 	mov	dph,(_initializeRootHubConnection_sloc1_1_0 + 1)
      001E32 E9               [12] 6334 	mov	a,r1
      001E33 F0               [24] 6335 	movx	@dptr,a
      001E34 EA               [12] 6336 	mov	a,r2
      001E35 A3               [24] 6337 	inc	dptr
      001E36 F0               [24] 6338 	movx	@dptr,a
      001E37 EB               [12] 6339 	mov	a,r3
      001E38 A3               [24] 6340 	inc	dptr
      001E39 F0               [24] 6341 	movx	@dptr,a
      001E3A EC               [12] 6342 	mov	a,r4
      001E3B A3               [24] 6343 	inc	dptr
      001E3C F0               [24] 6344 	movx	@dptr,a
                                   6345 ;	USBHost.c:821: VendorProductID[rootHubIndex].idProductH = ((PXUSB_DEV_DESCR)receiveDataBuffer)->idProductH;
      001E3D 74 0C            [12] 6346 	mov	a,#0x0c
      001E3F 28               [12] 6347 	add	a,r0
      001E40 F8               [12] 6348 	mov	r0,a
      001E41 E4               [12] 6349 	clr	a
      001E42 3D               [12] 6350 	addc	a,r5
      001E43 FD               [12] 6351 	mov	r5,a
      001E44 90r00r0C         [24] 6352 	mov	dptr,#(_receiveDataBuffer + 0x000b)
      001E47 E0               [24] 6353 	movx	a,@dptr
      001E48 F9               [12] 6354 	mov	r1,a
      001E49 7A 00            [12] 6355 	mov	r2,#0x00
      001E4B 7B 00            [12] 6356 	mov	r3,#0x00
      001E4D 7C 00            [12] 6357 	mov	r4,#0x00
      001E4F 88 82            [24] 6358 	mov	dpl,r0
      001E51 8D 83            [24] 6359 	mov	dph,r5
      001E53 E9               [12] 6360 	mov	a,r1
      001E54 F0               [24] 6361 	movx	@dptr,a
      001E55 EA               [12] 6362 	mov	a,r2
      001E56 A3               [24] 6363 	inc	dptr
      001E57 F0               [24] 6364 	movx	@dptr,a
      001E58 EB               [12] 6365 	mov	a,r3
      001E59 A3               [24] 6366 	inc	dptr
      001E5A F0               [24] 6367 	movx	@dptr,a
      001E5B EC               [12] 6368 	mov	a,r4
      001E5C A3               [24] 6369 	inc	dptr
      001E5D F0               [24] 6370 	movx	@dptr,a
                                   6371 ;	USBHost.c:822: DEBUG_OUT_USB_BUFFER(receiveDataBuffer);
      001E5E 90r00r01         [24] 6372 	mov	dptr,#_receiveDataBuffer
      001E61 C0 06            [24] 6373 	push	ar6
      001E63 C0 05            [24] 6374 	push	ar5
      001E65 12r0Ar43         [24] 6375 	lcall	_DEBUG_OUT_USB_BUFFER
      001E68 D0 05            [24] 6376 	pop	ar5
      001E6A D0 06            [24] 6377 	pop	ar6
                                   6378 ;	USBHost.c:823: addr = rootHubIndex + ((PUSB_SETUP_REQ)SetUSBAddressRequest)->wValueL; //todo wValue always 2.. does another id work?
      001E6C 90r00r1A         [24] 6379 	mov	dptr,#(_SetUSBAddressRequest + 0x0002)
      001E6F E4               [12] 6380 	clr	a
      001E70 93               [24] 6381 	movc	a,@a+dptr
      001E71 2E               [12] 6382 	add	a,r6
      001E72 F5*24            [12] 6383 	mov	_initializeRootHubConnection_sloc1_1_0,a
                                   6384 ;	USBHost.c:824: s = setUsbAddress(addr);
      001E74 85*24 82         [24] 6385 	mov	dpl,_initializeRootHubConnection_sloc1_1_0
      001E77 C0 06            [24] 6386 	push	ar6
      001E79 12r08r7C         [24] 6387 	lcall	_setUsbAddress
      001E7C AD 82            [24] 6388 	mov	r5,dpl
      001E7E D0 06            [24] 6389 	pop	ar6
      001E80 D0 07            [24] 6390 	pop	ar7
      001E82 90r02rAF         [24] 6391 	mov	dptr,#_initializeRootHubConnection_s_65536_159
      001E85 ED               [12] 6392 	mov	a,r5
      001E86 F0               [24] 6393 	movx	@dptr,a
                                   6394 ;	USBHost.c:825: if ( s == ERR_SUCCESS )
      001E87 ED               [12] 6395 	mov	a,r5
      001E88 D0 05            [24] 6396 	pop	ar5
      001E8A 60 03            [24] 6397 	jz	00260$
      001E8C 02r23r26         [24] 6398 	ljmp	00134$
      001E8F                       6399 00260$:
                                   6400 ;	USBHost.c:827: rootHubDevice[rootHubIndex].address = addr;
      001E8F EE               [12] 6401 	mov	a,r6
      001E90 75 F0 03         [24] 6402 	mov	b,#0x03
      001E93 A4               [48] 6403 	mul	ab
      001E94 24r01            [12] 6404 	add	a,#_rootHubDevice
      001E96 FB               [12] 6405 	mov	r3,a
      001E97 74s02            [12] 6406 	mov	a,#(_rootHubDevice >> 8)
      001E99 35 F0            [12] 6407 	addc	a,b
      001E9B FC               [12] 6408 	mov	r4,a
      001E9C 8B 82            [24] 6409 	mov	dpl,r3
      001E9E 8C 83            [24] 6410 	mov	dph,r4
      001EA0 A3               [24] 6411 	inc	dptr
      001EA1 E5*24            [12] 6412 	mov	a,_initializeRootHubConnection_sloc1_1_0
      001EA3 F0               [24] 6413 	movx	@dptr,a
                                   6414 ;	USBHost.c:828: s = getDeviceString();
      001EA4 C0 07            [24] 6415 	push	ar7
      001EA6 C0 06            [24] 6416 	push	ar6
      001EA8 C0 05            [24] 6417 	push	ar5
      001EAA 12r09r17         [24] 6418 	lcall	_getDeviceString
                                   6419 ;	USBHost.c:830: DEBUG_OUT_USB_BUFFER(receiveDataBuffer);
      001EAD 90r00r01         [24] 6420 	mov	dptr,#_receiveDataBuffer
      001EB0 12r0Ar43         [24] 6421 	lcall	_DEBUG_OUT_USB_BUFFER
      001EB3 D0 05            [24] 6422 	pop	ar5
      001EB5 D0 06            [24] 6423 	pop	ar6
                                   6424 ;	USBHost.c:831: if(convertStringDescriptor(receiveDataBuffer, receiveDataBuffer, RECEIVE_BUFFER_LEN,rootHubIndex))
      001EB7 90r02r27         [24] 6425 	mov	dptr,#_convertStringDescriptor_PARM_2
      001EBA 74r01            [12] 6426 	mov	a,#_receiveDataBuffer
      001EBC F0               [24] 6427 	movx	@dptr,a
      001EBD 74s00            [12] 6428 	mov	a,#(_receiveDataBuffer >> 8)
      001EBF A3               [24] 6429 	inc	dptr
      001EC0 F0               [24] 6430 	movx	@dptr,a
      001EC1 90r02r29         [24] 6431 	mov	dptr,#_convertStringDescriptor_PARM_3
      001EC4 E4               [12] 6432 	clr	a
      001EC5 F0               [24] 6433 	movx	@dptr,a
      001EC6 74 02            [12] 6434 	mov	a,#0x02
      001EC8 A3               [24] 6435 	inc	dptr
      001EC9 F0               [24] 6436 	movx	@dptr,a
      001ECA 90r02r2B         [24] 6437 	mov	dptr,#_convertStringDescriptor_PARM_4
      001ECD EE               [12] 6438 	mov	a,r6
      001ECE F0               [24] 6439 	movx	@dptr,a
      001ECF 90r00r01         [24] 6440 	mov	dptr,#_receiveDataBuffer
      001ED2 C0 06            [24] 6441 	push	ar6
      001ED4 C0 05            [24] 6442 	push	ar5
      001ED6 12r09r3A         [24] 6443 	lcall	_convertStringDescriptor
      001ED9 E5 82            [12] 6444 	mov	a,dpl
      001EDB D0 05            [24] 6445 	pop	ar5
      001EDD D0 06            [24] 6446 	pop	ar6
      001EDF D0 07            [24] 6447 	pop	ar7
      001EE1 60 2C            [24] 6448 	jz	00107$
                                   6449 ;	USBHost.c:833: DEBUG_OUT("Device String: %s\n", receiveDataBuffer);
      001EE3 C0 07            [24] 6450 	push	ar7
      001EE5 C0 06            [24] 6451 	push	ar6
      001EE7 C0 05            [24] 6452 	push	ar5
      001EE9 74r01            [12] 6453 	mov	a,#_receiveDataBuffer
      001EEB C0 E0            [24] 6454 	push	acc
      001EED 74s00            [12] 6455 	mov	a,#(_receiveDataBuffer >> 8)
      001EEF C0 E0            [24] 6456 	push	acc
      001EF1 E4               [12] 6457 	clr	a
      001EF2 C0 E0            [24] 6458 	push	acc
      001EF4 74r97            [12] 6459 	mov	a,#___str_64
      001EF6 C0 E0            [24] 6460 	push	acc
      001EF8 74s04            [12] 6461 	mov	a,#(___str_64 >> 8)
      001EFA C0 E0            [24] 6462 	push	acc
      001EFC 74 80            [12] 6463 	mov	a,#0x80
      001EFE C0 E0            [24] 6464 	push	acc
      001F00 12r00r00         [24] 6465 	lcall	_printf
      001F03 E5 81            [12] 6466 	mov	a,sp
      001F05 24 FA            [12] 6467 	add	a,#0xfa
      001F07 F5 81            [12] 6468 	mov	sp,a
      001F09 D0 05            [24] 6469 	pop	ar5
      001F0B D0 06            [24] 6470 	pop	ar6
      001F0D D0 07            [24] 6471 	pop	ar7
      001F0F                       6472 00107$:
                                   6473 ;	USBHost.c:835: s = getConfigurationDescriptor();
      001F0F C0 07            [24] 6474 	push	ar7
      001F11 C0 06            [24] 6475 	push	ar6
      001F13 C0 05            [24] 6476 	push	ar5
      001F15 12r0ArC3         [24] 6477 	lcall	_getConfigurationDescriptor
      001F18 AC 82            [24] 6478 	mov	r4,dpl
      001F1A D0 05            [24] 6479 	pop	ar5
      001F1C D0 06            [24] 6480 	pop	ar6
      001F1E D0 07            [24] 6481 	pop	ar7
      001F20 90r02rAF         [24] 6482 	mov	dptr,#_initializeRootHubConnection_s_65536_159
      001F23 EC               [12] 6483 	mov	a,r4
      001F24 F0               [24] 6484 	movx	@dptr,a
                                   6485 ;	USBHost.c:836: if ( s == ERR_SUCCESS )
      001F25 EC               [12] 6486 	mov	a,r4
      001F26 60 03            [24] 6487 	jz	00262$
      001F28 02r23r26         [24] 6488 	ljmp	00134$
      001F2B                       6489 00262$:
                                   6490 ;	USBHost.c:838: sendProtocolMSG(MSG_TYPE_DEVICE_INFO, (receiveDataBuffer[2] + (receiveDataBuffer[3] << 8)), addr, rootHubIndex+1, 0xAA, receiveDataBuffer);
      001F2B 90r00r03         [24] 6491 	mov	dptr,#(_receiveDataBuffer + 0x0002)
      001F2E E0               [24] 6492 	movx	a,@dptr
      001F2F FC               [12] 6493 	mov	r4,a
      001F30 7B 00            [12] 6494 	mov	r3,#0x00
      001F32 90r00r04         [24] 6495 	mov	dptr,#(_receiveDataBuffer + 0x0003)
      001F35 E0               [24] 6496 	movx	a,@dptr
      001F36 FA               [12] 6497 	mov	r2,a
      001F37 E4               [12] 6498 	clr	a
      001F38 2C               [12] 6499 	add	a,r4
      001F39 FC               [12] 6500 	mov	r4,a
      001F3A EA               [12] 6501 	mov	a,r2
      001F3B 3B               [12] 6502 	addc	a,r3
      001F3C FB               [12] 6503 	mov	r3,a
      001F3D 90r02rAE         [24] 6504 	mov	dptr,#_initializeRootHubConnection_rootHubIndex_65536_158
      001F40 E0               [24] 6505 	movx	a,@dptr
      001F41 FA               [12] 6506 	mov	r2,a
      001F42 0A               [12] 6507 	inc	r2
      001F43 90r00r00         [24] 6508 	mov	dptr,#_sendProtocolMSG_PARM_2
      001F46 EC               [12] 6509 	mov	a,r4
      001F47 F0               [24] 6510 	movx	@dptr,a
      001F48 EB               [12] 6511 	mov	a,r3
      001F49 A3               [24] 6512 	inc	dptr
      001F4A F0               [24] 6513 	movx	@dptr,a
      001F4B 90r00r00         [24] 6514 	mov	dptr,#_sendProtocolMSG_PARM_3
      001F4E E5*24            [12] 6515 	mov	a,_initializeRootHubConnection_sloc1_1_0
      001F50 F0               [24] 6516 	movx	@dptr,a
      001F51 90r00r00         [24] 6517 	mov	dptr,#_sendProtocolMSG_PARM_4
      001F54 EA               [12] 6518 	mov	a,r2
      001F55 F0               [24] 6519 	movx	@dptr,a
      001F56 90r00r00         [24] 6520 	mov	dptr,#_sendProtocolMSG_PARM_5
      001F59 74 AA            [12] 6521 	mov	a,#0xaa
      001F5B F0               [24] 6522 	movx	@dptr,a
      001F5C 90r00r00         [24] 6523 	mov	dptr,#_sendProtocolMSG_PARM_6
      001F5F 74r01            [12] 6524 	mov	a,#_receiveDataBuffer
      001F61 F0               [24] 6525 	movx	@dptr,a
      001F62 74s00            [12] 6526 	mov	a,#(_receiveDataBuffer >> 8)
      001F64 A3               [24] 6527 	inc	dptr
      001F65 F0               [24] 6528 	movx	@dptr,a
      001F66 75 82 06         [24] 6529 	mov	dpl,#0x06
      001F69 12r00r00         [24] 6530 	lcall	_sendProtocolMSG
                                   6531 ;	USBHost.c:841: PXUSB_ITF_DESCR currentInterface = 0;
      001F6C 90r04rB2         [24] 6532 	mov	dptr,#_initializeRootHubConnection_currentInterface_458753_170
      001F6F E4               [12] 6533 	clr	a
      001F70 F0               [24] 6534 	movx	@dptr,a
      001F71 A3               [24] 6535 	inc	dptr
      001F72 F0               [24] 6536 	movx	@dptr,a
                                   6537 ;	USBHost.c:844: for(i = 0; i < receiveDataBuffer[2] + (receiveDataBuffer[3] << 8); i++)
      001F73 7B 00            [12] 6538 	mov	r3,#0x00
      001F75 7C 00            [12] 6539 	mov	r4,#0x00
      001F77                       6540 00140$:
      001F77 90r00r03         [24] 6541 	mov	dptr,#(_receiveDataBuffer + 0x0002)
      001F7A E0               [24] 6542 	movx	a,@dptr
      001F7B FA               [12] 6543 	mov	r2,a
      001F7C 8A*24            [24] 6544 	mov	_initializeRootHubConnection_sloc1_1_0,r2
      001F7E 75*25 00         [24] 6545 	mov	(_initializeRootHubConnection_sloc1_1_0 + 1),#0x00
      001F81 90r00r04         [24] 6546 	mov	dptr,#(_receiveDataBuffer + 0x0003)
      001F84 E0               [24] 6547 	movx	a,@dptr
      001F85 FA               [12] 6548 	mov	r2,a
      001F86 E4               [12] 6549 	clr	a
      001F87 25*24            [12] 6550 	add	a,_initializeRootHubConnection_sloc1_1_0
      001F89 F5*24            [12] 6551 	mov	_initializeRootHubConnection_sloc1_1_0,a
      001F8B EA               [12] 6552 	mov	a,r2
      001F8C 35*25            [12] 6553 	addc	a,(_initializeRootHubConnection_sloc1_1_0 + 1)
      001F8E F5*25            [12] 6554 	mov	(_initializeRootHubConnection_sloc1_1_0 + 1),a
      001F90 8B 01            [24] 6555 	mov	ar1,r3
      001F92 8C 02            [24] 6556 	mov	ar2,r4
      001F94 C0 03            [24] 6557 	push	ar3
      001F96 C0 04            [24] 6558 	push	ar4
      001F98 A8*24            [24] 6559 	mov	r0,_initializeRootHubConnection_sloc1_1_0
      001F9A AC*25            [24] 6560 	mov	r4,(_initializeRootHubConnection_sloc1_1_0 + 1)
      001F9C C3               [12] 6561 	clr	c
      001F9D E9               [12] 6562 	mov	a,r1
      001F9E 98               [12] 6563 	subb	a,r0
      001F9F EA               [12] 6564 	mov	a,r2
      001FA0 9C               [12] 6565 	subb	a,r4
      001FA1 D0 04            [24] 6566 	pop	ar4
      001FA3 D0 03            [24] 6567 	pop	ar3
      001FA5 50 36            [24] 6568 	jnc	00108$
                                   6569 ;	USBHost.c:846: DEBUG_OUT("0x%02X ", (uint16_t)(receiveDataBuffer[i]));
      001FA7 EB               [12] 6570 	mov	a,r3
      001FA8 24r01            [12] 6571 	add	a,#_receiveDataBuffer
      001FAA F5 82            [12] 6572 	mov	dpl,a
      001FAC EC               [12] 6573 	mov	a,r4
      001FAD 34s00            [12] 6574 	addc	a,#(_receiveDataBuffer >> 8)
      001FAF F5 83            [12] 6575 	mov	dph,a
      001FB1 E0               [24] 6576 	movx	a,@dptr
      001FB2 F9               [12] 6577 	mov	r1,a
      001FB3 7A 00            [12] 6578 	mov	r2,#0x00
      001FB5 C0 04            [24] 6579 	push	ar4
      001FB7 C0 03            [24] 6580 	push	ar3
      001FB9 C0 01            [24] 6581 	push	ar1
      001FBB C0 02            [24] 6582 	push	ar2
      001FBD 74r6B            [12] 6583 	mov	a,#___str_12
      001FBF C0 E0            [24] 6584 	push	acc
      001FC1 74s01            [12] 6585 	mov	a,#(___str_12 >> 8)
      001FC3 C0 E0            [24] 6586 	push	acc
      001FC5 74 80            [12] 6587 	mov	a,#0x80
      001FC7 C0 E0            [24] 6588 	push	acc
      001FC9 12r00r00         [24] 6589 	lcall	_printf
      001FCC E5 81            [12] 6590 	mov	a,sp
      001FCE 24 FB            [12] 6591 	add	a,#0xfb
      001FD0 F5 81            [12] 6592 	mov	sp,a
      001FD2 D0 03            [24] 6593 	pop	ar3
      001FD4 D0 04            [24] 6594 	pop	ar4
                                   6595 ;	USBHost.c:844: for(i = 0; i < receiveDataBuffer[2] + (receiveDataBuffer[3] << 8); i++)
      001FD6 0B               [12] 6596 	inc	r3
      001FD7 BB 00 9D         [24] 6597 	cjne	r3,#0x00,00140$
      001FDA 0C               [12] 6598 	inc	r4
      001FDB 80 9A            [24] 6599 	sjmp	00140$
      001FDD                       6600 00108$:
                                   6601 ;	USBHost.c:848: DEBUG_OUT("\n");
      001FDD 74r73            [12] 6602 	mov	a,#___str_13
      001FDF C0 E0            [24] 6603 	push	acc
      001FE1 74s01            [12] 6604 	mov	a,#(___str_13 >> 8)
      001FE3 C0 E0            [24] 6605 	push	acc
      001FE5 74 80            [12] 6606 	mov	a,#0x80
      001FE7 C0 E0            [24] 6607 	push	acc
      001FE9 12r00r00         [24] 6608 	lcall	_printf
      001FEC 15 81            [12] 6609 	dec	sp
      001FEE 15 81            [12] 6610 	dec	sp
      001FF0 15 81            [12] 6611 	dec	sp
                                   6612 ;	USBHost.c:850: cfg = ((PXUSB_CFG_DESCR)receiveDataBuffer)->bConfigurationValue;
      001FF2 90r00r06         [24] 6613 	mov	dptr,#(_receiveDataBuffer + 0x0005)
      001FF5 E0               [24] 6614 	movx	a,@dptr
                                   6615 ;	USBHost.c:851: DEBUG_OUT("Configuration value: %d\n", cfg);
      001FF6 FC               [12] 6616 	mov	r4,a
      001FF7 FA               [12] 6617 	mov	r2,a
      001FF8 7B 00            [12] 6618 	mov	r3,#0x00
      001FFA C0 04            [24] 6619 	push	ar4
      001FFC C0 02            [24] 6620 	push	ar2
      001FFE C0 03            [24] 6621 	push	ar3
      002000 74rAA            [12] 6622 	mov	a,#___str_65
      002002 C0 E0            [24] 6623 	push	acc
      002004 74s04            [12] 6624 	mov	a,#(___str_65 >> 8)
      002006 C0 E0            [24] 6625 	push	acc
      002008 74 80            [12] 6626 	mov	a,#0x80
      00200A C0 E0            [24] 6627 	push	acc
      00200C 12r00r00         [24] 6628 	lcall	_printf
      00200F E5 81            [12] 6629 	mov	a,sp
      002011 24 FB            [12] 6630 	add	a,#0xfb
      002013 F5 81            [12] 6631 	mov	sp,a
                                   6632 ;	USBHost.c:853: interfaces = ((PXUSB_CFG_DESCR_LONG)receiveDataBuffer)->cfg_descr.bNumInterfaces;
      002015 90r00r05         [24] 6633 	mov	dptr,#(_receiveDataBuffer + 0x0004)
      002018 E0               [24] 6634 	movx	a,@dptr
      002019 FB               [12] 6635 	mov	r3,a
      00201A 7A 00            [12] 6636 	mov	r2,#0x00
                                   6637 ;	USBHost.c:854: DEBUG_OUT("Interface count: %d\n", interfaces);
      00201C C0 03            [24] 6638 	push	ar3
      00201E C0 02            [24] 6639 	push	ar2
      002020 74rC3            [12] 6640 	mov	a,#___str_66
      002022 C0 E0            [24] 6641 	push	acc
      002024 74s04            [12] 6642 	mov	a,#(___str_66 >> 8)
      002026 C0 E0            [24] 6643 	push	acc
      002028 74 80            [12] 6644 	mov	a,#0x80
      00202A C0 E0            [24] 6645 	push	acc
      00202C 12r00r00         [24] 6646 	lcall	_printf
      00202F E5 81            [12] 6647 	mov	a,sp
      002031 24 FB            [12] 6648 	add	a,#0xfb
      002033 F5 81            [12] 6649 	mov	sp,a
      002035 D0 04            [24] 6650 	pop	ar4
                                   6651 ;	USBHost.c:856: s = setUsbConfig( cfg ); 
      002037 8C 82            [24] 6652 	mov	dpl,r4
      002039 12r08rE8         [24] 6653 	lcall	_setUsbConfig
                                   6654 ;	USBHost.c:858: total = ((PXUSB_CFG_DESCR)receiveDataBuffer)->wTotalLengthL + (((PXUSB_CFG_DESCR)receiveDataBuffer)->wTotalLengthH << 8);
      00203C 90r00r03         [24] 6655 	mov	dptr,#(_receiveDataBuffer + 0x0002)
      00203F E0               [24] 6656 	movx	a,@dptr
      002040 FC               [12] 6657 	mov	r4,a
      002041 7B 00            [12] 6658 	mov	r3,#0x00
      002043 90r00r04         [24] 6659 	mov	dptr,#(_receiveDataBuffer + 0x0003)
      002046 E0               [24] 6660 	movx	a,@dptr
      002047 FA               [12] 6661 	mov	r2,a
      002048 E4               [12] 6662 	clr	a
      002049 2C               [12] 6663 	add	a,r4
      00204A FC               [12] 6664 	mov	r4,a
      00204B EA               [12] 6665 	mov	a,r2
      00204C 3B               [12] 6666 	addc	a,r3
      00204D FB               [12] 6667 	mov	r3,a
      00204E 8C*2B            [24] 6668 	mov	_initializeRootHubConnection_sloc6_1_0,r4
      002050 8B*2C            [24] 6669 	mov	(_initializeRootHubConnection_sloc6_1_0 + 1),r3
                                   6670 ;	USBHost.c:859: for(i = 0; i < total; i++)
      002052 79 00            [12] 6671 	mov	r1,#0x00
      002054 7A 00            [12] 6672 	mov	r2,#0x00
      002056                       6673 00143$:
      002056 C3               [12] 6674 	clr	c
      002057 E9               [12] 6675 	mov	a,r1
      002058 95*2B            [12] 6676 	subb	a,_initializeRootHubConnection_sloc6_1_0
      00205A EA               [12] 6677 	mov	a,r2
      00205B 95*2C            [12] 6678 	subb	a,(_initializeRootHubConnection_sloc6_1_0 + 1)
      00205D 50 20            [24] 6679 	jnc	00109$
                                   6680 ;	USBHost.c:860: temp[i] = receiveDataBuffer[i];
      00205F E9               [12] 6681 	mov	a,r1
      002060 24rB2            [12] 6682 	add	a,#_initializeRootHubConnection_temp_458753_170
      002062 F8               [12] 6683 	mov	r0,a
      002063 EA               [12] 6684 	mov	a,r2
      002064 34s02            [12] 6685 	addc	a,#(_initializeRootHubConnection_temp_458753_170 >> 8)
      002066 FC               [12] 6686 	mov	r4,a
      002067 E9               [12] 6687 	mov	a,r1
      002068 24r01            [12] 6688 	add	a,#_receiveDataBuffer
      00206A F5 82            [12] 6689 	mov	dpl,a
      00206C EA               [12] 6690 	mov	a,r2
      00206D 34s00            [12] 6691 	addc	a,#(_receiveDataBuffer >> 8)
      00206F F5 83            [12] 6692 	mov	dph,a
      002071 E0               [24] 6693 	movx	a,@dptr
      002072 FB               [12] 6694 	mov	r3,a
      002073 88 82            [24] 6695 	mov	dpl,r0
      002075 8C 83            [24] 6696 	mov	dph,r4
      002077 F0               [24] 6697 	movx	@dptr,a
                                   6698 ;	USBHost.c:859: for(i = 0; i < total; i++)
      002078 09               [12] 6699 	inc	r1
      002079 B9 00 DA         [24] 6700 	cjne	r1,#0x00,00143$
      00207C 0A               [12] 6701 	inc	r2
      00207D 80 D7            [24] 6702 	sjmp	00143$
      00207F                       6703 00109$:
                                   6704 ;	USBHost.c:861: i = ((PXUSB_CFG_DESCR)receiveDataBuffer)->bLength;
      00207F 90r00r01         [24] 6705 	mov	dptr,#_receiveDataBuffer
      002082 E0               [24] 6706 	movx	a,@dptr
      002083 FA               [12] 6707 	mov	r2,a
      002084 90r02rB0         [24] 6708 	mov	dptr,#_initializeRootHubConnection_i_458753_170
      002087 F0               [24] 6709 	movx	@dptr,a
      002088 E4               [12] 6710 	clr	a
      002089 A3               [24] 6711 	inc	dptr
      00208A F0               [24] 6712 	movx	@dptr,a
                                   6713 ;	USBHost.c:862: while(i < total)
      00208B 90r02rAE         [24] 6714 	mov	dptr,#_initializeRootHubConnection_rootHubIndex_65536_158
      00208E E0               [24] 6715 	movx	a,@dptr
      00208F F5*2D            [12] 6716 	mov	_initializeRootHubConnection_sloc7_1_0,a
      002091 85*2D*28         [24] 6717 	mov	_initializeRootHubConnection_sloc4_1_0,_initializeRootHubConnection_sloc7_1_0
      002094                       6718 00126$:
      002094 90r02rB0         [24] 6719 	mov	dptr,#_initializeRootHubConnection_i_458753_170
      002097 E0               [24] 6720 	movx	a,@dptr
      002098 F5*24            [12] 6721 	mov	_initializeRootHubConnection_sloc1_1_0,a
      00209A A3               [24] 6722 	inc	dptr
      00209B E0               [24] 6723 	movx	a,@dptr
      00209C F5*25            [12] 6724 	mov	(_initializeRootHubConnection_sloc1_1_0 + 1),a
      00209E C3               [12] 6725 	clr	c
      00209F E5*24            [12] 6726 	mov	a,_initializeRootHubConnection_sloc1_1_0
      0020A1 95*2B            [12] 6727 	subb	a,_initializeRootHubConnection_sloc6_1_0
      0020A3 E5*25            [12] 6728 	mov	a,(_initializeRootHubConnection_sloc1_1_0 + 1)
      0020A5 95*2C            [12] 6729 	subb	a,(_initializeRootHubConnection_sloc6_1_0 + 1)
      0020A7 40 03            [24] 6730 	jc	00267$
      0020A9 02r23r22         [24] 6731 	ljmp	00128$
      0020AC                       6732 00267$:
                                   6733 ;	USBHost.c:864: unsigned char __xdata *desc = &(temp[i]);
      0020AC E5*24            [12] 6734 	mov	a,_initializeRootHubConnection_sloc1_1_0
      0020AE 24rB2            [12] 6735 	add	a,#_initializeRootHubConnection_temp_458753_170
      0020B0 F5*24            [12] 6736 	mov	_initializeRootHubConnection_sloc1_1_0,a
      0020B2 E5*25            [12] 6737 	mov	a,(_initializeRootHubConnection_sloc1_1_0 + 1)
      0020B4 34s02            [12] 6738 	addc	a,#(_initializeRootHubConnection_temp_458753_170 >> 8)
      0020B6 F5*25            [12] 6739 	mov	(_initializeRootHubConnection_sloc1_1_0 + 1),a
      0020B8 90r04rB4         [24] 6740 	mov	dptr,#_initializeRootHubConnection_desc_524289_174
      0020BB E5*24            [12] 6741 	mov	a,_initializeRootHubConnection_sloc1_1_0
      0020BD F0               [24] 6742 	movx	@dptr,a
      0020BE E5*25            [12] 6743 	mov	a,(_initializeRootHubConnection_sloc1_1_0 + 1)
      0020C0 A3               [24] 6744 	inc	dptr
      0020C1 F0               [24] 6745 	movx	@dptr,a
                                   6746 ;	USBHost.c:865: switch(desc[1])
      0020C2 85*24 82         [24] 6747 	mov	dpl,_initializeRootHubConnection_sloc1_1_0
      0020C5 85*25 83         [24] 6748 	mov	dph,(_initializeRootHubConnection_sloc1_1_0 + 1)
      0020C8 A3               [24] 6749 	inc	dptr
      0020C9 E0               [24] 6750 	movx	a,@dptr
      0020CA F8               [12] 6751 	mov	r0,a
      0020CB B8 04 02         [24] 6752 	cjne	r0,#0x04,00268$
      0020CE 80 1A            [24] 6753 	sjmp	00110$
      0020D0                       6754 00268$:
      0020D0 B8 05 02         [24] 6755 	cjne	r0,#0x05,00269$
      0020D3 80 4F            [24] 6756 	sjmp	00111$
      0020D5                       6757 00269$:
      0020D5 B8 21 03         [24] 6758 	cjne	r0,#0x21,00270$
      0020D8 02r22r3C         [24] 6759 	ljmp	00119$
      0020DB                       6760 00270$:
      0020DB B8 24 03         [24] 6761 	cjne	r0,#0x24,00271$
      0020DE 02r22r85         [24] 6762 	ljmp	00122$
      0020E1                       6763 00271$:
      0020E1 B8 25 03         [24] 6764 	cjne	r0,#0x25,00272$
      0020E4 02r22rAD         [24] 6765 	ljmp	00123$
      0020E7                       6766 00272$:
      0020E7 02r22rD5         [24] 6767 	ljmp	00124$
                                   6768 ;	USBHost.c:867: case USB_DESCR_TYP_INTERF:
      0020EA                       6769 00110$:
                                   6770 ;	USBHost.c:868: DEBUG_OUT("Interface descriptor found\n", desc[1]);
      0020EA 88 01            [24] 6771 	mov	ar1,r0
      0020EC 7A 00            [12] 6772 	mov	r2,#0x00
      0020EE C0 01            [24] 6773 	push	ar1
      0020F0 C0 02            [24] 6774 	push	ar2
      0020F2 74rD8            [12] 6775 	mov	a,#___str_67
      0020F4 C0 E0            [24] 6776 	push	acc
      0020F6 74s04            [12] 6777 	mov	a,#(___str_67 >> 8)
      0020F8 C0 E0            [24] 6778 	push	acc
      0020FA 74 80            [12] 6779 	mov	a,#0x80
      0020FC C0 E0            [24] 6780 	push	acc
      0020FE 12r00r00         [24] 6781 	lcall	_printf
      002101 E5 81            [12] 6782 	mov	a,sp
      002103 24 FB            [12] 6783 	add	a,#0xfb
      002105 F5 81            [12] 6784 	mov	sp,a
                                   6785 ;	USBHost.c:870: currentInterface = ((PXUSB_ITF_DESCR)desc);
      002107 A9*24            [24] 6786 	mov	r1,_initializeRootHubConnection_sloc1_1_0
      002109 AA*25            [24] 6787 	mov	r2,(_initializeRootHubConnection_sloc1_1_0 + 1)
      00210B 90r04rB2         [24] 6788 	mov	dptr,#_initializeRootHubConnection_currentInterface_458753_170
      00210E E9               [12] 6789 	mov	a,r1
      00210F F0               [24] 6790 	movx	@dptr,a
      002110 EA               [12] 6791 	mov	a,r2
      002111 A3               [24] 6792 	inc	dptr
      002112 F0               [24] 6793 	movx	@dptr,a
                                   6794 ;	USBHost.c:871: readInterface(rootHubIndex, currentInterface);
      002113 90r02rA8         [24] 6795 	mov	dptr,#_readInterface_PARM_2
      002116 E9               [12] 6796 	mov	a,r1
      002117 F0               [24] 6797 	movx	@dptr,a
      002118 EA               [12] 6798 	mov	a,r2
      002119 A3               [24] 6799 	inc	dptr
      00211A F0               [24] 6800 	movx	@dptr,a
      00211B 85*28 82         [24] 6801 	mov	dpl,_initializeRootHubConnection_sloc4_1_0
      00211E 12r1ArCB         [24] 6802 	lcall	_readInterface
                                   6803 ;	USBHost.c:872: break;
      002121 02r22rF9         [24] 6804 	ljmp	00125$
                                   6805 ;	USBHost.c:873: case USB_DESCR_TYP_ENDP:
      002124                       6806 00111$:
                                   6807 ;	USBHost.c:874: DEBUG_OUT("Endpoint descriptor found\n", desc[1]);
      002124 88 01            [24] 6808 	mov	ar1,r0
      002126 7A 00            [12] 6809 	mov	r2,#0x00
      002128 C0 01            [24] 6810 	push	ar1
      00212A C0 02            [24] 6811 	push	ar2
      00212C 74rF4            [12] 6812 	mov	a,#___str_68
      00212E C0 E0            [24] 6813 	push	acc
      002130 74s04            [12] 6814 	mov	a,#(___str_68 >> 8)
      002132 C0 E0            [24] 6815 	push	acc
      002134 74 80            [12] 6816 	mov	a,#0x80
      002136 C0 E0            [24] 6817 	push	acc
      002138 12r00r00         [24] 6818 	lcall	_printf
      00213B E5 81            [12] 6819 	mov	a,sp
      00213D 24 FB            [12] 6820 	add	a,#0xfb
      00213F F5 81            [12] 6821 	mov	sp,a
                                   6822 ;	USBHost.c:875: DEBUG_OUT_USB_BUFFER(desc);
      002141 85*24 82         [24] 6823 	mov	dpl,_initializeRootHubConnection_sloc1_1_0
      002144 85*25 83         [24] 6824 	mov	dph,(_initializeRootHubConnection_sloc1_1_0 + 1)
      002147 12r0Ar43         [24] 6825 	lcall	_DEBUG_OUT_USB_BUFFER
                                   6826 ;	USBHost.c:876: if(currentInterface->bInterfaceClass == USB_DEV_CLASS_HID)
      00214A 90r04rB2         [24] 6827 	mov	dptr,#_initializeRootHubConnection_currentInterface_458753_170
      00214D E0               [24] 6828 	movx	a,@dptr
      00214E F9               [12] 6829 	mov	r1,a
      00214F A3               [24] 6830 	inc	dptr
      002150 E0               [24] 6831 	movx	a,@dptr
      002151 FA               [12] 6832 	mov	r2,a
      002152 89 82            [24] 6833 	mov	dpl,r1
      002154 8A 83            [24] 6834 	mov	dph,r2
      002156 A3               [24] 6835 	inc	dptr
      002157 A3               [24] 6836 	inc	dptr
      002158 A3               [24] 6837 	inc	dptr
      002159 A3               [24] 6838 	inc	dptr
      00215A A3               [24] 6839 	inc	dptr
      00215B E0               [24] 6840 	movx	a,@dptr
      00215C FA               [12] 6841 	mov	r2,a
      00215D BA 03 02         [24] 6842 	cjne	r2,#0x03,00273$
      002160 80 03            [24] 6843 	sjmp	00274$
      002162                       6844 00273$:
      002162 02r22rF9         [24] 6845 	ljmp	00125$
      002165                       6846 00274$:
                                   6847 ;	USBHost.c:878: PXUSB_ENDP_DESCR d = (PXUSB_ENDP_DESCR)desc;
      002165 A9*24            [24] 6848 	mov	r1,_initializeRootHubConnection_sloc1_1_0
      002167 AA*25            [24] 6849 	mov	r2,(_initializeRootHubConnection_sloc1_1_0 + 1)
                                   6850 ;	USBHost.c:879: if(d->bEndpointAddress & 0x80){
      002169 74 02            [12] 6851 	mov	a,#0x02
      00216B 29               [12] 6852 	add	a,r1
      00216C F5*29            [12] 6853 	mov	_initializeRootHubConnection_sloc5_1_0,a
      00216E E4               [12] 6854 	clr	a
      00216F 3A               [12] 6855 	addc	a,r2
      002170 F5*2A            [12] 6856 	mov	(_initializeRootHubConnection_sloc5_1_0 + 1),a
      002172 85*29 82         [24] 6857 	mov	dpl,_initializeRootHubConnection_sloc5_1_0
      002175 85*2A 83         [24] 6858 	mov	dph,(_initializeRootHubConnection_sloc5_1_0 + 1)
      002178 E0               [24] 6859 	movx	a,@dptr
      002179 FA               [12] 6860 	mov	r2,a
      00217A 20 E7 03         [24] 6861 	jb	acc.7,00275$
      00217D 02r22rF9         [24] 6862 	ljmp	00125$
      002180                       6863 00275$:
                                   6864 ;	USBHost.c:881: for (hiddevice = 0; hiddevice < MAX_HID_DEVICES; hiddevice++)
      002180 79 00            [12] 6865 	mov	r1,#0x00
      002182                       6866 00145$:
                                   6867 ;	USBHost.c:883: if(HIDdevice[hiddevice].connected == 0) break;
      002182 E9               [12] 6868 	mov	a,r1
      002183 75 F0 08         [24] 6869 	mov	b,#0x08
      002186 A4               [48] 6870 	mul	ab
      002187 24r34            [12] 6871 	add	a,#_HIDdevice
      002189 FA               [12] 6872 	mov	r2,a
      00218A 74s02            [12] 6873 	mov	a,#(_HIDdevice >> 8)
      00218C 35 F0            [12] 6874 	addc	a,b
      00218E FC               [12] 6875 	mov	r4,a
      00218F 8A 82            [24] 6876 	mov	dpl,r2
      002191 8C 83            [24] 6877 	mov	dph,r4
      002193 E0               [24] 6878 	movx	a,@dptr
      002194 60 06            [24] 6879 	jz	00114$
                                   6880 ;	USBHost.c:881: for (hiddevice = 0; hiddevice < MAX_HID_DEVICES; hiddevice++)
      002196 09               [12] 6881 	inc	r1
      002197 B9 08 00         [24] 6882 	cjne	r1,#0x08,00277$
      00219A                       6883 00277$:
      00219A 40 E6            [24] 6884 	jc	00145$
      00219C                       6885 00114$:
                                   6886 ;	USBHost.c:885: DEBUG_OUT("Connected device at position: %i\n", hiddevice);
      00219C 89 03            [24] 6887 	mov	ar3,r1
      00219E 7C 00            [12] 6888 	mov	r4,#0x00
      0021A0 C0 01            [24] 6889 	push	ar1
      0021A2 C0 03            [24] 6890 	push	ar3
      0021A4 C0 04            [24] 6891 	push	ar4
      0021A6 74r0F            [12] 6892 	mov	a,#___str_69
      0021A8 C0 E0            [24] 6893 	push	acc
      0021AA 74s05            [12] 6894 	mov	a,#(___str_69 >> 8)
      0021AC C0 E0            [24] 6895 	push	acc
      0021AE 74 80            [12] 6896 	mov	a,#0x80
      0021B0 C0 E0            [24] 6897 	push	acc
      0021B2 12r00r00         [24] 6898 	lcall	_printf
      0021B5 E5 81            [12] 6899 	mov	a,sp
      0021B7 24 FB            [12] 6900 	add	a,#0xfb
      0021B9 F5 81            [12] 6901 	mov	sp,a
      0021BB D0 01            [24] 6902 	pop	ar1
                                   6903 ;	USBHost.c:886: HIDdevice[hiddevice].endPoint = d->bEndpointAddress;
      0021BD E9               [12] 6904 	mov	a,r1
      0021BE 75 F0 08         [24] 6905 	mov	b,#0x08
      0021C1 A4               [48] 6906 	mul	ab
      0021C2 24r34            [12] 6907 	add	a,#_HIDdevice
      0021C4 F5*2E            [12] 6908 	mov	_initializeRootHubConnection_sloc8_1_0,a
      0021C6 74s02            [12] 6909 	mov	a,#(_HIDdevice >> 8)
      0021C8 35 F0            [12] 6910 	addc	a,b
      0021CA F5*2F            [12] 6911 	mov	(_initializeRootHubConnection_sloc8_1_0 + 1),a
      0021CC 74 03            [12] 6912 	mov	a,#0x03
      0021CE 25*2E            [12] 6913 	add	a,_initializeRootHubConnection_sloc8_1_0
      0021D0 FA               [12] 6914 	mov	r2,a
      0021D1 E4               [12] 6915 	clr	a
      0021D2 35*2F            [12] 6916 	addc	a,(_initializeRootHubConnection_sloc8_1_0 + 1)
      0021D4 FC               [12] 6917 	mov	r4,a
      0021D5 85*29 82         [24] 6918 	mov	dpl,_initializeRootHubConnection_sloc5_1_0
      0021D8 85*2A 83         [24] 6919 	mov	dph,(_initializeRootHubConnection_sloc5_1_0 + 1)
      0021DB E0               [24] 6920 	movx	a,@dptr
      0021DC FB               [12] 6921 	mov	r3,a
      0021DD 8A 82            [24] 6922 	mov	dpl,r2
      0021DF 8C 83            [24] 6923 	mov	dph,r4
      0021E1 F0               [24] 6924 	movx	@dptr,a
                                   6925 ;	USBHost.c:887: HIDdevice[hiddevice].connected = 1;                                        
      0021E2 85*2E 82         [24] 6926 	mov	dpl,_initializeRootHubConnection_sloc8_1_0
      0021E5 85*2F 83         [24] 6927 	mov	dph,(_initializeRootHubConnection_sloc8_1_0 + 1)
      0021E8 74 01            [12] 6928 	mov	a,#0x01
      0021EA F0               [24] 6929 	movx	@dptr,a
                                   6930 ;	USBHost.c:888: HIDdevice[hiddevice].interface = currentInterface->bInterfaceNumber;
      0021EB 04               [12] 6931 	inc	a
      0021EC 25*2E            [12] 6932 	add	a,_initializeRootHubConnection_sloc8_1_0
      0021EE F5*29            [12] 6933 	mov	_initializeRootHubConnection_sloc5_1_0,a
      0021F0 E4               [12] 6934 	clr	a
      0021F1 35*2F            [12] 6935 	addc	a,(_initializeRootHubConnection_sloc8_1_0 + 1)
      0021F3 F5*2A            [12] 6936 	mov	(_initializeRootHubConnection_sloc5_1_0 + 1),a
      0021F5 90r04rB2         [24] 6937 	mov	dptr,#_initializeRootHubConnection_currentInterface_458753_170
      0021F8 E0               [24] 6938 	movx	a,@dptr
      0021F9 FA               [12] 6939 	mov	r2,a
      0021FA A3               [24] 6940 	inc	dptr
      0021FB E0               [24] 6941 	movx	a,@dptr
      0021FC FC               [12] 6942 	mov	r4,a
      0021FD 8A 82            [24] 6943 	mov	dpl,r2
      0021FF 8C 83            [24] 6944 	mov	dph,r4
      002201 A3               [24] 6945 	inc	dptr
      002202 A3               [24] 6946 	inc	dptr
      002203 E0               [24] 6947 	movx	a,@dptr
      002204 85*29 82         [24] 6948 	mov	dpl,_initializeRootHubConnection_sloc5_1_0
      002207 85*2A 83         [24] 6949 	mov	dph,(_initializeRootHubConnection_sloc5_1_0 + 1)
      00220A F0               [24] 6950 	movx	@dptr,a
                                   6951 ;	USBHost.c:889: HIDdevice[hiddevice].rootHub = rootHubIndex;
      00220B 85*2E 82         [24] 6952 	mov	dpl,_initializeRootHubConnection_sloc8_1_0
      00220E 85*2F 83         [24] 6953 	mov	dph,(_initializeRootHubConnection_sloc8_1_0 + 1)
      002211 A3               [24] 6954 	inc	dptr
      002212 E5*2D            [12] 6955 	mov	a,_initializeRootHubConnection_sloc7_1_0
      002214 F0               [24] 6956 	movx	@dptr,a
                                   6957 ;	USBHost.c:890: DEBUG_OUT("Got endpoint for the HIDdevice 0x%02x\n", HIDdevice[hiddevice].endPoint);
      002215 7C 00            [12] 6958 	mov	r4,#0x00
      002217 C0 01            [24] 6959 	push	ar1
      002219 C0 03            [24] 6960 	push	ar3
      00221B C0 04            [24] 6961 	push	ar4
      00221D 74r31            [12] 6962 	mov	a,#___str_70
      00221F C0 E0            [24] 6963 	push	acc
      002221 74s05            [12] 6964 	mov	a,#(___str_70 >> 8)
      002223 C0 E0            [24] 6965 	push	acc
      002225 74 80            [12] 6966 	mov	a,#0x80
      002227 C0 E0            [24] 6967 	push	acc
      002229 12r00r00         [24] 6968 	lcall	_printf
      00222C E5 81            [12] 6969 	mov	a,sp
      00222E 24 FB            [12] 6970 	add	a,#0xfb
      002230 F5 81            [12] 6971 	mov	sp,a
      002232 D0 01            [24] 6972 	pop	ar1
                                   6973 ;	USBHost.c:891: getHIDDeviceReport(hiddevice);
      002234 89 82            [24] 6974 	mov	dpl,r1
      002236 12r19r3D         [24] 6975 	lcall	_getHIDDeviceReport
                                   6976 ;	USBHost.c:894: break;
      002239 02r22rF9         [24] 6977 	ljmp	00125$
                                   6978 ;	USBHost.c:895: case USB_DESCR_TYP_HID:
      00223C                       6979 00119$:
                                   6980 ;	USBHost.c:896: DEBUG_OUT("HID descriptor found\n", desc[1]);
      00223C 88 03            [24] 6981 	mov	ar3,r0
      00223E 7C 00            [12] 6982 	mov	r4,#0x00
      002240 C0 03            [24] 6983 	push	ar3
      002242 C0 04            [24] 6984 	push	ar4
      002244 74r58            [12] 6985 	mov	a,#___str_71
      002246 C0 E0            [24] 6986 	push	acc
      002248 74s05            [12] 6987 	mov	a,#(___str_71 >> 8)
      00224A C0 E0            [24] 6988 	push	acc
      00224C 74 80            [12] 6989 	mov	a,#0x80
      00224E C0 E0            [24] 6990 	push	acc
      002250 12r00r00         [24] 6991 	lcall	_printf
      002253 E5 81            [12] 6992 	mov	a,sp
      002255 24 FB            [12] 6993 	add	a,#0xfb
      002257 F5 81            [12] 6994 	mov	sp,a
                                   6995 ;	USBHost.c:898: if(currentInterface == 0) break;
      002259 90r04rB2         [24] 6996 	mov	dptr,#_initializeRootHubConnection_currentInterface_458753_170
      00225C E0               [24] 6997 	movx	a,@dptr
      00225D FB               [12] 6998 	mov	r3,a
      00225E A3               [24] 6999 	inc	dptr
      00225F E0               [24] 7000 	movx	a,@dptr
      002260 FC               [12] 7001 	mov	r4,a
      002261 90r04rB2         [24] 7002 	mov	dptr,#_initializeRootHubConnection_currentInterface_458753_170
      002264 E0               [24] 7003 	movx	a,@dptr
      002265 F5 F0            [12] 7004 	mov	b,a
      002267 A3               [24] 7005 	inc	dptr
      002268 E0               [24] 7006 	movx	a,@dptr
      002269 45 F0            [12] 7007 	orl	a,b
      00226B 70 03            [24] 7008 	jnz	00279$
      00226D 02r22rF9         [24] 7009 	ljmp	00125$
      002270                       7010 00279$:
                                   7011 ;	USBHost.c:899: readHIDInterface(currentInterface, (PXUSB_HID_DESCR)desc);
      002270 A9*24            [24] 7012 	mov	r1,_initializeRootHubConnection_sloc1_1_0
      002272 AA*25            [24] 7013 	mov	r2,(_initializeRootHubConnection_sloc1_1_0 + 1)
      002274 90r02rAA         [24] 7014 	mov	dptr,#_readHIDInterface_PARM_2
      002277 E9               [12] 7015 	mov	a,r1
      002278 F0               [24] 7016 	movx	@dptr,a
      002279 EA               [12] 7017 	mov	a,r2
      00227A A3               [24] 7018 	inc	dptr
      00227B F0               [24] 7019 	movx	@dptr,a
      00227C 8B 82            [24] 7020 	mov	dpl,r3
      00227E 8C 83            [24] 7021 	mov	dph,r4
      002280 12r1Br81         [24] 7022 	lcall	_readHIDInterface
                                   7023 ;	USBHost.c:900: break;
                                   7024 ;	USBHost.c:901: case USB_DESCR_TYP_CS_INTF:
      002283 80 74            [24] 7025 	sjmp	00125$
      002285                       7026 00122$:
                                   7027 ;	USBHost.c:902: DEBUG_OUT("Class specific header descriptor found\n", desc[1]);
      002285 88 03            [24] 7028 	mov	ar3,r0
      002287 7C 00            [12] 7029 	mov	r4,#0x00
      002289 C0 03            [24] 7030 	push	ar3
      00228B C0 04            [24] 7031 	push	ar4
      00228D 74r6E            [12] 7032 	mov	a,#___str_72
      00228F C0 E0            [24] 7033 	push	acc
      002291 74s05            [12] 7034 	mov	a,#(___str_72 >> 8)
      002293 C0 E0            [24] 7035 	push	acc
      002295 74 80            [12] 7036 	mov	a,#0x80
      002297 C0 E0            [24] 7037 	push	acc
      002299 12r00r00         [24] 7038 	lcall	_printf
      00229C E5 81            [12] 7039 	mov	a,sp
      00229E 24 FB            [12] 7040 	add	a,#0xfb
      0022A0 F5 81            [12] 7041 	mov	sp,a
                                   7042 ;	USBHost.c:903: DEBUG_OUT_USB_BUFFER(desc);
      0022A2 85*24 82         [24] 7043 	mov	dpl,_initializeRootHubConnection_sloc1_1_0
      0022A5 85*25 83         [24] 7044 	mov	dph,(_initializeRootHubConnection_sloc1_1_0 + 1)
      0022A8 12r0Ar43         [24] 7045 	lcall	_DEBUG_OUT_USB_BUFFER
                                   7046 ;	USBHost.c:906: break;
                                   7047 ;	USBHost.c:907: case USB_DESCR_TYP_CS_ENDP:
      0022AB 80 4C            [24] 7048 	sjmp	00125$
      0022AD                       7049 00123$:
                                   7050 ;	USBHost.c:908: DEBUG_OUT("Class specific endpoint descriptor found\n", desc[1]);
      0022AD 88 03            [24] 7051 	mov	ar3,r0
      0022AF 7C 00            [12] 7052 	mov	r4,#0x00
      0022B1 C0 03            [24] 7053 	push	ar3
      0022B3 C0 04            [24] 7054 	push	ar4
      0022B5 74r96            [12] 7055 	mov	a,#___str_73
      0022B7 C0 E0            [24] 7056 	push	acc
      0022B9 74s05            [12] 7057 	mov	a,#(___str_73 >> 8)
      0022BB C0 E0            [24] 7058 	push	acc
      0022BD 74 80            [12] 7059 	mov	a,#0x80
      0022BF C0 E0            [24] 7060 	push	acc
      0022C1 12r00r00         [24] 7061 	lcall	_printf
      0022C4 E5 81            [12] 7062 	mov	a,sp
      0022C6 24 FB            [12] 7063 	add	a,#0xfb
      0022C8 F5 81            [12] 7064 	mov	sp,a
                                   7065 ;	USBHost.c:909: DEBUG_OUT_USB_BUFFER(desc);
      0022CA 85*24 82         [24] 7066 	mov	dpl,_initializeRootHubConnection_sloc1_1_0
      0022CD 85*25 83         [24] 7067 	mov	dph,(_initializeRootHubConnection_sloc1_1_0 + 1)
      0022D0 12r0Ar43         [24] 7068 	lcall	_DEBUG_OUT_USB_BUFFER
                                   7069 ;	USBHost.c:912: break;
                                   7070 ;	USBHost.c:913: default:
      0022D3 80 24            [24] 7071 	sjmp	00125$
      0022D5                       7072 00124$:
                                   7073 ;	USBHost.c:914: DEBUG_OUT("Unexpected descriptor type: %02X\n", desc[1]);
      0022D5 7C 00            [12] 7074 	mov	r4,#0x00
      0022D7 C0 00            [24] 7075 	push	ar0
      0022D9 C0 04            [24] 7076 	push	ar4
      0022DB 74rC0            [12] 7077 	mov	a,#___str_74
      0022DD C0 E0            [24] 7078 	push	acc
      0022DF 74s05            [12] 7079 	mov	a,#(___str_74 >> 8)
      0022E1 C0 E0            [24] 7080 	push	acc
      0022E3 74 80            [12] 7081 	mov	a,#0x80
      0022E5 C0 E0            [24] 7082 	push	acc
      0022E7 12r00r00         [24] 7083 	lcall	_printf
      0022EA E5 81            [12] 7084 	mov	a,sp
      0022EC 24 FB            [12] 7085 	add	a,#0xfb
      0022EE F5 81            [12] 7086 	mov	sp,a
                                   7087 ;	USBHost.c:915: DEBUG_OUT_USB_BUFFER(desc);
      0022F0 85*24 82         [24] 7088 	mov	dpl,_initializeRootHubConnection_sloc1_1_0
      0022F3 85*25 83         [24] 7089 	mov	dph,(_initializeRootHubConnection_sloc1_1_0 + 1)
      0022F6 12r0Ar43         [24] 7090 	lcall	_DEBUG_OUT_USB_BUFFER
                                   7091 ;	USBHost.c:916: }
      0022F9                       7092 00125$:
                                   7093 ;	USBHost.c:917: i += desc[0];
      0022F9 90r04rB4         [24] 7094 	mov	dptr,#_initializeRootHubConnection_desc_524289_174
      0022FC E0               [24] 7095 	movx	a,@dptr
      0022FD FB               [12] 7096 	mov	r3,a
      0022FE A3               [24] 7097 	inc	dptr
      0022FF E0               [24] 7098 	movx	a,@dptr
      002300 FC               [12] 7099 	mov	r4,a
      002301 8B 82            [24] 7100 	mov	dpl,r3
      002303 8C 83            [24] 7101 	mov	dph,r4
      002305 E0               [24] 7102 	movx	a,@dptr
      002306 FB               [12] 7103 	mov	r3,a
      002307 7C 00            [12] 7104 	mov	r4,#0x00
      002309 90r02rB0         [24] 7105 	mov	dptr,#_initializeRootHubConnection_i_458753_170
      00230C E0               [24] 7106 	movx	a,@dptr
      00230D F9               [12] 7107 	mov	r1,a
      00230E A3               [24] 7108 	inc	dptr
      00230F E0               [24] 7109 	movx	a,@dptr
      002310 FA               [12] 7110 	mov	r2,a
      002311 EB               [12] 7111 	mov	a,r3
      002312 29               [12] 7112 	add	a,r1
      002313 F9               [12] 7113 	mov	r1,a
      002314 EC               [12] 7114 	mov	a,r4
      002315 3A               [12] 7115 	addc	a,r2
      002316 FA               [12] 7116 	mov	r2,a
      002317 90r02rB0         [24] 7117 	mov	dptr,#_initializeRootHubConnection_i_458753_170
      00231A E9               [12] 7118 	mov	a,r1
      00231B F0               [24] 7119 	movx	@dptr,a
      00231C EA               [12] 7120 	mov	a,r2
      00231D A3               [24] 7121 	inc	dptr
      00231E F0               [24] 7122 	movx	@dptr,a
      00231F 02r20r94         [24] 7123 	ljmp	00126$
      002322                       7124 00128$:
                                   7125 ;	USBHost.c:919: return ERR_SUCCESS;
      002322 75 82 00         [24] 7126 	mov	dpl,#0x00
      002325 22               [24] 7127 	ret
      002326                       7128 00134$:
                                   7129 ;	USBHost.c:924: DEBUG_OUT( "Error = %02X\n", s);
      002326 90r02rAF         [24] 7130 	mov	dptr,#_initializeRootHubConnection_s_65536_159
      002329 E0               [24] 7131 	movx	a,@dptr
      00232A FC               [12] 7132 	mov	r4,a
      00232B FA               [12] 7133 	mov	r2,a
      00232C 7B 00            [12] 7134 	mov	r3,#0x00
      00232E C0 07            [24] 7135 	push	ar7
      002330 C0 06            [24] 7136 	push	ar6
      002332 C0 05            [24] 7137 	push	ar5
      002334 C0 04            [24] 7138 	push	ar4
      002336 C0 02            [24] 7139 	push	ar2
      002338 C0 03            [24] 7140 	push	ar3
      00233A 74rE2            [12] 7141 	mov	a,#___str_75
      00233C C0 E0            [24] 7142 	push	acc
      00233E 74s05            [12] 7143 	mov	a,#(___str_75 >> 8)
      002340 C0 E0            [24] 7144 	push	acc
      002342 74 80            [12] 7145 	mov	a,#0x80
      002344 C0 E0            [24] 7146 	push	acc
      002346 12r00r00         [24] 7147 	lcall	_printf
      002349 E5 81            [12] 7148 	mov	a,sp
      00234B 24 FB            [12] 7149 	add	a,#0xfb
      00234D F5 81            [12] 7150 	mov	sp,a
      00234F D0 04            [24] 7151 	pop	ar4
      002351 D0 05            [24] 7152 	pop	ar5
                                   7153 ;	USBHost.c:925: sendProtocolMSG(MSG_TYPE_ERROR,0, rootHubIndex+1, s, 0xEE, 0);
      002353 8D 03            [24] 7154 	mov	ar3,r5
      002355 0B               [12] 7155 	inc	r3
      002356 90r00r00         [24] 7156 	mov	dptr,#_sendProtocolMSG_PARM_2
      002359 E4               [12] 7157 	clr	a
      00235A F0               [24] 7158 	movx	@dptr,a
      00235B A3               [24] 7159 	inc	dptr
      00235C F0               [24] 7160 	movx	@dptr,a
      00235D 90r00r00         [24] 7161 	mov	dptr,#_sendProtocolMSG_PARM_3
      002360 EB               [12] 7162 	mov	a,r3
      002361 F0               [24] 7163 	movx	@dptr,a
      002362 90r00r00         [24] 7164 	mov	dptr,#_sendProtocolMSG_PARM_4
      002365 EC               [12] 7165 	mov	a,r4
      002366 F0               [24] 7166 	movx	@dptr,a
      002367 90r00r00         [24] 7167 	mov	dptr,#_sendProtocolMSG_PARM_5
      00236A 74 EE            [12] 7168 	mov	a,#0xee
      00236C F0               [24] 7169 	movx	@dptr,a
      00236D 90r00r00         [24] 7170 	mov	dptr,#_sendProtocolMSG_PARM_6
      002370 E4               [12] 7171 	clr	a
      002371 F0               [24] 7172 	movx	@dptr,a
      002372 A3               [24] 7173 	inc	dptr
      002373 F0               [24] 7174 	movx	@dptr,a
      002374 75 82 03         [24] 7175 	mov	dpl,#0x03
      002377 C0 05            [24] 7176 	push	ar5
      002379 12r00r00         [24] 7177 	lcall	_sendProtocolMSG
                                   7178 ;	USBHost.c:926: rootHubDevice[rootHubIndex].status = ROOT_DEVICE_FAILED;
      00237C E5*22            [12] 7179 	mov	a,_initializeRootHubConnection_sloc0_1_0
      00237E 24r01            [12] 7180 	add	a,#_rootHubDevice
      002380 F5 82            [12] 7181 	mov	dpl,a
      002382 E5*23            [12] 7182 	mov	a,(_initializeRootHubConnection_sloc0_1_0 + 1)
      002384 34s02            [12] 7183 	addc	a,#(_rootHubDevice >> 8)
      002386 F5 83            [12] 7184 	mov	dph,a
      002388 74 02            [12] 7185 	mov	a,#0x02
      00238A F0               [24] 7186 	movx	@dptr,a
                                   7187 ;	USBHost.c:927: setUsbSpeed(1);    //TODO define speeds
      00238B 75 82 01         [24] 7188 	mov	dpl,#0x01
      00238E 12r00r80         [24] 7189 	lcall	_setUsbSpeed
      002391 D0 05            [24] 7190 	pop	ar5
      002393 D0 06            [24] 7191 	pop	ar6
      002395 D0 07            [24] 7192 	pop	ar7
      002397                       7193 00135$:
                                   7194 ;	USBHost.c:790: for(retry = 0; retry < 10; retry++) //todo test fewer retries
      002397 05*26            [12] 7195 	inc	_initializeRootHubConnection_sloc2_1_0
      002399 74 F6            [12] 7196 	mov	a,#0x100 - 0x0a
      00239B 25*26            [12] 7197 	add	a,_initializeRootHubConnection_sloc2_1_0
      00239D 40 03            [24] 7198 	jc	00280$
      00239F 02r1Cr80         [24] 7199 	ljmp	00147$
      0023A2                       7200 00280$:
                                   7201 ;	USBHost.c:929: return s;
      0023A2 90r02rAF         [24] 7202 	mov	dptr,#_initializeRootHubConnection_s_65536_159
      0023A5 E0               [24] 7203 	movx	a,@dptr
                                   7204 ;	USBHost.c:930: }
      0023A6 F5 82            [12] 7205 	mov	dpl,a
      0023A8 22               [24] 7206 	ret
                                   7207 ;------------------------------------------------------------
                                   7208 ;Allocation info for local variables in function 'checkRootHubConnections'
                                   7209 ;------------------------------------------------------------
                                   7210 ;s                         Allocated with name '_checkRootHubConnections_s_65536_180'
                                   7211 ;------------------------------------------------------------
                                   7212 ;	USBHost.c:932: unsigned char checkRootHubConnections()
                                   7213 ;	-----------------------------------------
                                   7214 ;	 function checkRootHubConnections
                                   7215 ;	-----------------------------------------
      0023A9                       7216 _checkRootHubConnections:
                                   7217 ;	USBHost.c:935: s = ERR_SUCCESS;
      0023A9 90r04rB6         [24] 7218 	mov	dptr,#_checkRootHubConnections_s_65536_180
      0023AC E4               [12] 7219 	clr	a
      0023AD F0               [24] 7220 	movx	@dptr,a
                                   7221 ;	USBHost.c:936: if (UIF_DETECT)                                                        
                                   7222 ;	USBHost.c:938: UIF_DETECT = 0;    
                                   7223 ;	assignBit
      0023AE 10 D8 03         [24] 7224 	jbc	_UIF_DETECT,00149$
      0023B1 02r25r36         [24] 7225 	ljmp	00118$
      0023B4                       7226 00149$:
                                   7227 ;	USBHost.c:939: if(USB_HUB_ST & bUHS_H0_ATTACH)
      0023B4 E5 DB            [12] 7228 	mov	a,_USB_HUB_ST
      0023B6 30 E3 63         [24] 7229 	jnb	acc.3,00107$
                                   7230 ;	USBHost.c:941: if(rootHubDevice[0].status == ROOT_DEVICE_DISCONNECT || (UHUB0_CTRL & bUH_PORT_EN) == 0x00)
      0023B9 90r02r01         [24] 7231 	mov	dptr,#_rootHubDevice
      0023BC E0               [24] 7232 	movx	a,@dptr
      0023BD 60 08            [24] 7233 	jz	00101$
      0023BF E5 E4            [12] 7234 	mov	a,_UDEV_CTRL
      0023C1 30 E0 03         [24] 7235 	jnb	acc.0,00152$
      0023C4 02r24r73         [24] 7236 	ljmp	00108$
      0023C7                       7237 00152$:
      0023C7                       7238 00101$:
                                   7239 ;	USBHost.c:943: disableRootHubPort(0);    //todo really need to reset register?
      0023C7 75 82 00         [24] 7240 	mov	dpl,#0x00
      0023CA 12r00r00         [24] 7241 	lcall	_disableRootHubPort
                                   7242 ;	USBHost.c:944: rootHubDevice[0].status = ROOT_DEVICE_CONNECTED;
      0023CD 90r02r01         [24] 7243 	mov	dptr,#_rootHubDevice
      0023D0 74 01            [12] 7244 	mov	a,#0x01
      0023D2 F0               [24] 7245 	movx	@dptr,a
                                   7246 ;	USBHost.c:945: DEBUG_OUT("Device at root hub %i connected\n", 0);
      0023D3 E4               [12] 7247 	clr	a
      0023D4 C0 E0            [24] 7248 	push	acc
      0023D6 C0 E0            [24] 7249 	push	acc
      0023D8 74rF0            [12] 7250 	mov	a,#___str_76
      0023DA C0 E0            [24] 7251 	push	acc
      0023DC 74s05            [12] 7252 	mov	a,#(___str_76 >> 8)
      0023DE C0 E0            [24] 7253 	push	acc
      0023E0 74 80            [12] 7254 	mov	a,#0x80
      0023E2 C0 E0            [24] 7255 	push	acc
      0023E4 12r00r00         [24] 7256 	lcall	_printf
      0023E7 E5 81            [12] 7257 	mov	a,sp
      0023E9 24 FB            [12] 7258 	add	a,#0xfb
      0023EB F5 81            [12] 7259 	mov	sp,a
                                   7260 ;	USBHost.c:946: sendProtocolMSG(MSG_TYPE_CONNECTED,0, 0x01, 0x01, 0x01, 0);
      0023ED 90r00r00         [24] 7261 	mov	dptr,#_sendProtocolMSG_PARM_2
      0023F0 E4               [12] 7262 	clr	a
      0023F1 F0               [24] 7263 	movx	@dptr,a
      0023F2 A3               [24] 7264 	inc	dptr
      0023F3 F0               [24] 7265 	movx	@dptr,a
      0023F4 90r00r00         [24] 7266 	mov	dptr,#_sendProtocolMSG_PARM_3
      0023F7 04               [12] 7267 	inc	a
      0023F8 F0               [24] 7268 	movx	@dptr,a
      0023F9 90r00r00         [24] 7269 	mov	dptr,#_sendProtocolMSG_PARM_4
      0023FC F0               [24] 7270 	movx	@dptr,a
      0023FD 90r00r00         [24] 7271 	mov	dptr,#_sendProtocolMSG_PARM_5
      002400 F0               [24] 7272 	movx	@dptr,a
      002401 90r00r00         [24] 7273 	mov	dptr,#_sendProtocolMSG_PARM_6
      002404 E4               [12] 7274 	clr	a
      002405 F0               [24] 7275 	movx	@dptr,a
      002406 A3               [24] 7276 	inc	dptr
      002407 F0               [24] 7277 	movx	@dptr,a
      002408 75 82 01         [24] 7278 	mov	dpl,#0x01
      00240B 12r00r00         [24] 7279 	lcall	_sendProtocolMSG
                                   7280 ;	USBHost.c:947: s = initializeRootHubConnection(0);
      00240E 75 82 00         [24] 7281 	mov	dpl,#0x00
      002411 12r1Cr60         [24] 7282 	lcall	_initializeRootHubConnection
      002414 E5 82            [12] 7283 	mov	a,dpl
      002416 90r04rB6         [24] 7284 	mov	dptr,#_checkRootHubConnections_s_65536_180
      002419 F0               [24] 7285 	movx	@dptr,a
      00241A 80 57            [24] 7286 	sjmp	00108$
      00241C                       7287 00107$:
                                   7288 ;	USBHost.c:951: if(rootHubDevice[0].status >= ROOT_DEVICE_CONNECTED)
      00241C 90r02r01         [24] 7289 	mov	dptr,#_rootHubDevice
      00241F E0               [24] 7290 	movx	a,@dptr
      002420 FF               [12] 7291 	mov	r7,a
      002421 BF 01 00         [24] 7292 	cjne	r7,#0x01,00153$
      002424                       7293 00153$:
      002424 40 4D            [24] 7294 	jc	00108$
                                   7295 ;	USBHost.c:953: resetHubDevices(0);
      002426 75 82 00         [24] 7296 	mov	dpl,#0x00
      002429 12r0Br8F         [24] 7297 	lcall	_resetHubDevices
                                   7298 ;	USBHost.c:954: disableRootHubPort(0);
      00242C 75 82 00         [24] 7299 	mov	dpl,#0x00
      00242F 12r00r00         [24] 7300 	lcall	_disableRootHubPort
                                   7301 ;	USBHost.c:955: DEBUG_OUT("Device at root hub %i disconnected\n", 0);
      002432 E4               [12] 7302 	clr	a
      002433 C0 E0            [24] 7303 	push	acc
      002435 C0 E0            [24] 7304 	push	acc
      002437 74r11            [12] 7305 	mov	a,#___str_77
      002439 C0 E0            [24] 7306 	push	acc
      00243B 74s06            [12] 7307 	mov	a,#(___str_77 >> 8)
      00243D C0 E0            [24] 7308 	push	acc
      00243F 74 80            [12] 7309 	mov	a,#0x80
      002441 C0 E0            [24] 7310 	push	acc
      002443 12r00r00         [24] 7311 	lcall	_printf
      002446 E5 81            [12] 7312 	mov	a,sp
      002448 24 FB            [12] 7313 	add	a,#0xfb
      00244A F5 81            [12] 7314 	mov	sp,a
                                   7315 ;	USBHost.c:956: sendProtocolMSG(MSG_TYPE_DISCONNECTED,0, 0x01, 0x01, 0x01, 0);
      00244C 90r00r00         [24] 7316 	mov	dptr,#_sendProtocolMSG_PARM_2
      00244F E4               [12] 7317 	clr	a
      002450 F0               [24] 7318 	movx	@dptr,a
      002451 A3               [24] 7319 	inc	dptr
      002452 F0               [24] 7320 	movx	@dptr,a
      002453 90r00r00         [24] 7321 	mov	dptr,#_sendProtocolMSG_PARM_3
      002456 04               [12] 7322 	inc	a
      002457 F0               [24] 7323 	movx	@dptr,a
      002458 90r00r00         [24] 7324 	mov	dptr,#_sendProtocolMSG_PARM_4
      00245B F0               [24] 7325 	movx	@dptr,a
      00245C 90r00r00         [24] 7326 	mov	dptr,#_sendProtocolMSG_PARM_5
      00245F F0               [24] 7327 	movx	@dptr,a
      002460 90r00r00         [24] 7328 	mov	dptr,#_sendProtocolMSG_PARM_6
      002463 E4               [12] 7329 	clr	a
      002464 F0               [24] 7330 	movx	@dptr,a
      002465 A3               [24] 7331 	inc	dptr
      002466 F0               [24] 7332 	movx	@dptr,a
      002467 75 82 02         [24] 7333 	mov	dpl,#0x02
      00246A 12r00r00         [24] 7334 	lcall	_sendProtocolMSG
                                   7335 ;	USBHost.c:957: s = ERR_USB_DISCON;
      00246D 90r04rB6         [24] 7336 	mov	dptr,#_checkRootHubConnections_s_65536_180
      002470 74 16            [12] 7337 	mov	a,#0x16
      002472 F0               [24] 7338 	movx	@dptr,a
      002473                       7339 00108$:
                                   7340 ;	USBHost.c:959: if(USB_HUB_ST & bUHS_H1_ATTACH)
      002473 E5 DB            [12] 7341 	mov	a,_USB_HUB_ST
      002475 30 E7 64         [24] 7342 	jnb	acc.7,00115$
                                   7343 ;	USBHost.c:962: if(rootHubDevice[1].status == ROOT_DEVICE_DISCONNECT || (UHUB1_CTRL & bUH_PORT_EN) == 0x00)
      002478 90r02r04         [24] 7344 	mov	dptr,#(_rootHubDevice + 0x0003)
      00247B E0               [24] 7345 	movx	a,@dptr
      00247C 60 08            [24] 7346 	jz	00109$
      00247E E5 E5            [12] 7347 	mov	a,_UHUB1_CTRL
      002480 30 E0 03         [24] 7348 	jnb	acc.0,00157$
      002483 02r25r36         [24] 7349 	ljmp	00118$
      002486                       7350 00157$:
      002486                       7351 00109$:
                                   7352 ;	USBHost.c:964: disableRootHubPort(1);    //todo really need to reset register?
      002486 75 82 01         [24] 7353 	mov	dpl,#0x01
      002489 12r00r00         [24] 7354 	lcall	_disableRootHubPort
                                   7355 ;	USBHost.c:965: rootHubDevice[1].status = ROOT_DEVICE_CONNECTED;
      00248C 90r02r04         [24] 7356 	mov	dptr,#(_rootHubDevice + 0x0003)
      00248F 74 01            [12] 7357 	mov	a,#0x01
      002491 F0               [24] 7358 	movx	@dptr,a
                                   7359 ;	USBHost.c:966: DEBUG_OUT("Device at root hub %i connected\n", 1);
      002492 C0 E0            [24] 7360 	push	acc
      002494 E4               [12] 7361 	clr	a
      002495 C0 E0            [24] 7362 	push	acc
      002497 74rF0            [12] 7363 	mov	a,#___str_76
      002499 C0 E0            [24] 7364 	push	acc
      00249B 74s05            [12] 7365 	mov	a,#(___str_76 >> 8)
      00249D C0 E0            [24] 7366 	push	acc
      00249F 74 80            [12] 7367 	mov	a,#0x80
      0024A1 C0 E0            [24] 7368 	push	acc
      0024A3 12r00r00         [24] 7369 	lcall	_printf
      0024A6 E5 81            [12] 7370 	mov	a,sp
      0024A8 24 FB            [12] 7371 	add	a,#0xfb
      0024AA F5 81            [12] 7372 	mov	sp,a
                                   7373 ;	USBHost.c:967: sendProtocolMSG(MSG_TYPE_CONNECTED,0, 0x02, 0x02, 0x02, 0);
      0024AC 90r00r00         [24] 7374 	mov	dptr,#_sendProtocolMSG_PARM_2
      0024AF E4               [12] 7375 	clr	a
      0024B0 F0               [24] 7376 	movx	@dptr,a
      0024B1 A3               [24] 7377 	inc	dptr
      0024B2 F0               [24] 7378 	movx	@dptr,a
      0024B3 90r00r00         [24] 7379 	mov	dptr,#_sendProtocolMSG_PARM_3
      0024B6 74 02            [12] 7380 	mov	a,#0x02
      0024B8 F0               [24] 7381 	movx	@dptr,a
      0024B9 90r00r00         [24] 7382 	mov	dptr,#_sendProtocolMSG_PARM_4
      0024BC F0               [24] 7383 	movx	@dptr,a
      0024BD 90r00r00         [24] 7384 	mov	dptr,#_sendProtocolMSG_PARM_5
      0024C0 F0               [24] 7385 	movx	@dptr,a
      0024C1 90r00r00         [24] 7386 	mov	dptr,#_sendProtocolMSG_PARM_6
      0024C4 E4               [12] 7387 	clr	a
      0024C5 F0               [24] 7388 	movx	@dptr,a
      0024C6 A3               [24] 7389 	inc	dptr
      0024C7 F0               [24] 7390 	movx	@dptr,a
      0024C8 75 82 01         [24] 7391 	mov	dpl,#0x01
      0024CB 12r00r00         [24] 7392 	lcall	_sendProtocolMSG
                                   7393 ;	USBHost.c:968: s = initializeRootHubConnection(1);
      0024CE 75 82 01         [24] 7394 	mov	dpl,#0x01
      0024D1 12r1Cr60         [24] 7395 	lcall	_initializeRootHubConnection
      0024D4 E5 82            [12] 7396 	mov	a,dpl
      0024D6 90r04rB6         [24] 7397 	mov	dptr,#_checkRootHubConnections_s_65536_180
      0024D9 F0               [24] 7398 	movx	@dptr,a
      0024DA 80 5A            [24] 7399 	sjmp	00118$
      0024DC                       7400 00115$:
                                   7401 ;	USBHost.c:972: if(rootHubDevice[1].status >= ROOT_DEVICE_CONNECTED)
      0024DC 90r02r04         [24] 7402 	mov	dptr,#(_rootHubDevice + 0x0003)
      0024DF E0               [24] 7403 	movx	a,@dptr
      0024E0 FF               [12] 7404 	mov	r7,a
      0024E1 BF 01 00         [24] 7405 	cjne	r7,#0x01,00158$
      0024E4                       7406 00158$:
      0024E4 40 50            [24] 7407 	jc	00118$
                                   7408 ;	USBHost.c:974: resetHubDevices(1);
      0024E6 75 82 01         [24] 7409 	mov	dpl,#0x01
      0024E9 12r0Br8F         [24] 7410 	lcall	_resetHubDevices
                                   7411 ;	USBHost.c:975: disableRootHubPort(1);
      0024EC 75 82 01         [24] 7412 	mov	dpl,#0x01
      0024EF 12r00r00         [24] 7413 	lcall	_disableRootHubPort
                                   7414 ;	USBHost.c:976: DEBUG_OUT("Device at root hub %i disconnected\n", 1);
      0024F2 74 01            [12] 7415 	mov	a,#0x01
      0024F4 C0 E0            [24] 7416 	push	acc
      0024F6 E4               [12] 7417 	clr	a
      0024F7 C0 E0            [24] 7418 	push	acc
      0024F9 74r11            [12] 7419 	mov	a,#___str_77
      0024FB C0 E0            [24] 7420 	push	acc
      0024FD 74s06            [12] 7421 	mov	a,#(___str_77 >> 8)
      0024FF C0 E0            [24] 7422 	push	acc
      002501 74 80            [12] 7423 	mov	a,#0x80
      002503 C0 E0            [24] 7424 	push	acc
      002505 12r00r00         [24] 7425 	lcall	_printf
      002508 E5 81            [12] 7426 	mov	a,sp
      00250A 24 FB            [12] 7427 	add	a,#0xfb
      00250C F5 81            [12] 7428 	mov	sp,a
                                   7429 ;	USBHost.c:977: sendProtocolMSG(MSG_TYPE_DISCONNECTED,0, 0x02, 0x02, 0x02, 0);
      00250E 90r00r00         [24] 7430 	mov	dptr,#_sendProtocolMSG_PARM_2
      002511 E4               [12] 7431 	clr	a
      002512 F0               [24] 7432 	movx	@dptr,a
      002513 A3               [24] 7433 	inc	dptr
      002514 F0               [24] 7434 	movx	@dptr,a
      002515 90r00r00         [24] 7435 	mov	dptr,#_sendProtocolMSG_PARM_3
      002518 74 02            [12] 7436 	mov	a,#0x02
      00251A F0               [24] 7437 	movx	@dptr,a
      00251B 90r00r00         [24] 7438 	mov	dptr,#_sendProtocolMSG_PARM_4
      00251E F0               [24] 7439 	movx	@dptr,a
      00251F 90r00r00         [24] 7440 	mov	dptr,#_sendProtocolMSG_PARM_5
      002522 F0               [24] 7441 	movx	@dptr,a
      002523 90r00r00         [24] 7442 	mov	dptr,#_sendProtocolMSG_PARM_6
      002526 E4               [12] 7443 	clr	a
      002527 F0               [24] 7444 	movx	@dptr,a
      002528 A3               [24] 7445 	inc	dptr
      002529 F0               [24] 7446 	movx	@dptr,a
      00252A 75 82 02         [24] 7447 	mov	dpl,#0x02
      00252D 12r00r00         [24] 7448 	lcall	_sendProtocolMSG
                                   7449 ;	USBHost.c:978: s = ERR_USB_DISCON;
      002530 90r04rB6         [24] 7450 	mov	dptr,#_checkRootHubConnections_s_65536_180
      002533 74 16            [12] 7451 	mov	a,#0x16
      002535 F0               [24] 7452 	movx	@dptr,a
      002536                       7453 00118$:
                                   7454 ;	USBHost.c:981: return s;
      002536 90r04rB6         [24] 7455 	mov	dptr,#_checkRootHubConnections_s_65536_180
      002539 E0               [24] 7456 	movx	a,@dptr
                                   7457 ;	USBHost.c:982: }
      00253A F5 82            [12] 7458 	mov	dpl,a
      00253C 22               [24] 7459 	ret
                                   7460 	.area CSEG    (CODE)
                                   7461 	.area CONST   (CODE)
      000000                       7462 _GetDeviceDescriptorRequest:
      000000 80                    7463 	.db #0x80	; 128
      000001 06                    7464 	.db #0x06	; 6
      000002 00                    7465 	.db #0x00	; 0
      000003 01                    7466 	.db #0x01	; 1
      000004 00                    7467 	.db #0x00	; 0
      000005 00                    7468 	.db #0x00	; 0
      000006 12                    7469 	.db #0x12	; 18
      000007 00                    7470 	.db #0x00	; 0
      000008                       7471 _GetConfigurationDescriptorRequest:
      000008 80                    7472 	.db #0x80	; 128
      000009 06                    7473 	.db #0x06	; 6
      00000A 00                    7474 	.db #0x00	; 0
      00000B 02                    7475 	.db #0x02	; 2
      00000C 00                    7476 	.db #0x00	; 0
      00000D 00                    7477 	.db #0x00	; 0
      00000E 12                    7478 	.db #0x12	; 18
      00000F 00                    7479 	.db #0x00	; 0
      000010                       7480 _GetInterfaceDescriptorRequest:
      000010 81                    7481 	.db #0x81	; 129
      000011 06                    7482 	.db #0x06	; 6
      000012 00                    7483 	.db #0x00	; 0
      000013 04                    7484 	.db #0x04	; 4
      000014 00                    7485 	.db #0x00	; 0
      000015 00                    7486 	.db #0x00	; 0
      000016 09                    7487 	.db #0x09	; 9
      000017 00                    7488 	.db #0x00	; 0
      000018                       7489 _SetUSBAddressRequest:
      000018 00                    7490 	.db #0x00	; 0
      000019 05                    7491 	.db #0x05	; 5
      00001A 02                    7492 	.db #0x02	; 2
      00001B 00                    7493 	.db #0x00	; 0
      00001C 00                    7494 	.db #0x00	; 0
      00001D 00                    7495 	.db #0x00	; 0
      00001E 00                    7496 	.db #0x00	; 0
      00001F 00                    7497 	.db #0x00	; 0
      000020                       7498 _GetDeviceStringRequest:
      000020 80                    7499 	.db #0x80	; 128
      000021 06                    7500 	.db #0x06	; 6
      000022 02                    7501 	.db #0x02	; 2
      000023 03                    7502 	.db #0x03	; 3
      000024 09                    7503 	.db #0x09	; 9
      000025 04                    7504 	.db #0x04	; 4
      000026 02                    7505 	.db #0x02	; 2
      000027 04                    7506 	.db #0x04	; 4
      000028                       7507 _SetupSetUsbConfig:
      000028 00                    7508 	.db #0x00	; 0
      000029 09                    7509 	.db #0x09	; 9
      00002A 00                    7510 	.db #0x00	; 0
      00002B 00                    7511 	.db #0x00	; 0
      00002C 00                    7512 	.db #0x00	; 0
      00002D 00                    7513 	.db #0x00	; 0
      00002E 00                    7514 	.db #0x00	; 0
      00002F 00                    7515 	.db #0x00	; 0
      000030                       7516 _SetHIDIdleRequest:
      000030 21                    7517 	.db #0x21	; 33
      000031 0A                    7518 	.db #0x0a	; 10
      000032 00                    7519 	.db #0x00	; 0
      000033 00                    7520 	.db #0x00	; 0
      000034 00                    7521 	.db #0x00	; 0
      000035 00                    7522 	.db #0x00	; 0
      000036 00                    7523 	.db #0x00	; 0
      000037 00                    7524 	.db #0x00	; 0
      000038                       7525 _GetHIDReport:
      000038 81                    7526 	.db #0x81	; 129
      000039 06                    7527 	.db #0x06	; 6
      00003A 00                    7528 	.db #0x00	; 0
      00003B 22                    7529 	.db #0x22	; 34
      00003C 00                    7530 	.db #0x00	; 0
      00003D 00                    7531 	.db #0x00	; 0
      00003E FF                    7532 	.db #0xff	; 255
      00003F 00                    7533 	.db #0x00	; 0
                                   7534 	.area CONST   (CODE)
      000040                       7535 ___str_0:
      000040 68 6F 73 74 43 74 72  7536 	.ascii "hostCtrlTransfer"
             6C 54 72 61 6E 73 66
             65 72
      000050 0A                    7537 	.db 0x0a
      000051 00                    7538 	.db 0x00
                                   7539 	.area CSEG    (CODE)
                                   7540 	.area CONST   (CODE)
      000052                       7541 ___str_1:
      000052 52 65 6D 61 69 6E 69  7542 	.ascii "Remaining bytes to read %d"
             6E 67 20 62 79 74 65
             73 20 74 6F 20 72 65
             61 64 20 25 64
      00006C 0A                    7543 	.db 0x0a
      00006D 00                    7544 	.db 0x00
                                   7545 	.area CSEG    (CODE)
                                   7546 	.area CONST   (CODE)
      00006E                       7547 ___str_2:
      00006E 52 65 63 65 69 76 65  7548 	.ascii "Received %i bytes"
             64 20 25 69 20 62 79
             74 65 73
      00007F 0A                    7549 	.db 0x0a
      000080 00                    7550 	.db 0x00
                                   7551 	.area CSEG    (CODE)
                                   7552 	.area CONST   (CODE)
      000081                       7553 ___str_3:
      000081 52 65 6D 61 69 6E 69  7554 	.ascii "Remaining bytes to write %i"
             6E 67 20 62 79 74 65
             73 20 74 6F 20 77 72
             69 74 65 20 25 69
      00009C 00                    7555 	.db 0x00
                                   7556 	.area CSEG    (CODE)
                                   7557 	.area CONST   (CODE)
      00009D                       7558 ___str_4:
      00009D 53 45 54 5F 50 4F 52  7559 	.ascii "SET_PORT  %02X  %02X "
             54 20 20 25 30 32 58
             20 20 25 30 32 58 20
      0000B2 00                    7560 	.db 0x00
                                   7561 	.area CSEG    (CODE)
                                   7562 	.area CONST   (CODE)
      0000B3                       7563 ___str_5:
      0000B3 53 65 6E 64 69 6E 67  7564 	.ascii "Sending %i bytes"
             20 25 69 20 62 79 74
             65 73
      0000C3 0A                    7565 	.db 0x0a
      0000C4 00                    7566 	.db 0x00
                                   7567 	.area CSEG    (CODE)
                                   7568 	.area CONST   (CODE)
      0000C5                       7569 ___str_6:
      0000C5 66 69 6C 6C 54 78 42  7570 	.ascii "fillTxBuffer %i bytes"
             75 66 66 65 72 20 25
             69 20 62 79 74 65 73
      0000DA 0A                    7571 	.db 0x0a
      0000DB 00                    7572 	.db 0x00
                                   7573 	.area CSEG    (CODE)
                                   7574 	.area CONST   (CODE)
      0000DC                       7575 ___str_7:
      0000DC 66 69 6C 6C 54 78 42  7576 	.ascii "fillTxBuffer done"
             75 66 66 65 72 20 64
             6F 6E 65
      0000ED 0A                    7577 	.db 0x0a
      0000EE 00                    7578 	.db 0x00
                                   7579 	.area CSEG    (CODE)
                                   7580 	.area CONST   (CODE)
      0000EF                       7581 ___str_8:
      0000EF 67 65 74 44 65 76 69  7582 	.ascii "getDeviceDescriptor"
             63 65 44 65 73 63 72
             69 70 74 6F 72
      000102 0A                    7583 	.db 0x0a
      000103 00                    7584 	.db 0x00
                                   7585 	.area CSEG    (CODE)
                                   7586 	.area CONST   (CODE)
      000104                       7587 ___str_9:
      000104 44 65 76 69 63 65 20  7588 	.ascii "Device descriptor request sent successfully"
             64 65 73 63 72 69 70
             74 6F 72 20 72 65 71
             75 65 73 74 20 73 65
             6E 74 20 73 75 63 63
             65 73 73 66 75 6C 6C
             79
      00012F 0A                    7589 	.db 0x0a
      000130 00                    7590 	.db 0x00
                                   7591 	.area CSEG    (CODE)
                                   7592 	.area CONST   (CODE)
      000131                       7593 ___str_10:
      000131 52 65 63 65 69 76 65  7594 	.ascii "Received packet is smaller than expected"
             64 20 70 61 63 6B 65
             74 20 69 73 20 73 6D
             61 6C 6C 65 72 20 74
             68 61 6E 20 65 78 70
             65 63 74 65 64
      000159 0A                    7595 	.db 0x0a
      00015A 00                    7596 	.db 0x00
                                   7597 	.area CSEG    (CODE)
                                   7598 	.area CONST   (CODE)
      00015B                       7599 ___str_11:
      00015B 53 65 74 41 64 64 72  7600 	.ascii "SetAddress: %i"
             65 73 73 3A 20 25 69
      000169 0A                    7601 	.db 0x0a
      00016A 00                    7602 	.db 0x00
                                   7603 	.area CSEG    (CODE)
                                   7604 	.area CONST   (CODE)
      00016B                       7605 ___str_12:
      00016B 30 78 25 30 32 58 20  7606 	.ascii "0x%02X "
      000172 00                    7607 	.db 0x00
                                   7608 	.area CSEG    (CODE)
                                   7609 	.area CONST   (CODE)
      000173                       7610 ___str_13:
      000173 0A                    7611 	.db 0x0a
      000174 00                    7612 	.db 0x00
                                   7613 	.area CSEG    (CODE)
                                   7614 	.area CONST   (CODE)
      000175                       7615 ___str_14:
      000175 20 20 20 20           7616 	.ascii "    "
      000179 00                    7617 	.db 0x00
                                   7618 	.area CSEG    (CODE)
                                   7619 	.area CONST   (CODE)
      00017A                       7620 ___str_15:
      00017A 55 73 61 67 65 20 70  7621 	.ascii "Usage page "
             61 67 65 20
      000185 00                    7622 	.db 0x00
                                   7623 	.area CSEG    (CODE)
                                   7624 	.area CONST   (CODE)
      000186                       7625 ___str_16:
      000186 4C 45 44 73           7626 	.ascii "LEDs"
      00018A 00                    7627 	.db 0x00
                                   7628 	.area CSEG    (CODE)
                                   7629 	.area CONST   (CODE)
      00018B                       7630 ___str_17:
      00018B 4B 65 79 62 6F 61 72  7631 	.ascii "Keyboard/Keypad"
             64 2F 4B 65 79 70 61
             64
      00019A 00                    7632 	.db 0x00
                                   7633 	.area CSEG    (CODE)
                                   7634 	.area CONST   (CODE)
      00019B                       7635 ___str_18:
      00019B 42 75 74 74 6F 6E     7636 	.ascii "Button"
      0001A1 00                    7637 	.db 0x00
                                   7638 	.area CSEG    (CODE)
                                   7639 	.area CONST   (CODE)
      0001A2                       7640 ___str_19:
      0001A2 67 65 6E 65 72 69 63  7641 	.ascii "generic desktop controls"
             20 64 65 73 6B 74 6F
             70 20 63 6F 6E 74 72
             6F 6C 73
      0001BA 00                    7642 	.db 0x00
                                   7643 	.area CSEG    (CODE)
                                   7644 	.area CONST   (CODE)
      0001BB                       7645 ___str_20:
      0001BB 76 65 6E 64 6F 72 20  7646 	.ascii "vendor defined 0x%04lx"
             64 65 66 69 6E 65 64
             20 30 78 25 30 34 6C
             78
      0001D1 00                    7647 	.db 0x00
                                   7648 	.area CSEG    (CODE)
                                   7649 	.area CONST   (CODE)
      0001D2                       7650 ___str_21:
      0001D2 75 6E 6B 6E 6F 77 6E  7651 	.ascii "unknown 0x%02lx"
             20 30 78 25 30 32 6C
             78
      0001E1 00                    7652 	.db 0x00
                                   7653 	.area CSEG    (CODE)
                                   7654 	.area CONST   (CODE)
      0001E2                       7655 ___str_22:
      0001E2 55 73 61 67 65 20     7656 	.ascii "Usage "
      0001E8 00                    7657 	.db 0x00
                                   7658 	.area CSEG    (CODE)
                                   7659 	.area CONST   (CODE)
      0001E9                       7660 ___str_23:
      0001E9 55 6E 6B 6E 6F 77 6E  7661 	.ascii "Unknown"
      0001F0 00                    7662 	.db 0x00
                                   7663 	.area CSEG    (CODE)
                                   7664 	.area CONST   (CODE)
      0001F1                       7665 ___str_24:
      0001F1 50 6F 69 6E 74 65 72  7666 	.ascii "Pointer"
      0001F8 00                    7667 	.db 0x00
                                   7668 	.area CSEG    (CODE)
                                   7669 	.area CONST   (CODE)
      0001F9                       7670 ___str_25:
      0001F9 4D 6F 75 73 65        7671 	.ascii "Mouse"
      0001FE 00                    7672 	.db 0x00
                                   7673 	.area CSEG    (CODE)
                                   7674 	.area CONST   (CODE)
      0001FF                       7675 ___str_26:
      0001FF 52 65 73 65 72 76 65  7676 	.ascii "Reserved"
             64
      000207 00                    7677 	.db 0x00
                                   7678 	.area CSEG    (CODE)
                                   7679 	.area CONST   (CODE)
      000208                       7680 ___str_27:
      000208 4A 6F 79 73 74 69 63  7681 	.ascii "Joystick"
             6B
      000210 00                    7682 	.db 0x00
                                   7683 	.area CSEG    (CODE)
                                   7684 	.area CONST   (CODE)
      000211                       7685 ___str_28:
      000211 47 61 6D 65 70 61 64  7686 	.ascii "Gamepad"
      000218 00                    7687 	.db 0x00
                                   7688 	.area CSEG    (CODE)
                                   7689 	.area CONST   (CODE)
      000219                       7690 ___str_29:
      000219 4B 65 79 62 6F 61 72  7691 	.ascii "Keyboard"
             64
      000221 00                    7692 	.db 0x00
                                   7693 	.area CSEG    (CODE)
                                   7694 	.area CONST   (CODE)
      000222                       7695 ___str_30:
      000222 4B 65 79 70 61 64     7696 	.ascii "Keypad"
      000228 00                    7697 	.db 0x00
                                   7698 	.area CSEG    (CODE)
                                   7699 	.area CONST   (CODE)
      000229                       7700 ___str_31:
      000229 4D 75 6C 74 69 2D 41  7701 	.ascii "Multi-Axis controller"
             78 69 73 20 63 6F 6E
             74 72 6F 6C 6C 65 72
      00023E 00                    7702 	.db 0x00
                                   7703 	.area CSEG    (CODE)
                                   7704 	.area CONST   (CODE)
      00023F                       7705 ___str_32:
      00023F 54 61 62 6C 65 74 20  7706 	.ascii "Tablet system controls"
             73 79 73 74 65 6D 20
             63 6F 6E 74 72 6F 6C
             73
      000255 00                    7707 	.db 0x00
                                   7708 	.area CSEG    (CODE)
                                   7709 	.area CONST   (CODE)
      000256                       7710 ___str_33:
      000256 58                    7711 	.ascii "X"
      000257 00                    7712 	.db 0x00
                                   7713 	.area CSEG    (CODE)
                                   7714 	.area CONST   (CODE)
      000258                       7715 ___str_34:
      000258 59                    7716 	.ascii "Y"
      000259 00                    7717 	.db 0x00
                                   7718 	.area CSEG    (CODE)
                                   7719 	.area CONST   (CODE)
      00025A                       7720 ___str_35:
      00025A 5A                    7721 	.ascii "Z"
      00025B 00                    7722 	.db 0x00
                                   7723 	.area CSEG    (CODE)
                                   7724 	.area CONST   (CODE)
      00025C                       7725 ___str_36:
      00025C 57 68 65 65 6C        7726 	.ascii "Wheel"
      000261 00                    7727 	.db 0x00
                                   7728 	.area CSEG    (CODE)
                                   7729 	.area CONST   (CODE)
      000262                       7730 ___str_37:
      000262 4C 6F 67 69 63 61 6C  7731 	.ascii "Logical min %lu"
             20 6D 69 6E 20 25 6C
             75
      000271 0A                    7732 	.db 0x0a
      000272 00                    7733 	.db 0x00
                                   7734 	.area CSEG    (CODE)
                                   7735 	.area CONST   (CODE)
      000273                       7736 ___str_38:
      000273 4C 6F 67 69 63 61 6C  7737 	.ascii "Logical max %lu"
             20 6D 61 78 20 25 6C
             75
      000282 0A                    7738 	.db 0x0a
      000283 00                    7739 	.db 0x00
                                   7740 	.area CSEG    (CODE)
                                   7741 	.area CONST   (CODE)
      000284                       7742 ___str_39:
      000284 50 68 79 73 69 63 61  7743 	.ascii "Physical min %lu"
             6C 20 6D 69 6E 20 25
             6C 75
      000294 0A                    7744 	.db 0x0a
      000295 00                    7745 	.db 0x00
                                   7746 	.area CSEG    (CODE)
                                   7747 	.area CONST   (CODE)
      000296                       7748 ___str_40:
      000296 50 68 79 73 69 63 61  7749 	.ascii "Physical max %lu"
             6C 20 6D 61 78 20 25
             6C 75
      0002A6 0A                    7750 	.db 0x0a
      0002A7 00                    7751 	.db 0x00
                                   7752 	.area CSEG    (CODE)
                                   7753 	.area CONST   (CODE)
      0002A8                       7754 ___str_41:
      0002A8 43 6F 6C 6C 65 63 74  7755 	.ascii "Collection start %lu"
             69 6F 6E 20 73 74 61
             72 74 20 25 6C 75
      0002BC 0A                    7756 	.db 0x0a
      0002BD 00                    7757 	.db 0x00
                                   7758 	.area CSEG    (CODE)
                                   7759 	.area CONST   (CODE)
      0002BE                       7760 ___str_42:
      0002BE 43 6F 6C 6C 65 63 74  7761 	.ascii "Collection end %lu"
             69 6F 6E 20 65 6E 64
             20 25 6C 75
      0002D0 0A                    7762 	.db 0x0a
      0002D1 00                    7763 	.db 0x00
                                   7764 	.area CSEG    (CODE)
                                   7765 	.area CONST   (CODE)
      0002D2                       7766 ___str_43:
      0002D2 55 6E 69 74 20 30 78  7767 	.ascii "Unit 0x%02lx"
             25 30 32 6C 78
      0002DE 0A                    7768 	.db 0x0a
      0002DF 00                    7769 	.db 0x00
                                   7770 	.area CSEG    (CODE)
                                   7771 	.area CONST   (CODE)
      0002E0                       7772 ___str_44:
      0002E0 49 6E 70 75 74 20 30  7773 	.ascii "Input 0x%02lx"
             78 25 30 32 6C 78
      0002ED 0A                    7774 	.db 0x0a
      0002EE 00                    7775 	.db 0x00
                                   7776 	.area CSEG    (CODE)
                                   7777 	.area CONST   (CODE)
      0002EF                       7778 ___str_45:
      0002EF 4F 75 74 70 75 74 20  7779 	.ascii "Output 0x%02lx"
             30 78 25 30 32 6C 78
      0002FD 0A                    7780 	.db 0x0a
      0002FE 00                    7781 	.db 0x00
                                   7782 	.area CSEG    (CODE)
                                   7783 	.area CONST   (CODE)
      0002FF                       7784 ___str_46:
      0002FF 46 65 61 74 75 72 65  7785 	.ascii "Feature 0x%02lx"
             20 30 78 25 30 32 6C
             78
      00030E 0A                    7786 	.db 0x0a
      00030F 00                    7787 	.db 0x00
                                   7788 	.area CSEG    (CODE)
                                   7789 	.area CONST   (CODE)
      000310                       7790 ___str_47:
      000310 52 65 70 6F 72 74 20  7791 	.ascii "Report size %lu"
             73 69 7A 65 20 25 6C
             75
      00031F 0A                    7792 	.db 0x0a
      000320 00                    7793 	.db 0x00
                                   7794 	.area CSEG    (CODE)
                                   7795 	.area CONST   (CODE)
      000321                       7796 ___str_48:
      000321 52 65 70 6F 72 74 20  7797 	.ascii "Report ID %lu"
             49 44 20 25 6C 75
      00032E 0A                    7798 	.db 0x0a
      00032F 00                    7799 	.db 0x00
                                   7800 	.area CSEG    (CODE)
                                   7801 	.area CONST   (CODE)
      000330                       7802 ___str_49:
      000330 52 65 70 6F 72 74 20  7803 	.ascii "Report count %lu"
             63 6F 75 6E 74 20 25
             6C 75
      000340 0A                    7804 	.db 0x0a
      000341 00                    7805 	.db 0x00
                                   7806 	.area CSEG    (CODE)
                                   7807 	.area CONST   (CODE)
      000342                       7808 ___str_50:
      000342 55 6E 6B 6E 6F 77 6E  7809 	.ascii "Unknown HID report identifier: 0x%02x (%i bytes) data: 0x%02"
             20 48 49 44 20 72 65
             70 6F 72 74 20 69 64
             65 6E 74 69 66 69 65
             72 3A 20 30 78 25 30
             32 78 20 28 25 69 20
             62 79 74 65 73 29 20
             64 61 74 61 3A 20 30
             78 25 30 32
      00037E 6C 78                 7810 	.ascii "lx"
      000380 0A                    7811 	.db 0x0a
      000381 00                    7812 	.db 0x00
                                   7813 	.area CSEG    (CODE)
                                   7814 	.area CONST   (CODE)
      000382                       7815 ___str_51:
      000382 52 65 71 75 65 73 74  7816 	.ascii "Requesting report from interface %i"
             69 6E 67 20 72 65 70
             6F 72 74 20 66 72 6F
             6D 20 69 6E 74 65 72
             66 61 63 65 20 25 69
      0003A5 0A                    7817 	.db 0x0a
      0003A6 00                    7818 	.db 0x00
                                   7819 	.area CSEG    (CODE)
                                   7820 	.area CONST   (CODE)
      0003A7                       7821 ___str_52:
      0003A7 49 6E 74 65 72 66 61  7822 	.ascii "Interface %d"
             63 65 20 25 64
      0003B3 0A                    7823 	.db 0x0a
      0003B4 00                    7824 	.db 0x00
                                   7825 	.area CSEG    (CODE)
                                   7826 	.area CONST   (CODE)
      0003B5                       7827 ___str_53:
      0003B5 20 20 43 6C 61 73 73  7828 	.ascii "  Class %d"
             20 25 64
      0003BF 0A                    7829 	.db 0x0a
      0003C0 00                    7830 	.db 0x00
                                   7831 	.area CSEG    (CODE)
                                   7832 	.area CONST   (CODE)
      0003C1                       7833 ___str_54:
      0003C1 20 20 53 75 62 20 43  7834 	.ascii "  Sub Class %d"
             6C 61 73 73 20 25 64
      0003CF 0A                    7835 	.db 0x0a
      0003D0 00                    7836 	.db 0x00
                                   7837 	.area CSEG    (CODE)
                                   7838 	.area CONST   (CODE)
      0003D1                       7839 ___str_55:
      0003D1 20 20 49 6E 74 65 72  7840 	.ascii "  Interface Protocol %d"
             66 61 63 65 20 50 72
             6F 74 6F 63 6F 6C 20
             25 64
      0003E8 0A                    7841 	.db 0x0a
      0003E9 00                    7842 	.db 0x00
                                   7843 	.area CSEG    (CODE)
                                   7844 	.area CONST   (CODE)
      0003EA                       7845 ___str_56:
      0003EA 48 49 44 20 61 74 20  7846 	.ascii "HID at Interface %d"
             49 6E 74 65 72 66 61
             63 65 20 25 64
      0003FD 0A                    7847 	.db 0x0a
      0003FE 00                    7848 	.db 0x00
                                   7849 	.area CSEG    (CODE)
                                   7850 	.area CONST   (CODE)
      0003FF                       7851 ___str_57:
      0003FF 20 20 55 53 42 20 25  7852 	.ascii "  USB %d.%d%d"
             64 2E 25 64 25 64
      00040C 0A                    7853 	.db 0x0a
      00040D 00                    7854 	.db 0x00
                                   7855 	.area CSEG    (CODE)
                                   7856 	.area CONST   (CODE)
      00040E                       7857 ___str_58:
      00040E 20 20 43 6F 75 6E 74  7858 	.ascii "  Country code 0x%02X"
             72 79 20 63 6F 64 65
             20 30 78 25 30 32 58
      000423 0A                    7859 	.db 0x0a
      000424 00                    7860 	.db 0x00
                                   7861 	.area CSEG    (CODE)
                                   7862 	.area CONST   (CODE)
      000425                       7863 ___str_59:
      000425 20 20 54 79 70 65 58  7864 	.ascii "  TypeX 0x%02X"
             20 30 78 25 30 32 58
      000433 0A                    7865 	.db 0x0a
      000434 00                    7866 	.db 0x00
                                   7867 	.area CSEG    (CODE)
                                   7868 	.area CONST   (CODE)
      000435                       7869 ___str_60:
      000435 46 61 69 6C 65 64 20  7870 	.ascii "Failed to enable root hub port %i"
             74 6F 20 65 6E 61 62
             6C 65 20 72 6F 6F 74
             20 68 75 62 20 70 6F
             72 74 20 25 69
      000456 0A                    7871 	.db 0x0a
      000457 00                    7872 	.db 0x00
                                   7873 	.area CSEG    (CODE)
                                   7874 	.area CONST   (CODE)
      000458                       7875 ___str_61:
      000458 72 6F 6F 74 20 68 75  7876 	.ascii "root hub port %i enabled"
             62 20 70 6F 72 74 20
             25 69 20 65 6E 61 62
             6C 65 64
      000470 0A                    7877 	.db 0x0a
      000471 00                    7878 	.db 0x00
                                   7879 	.area CSEG    (CODE)
                                   7880 	.area CONST   (CODE)
      000472                       7881 ___str_62:
      000472 44 65 76 69 63 65 20  7882 	.ascii "Device class %i"
             63 6C 61 73 73 20 25
             69
      000481 0A                    7883 	.db 0x0a
      000482 00                    7884 	.db 0x00
                                   7885 	.area CSEG    (CODE)
                                   7886 	.area CONST   (CODE)
      000483                       7887 ___str_63:
      000483 4D 61 78 20 70 61 63  7888 	.ascii "Max packet size %i"
             6B 65 74 20 73 69 7A
             65 20 25 69
      000495 0A                    7889 	.db 0x0a
      000496 00                    7890 	.db 0x00
                                   7891 	.area CSEG    (CODE)
                                   7892 	.area CONST   (CODE)
      000497                       7893 ___str_64:
      000497 44 65 76 69 63 65 20  7894 	.ascii "Device String: %s"
             53 74 72 69 6E 67 3A
             20 25 73
      0004A8 0A                    7895 	.db 0x0a
      0004A9 00                    7896 	.db 0x00
                                   7897 	.area CSEG    (CODE)
                                   7898 	.area CONST   (CODE)
      0004AA                       7899 ___str_65:
      0004AA 43 6F 6E 66 69 67 75  7900 	.ascii "Configuration value: %d"
             72 61 74 69 6F 6E 20
             76 61 6C 75 65 3A 20
             25 64
      0004C1 0A                    7901 	.db 0x0a
      0004C2 00                    7902 	.db 0x00
                                   7903 	.area CSEG    (CODE)
                                   7904 	.area CONST   (CODE)
      0004C3                       7905 ___str_66:
      0004C3 49 6E 74 65 72 66 61  7906 	.ascii "Interface count: %d"
             63 65 20 63 6F 75 6E
             74 3A 20 25 64
      0004D6 0A                    7907 	.db 0x0a
      0004D7 00                    7908 	.db 0x00
                                   7909 	.area CSEG    (CODE)
                                   7910 	.area CONST   (CODE)
      0004D8                       7911 ___str_67:
      0004D8 49 6E 74 65 72 66 61  7912 	.ascii "Interface descriptor found"
             63 65 20 64 65 73 63
             72 69 70 74 6F 72 20
             66 6F 75 6E 64
      0004F2 0A                    7913 	.db 0x0a
      0004F3 00                    7914 	.db 0x00
                                   7915 	.area CSEG    (CODE)
                                   7916 	.area CONST   (CODE)
      0004F4                       7917 ___str_68:
      0004F4 45 6E 64 70 6F 69 6E  7918 	.ascii "Endpoint descriptor found"
             74 20 64 65 73 63 72
             69 70 74 6F 72 20 66
             6F 75 6E 64
      00050D 0A                    7919 	.db 0x0a
      00050E 00                    7920 	.db 0x00
                                   7921 	.area CSEG    (CODE)
                                   7922 	.area CONST   (CODE)
      00050F                       7923 ___str_69:
      00050F 43 6F 6E 6E 65 63 74  7924 	.ascii "Connected device at position: %i"
             65 64 20 64 65 76 69
             63 65 20 61 74 20 70
             6F 73 69 74 69 6F 6E
             3A 20 25 69
      00052F 0A                    7925 	.db 0x0a
      000530 00                    7926 	.db 0x00
                                   7927 	.area CSEG    (CODE)
                                   7928 	.area CONST   (CODE)
      000531                       7929 ___str_70:
      000531 47 6F 74 20 65 6E 64  7930 	.ascii "Got endpoint for the HIDdevice 0x%02x"
             70 6F 69 6E 74 20 66
             6F 72 20 74 68 65 20
             48 49 44 64 65 76 69
             63 65 20 30 78 25 30
             32 78
      000556 0A                    7931 	.db 0x0a
      000557 00                    7932 	.db 0x00
                                   7933 	.area CSEG    (CODE)
                                   7934 	.area CONST   (CODE)
      000558                       7935 ___str_71:
      000558 48 49 44 20 64 65 73  7936 	.ascii "HID descriptor found"
             63 72 69 70 74 6F 72
             20 66 6F 75 6E 64
      00056C 0A                    7937 	.db 0x0a
      00056D 00                    7938 	.db 0x00
                                   7939 	.area CSEG    (CODE)
                                   7940 	.area CONST   (CODE)
      00056E                       7941 ___str_72:
      00056E 43 6C 61 73 73 20 73  7942 	.ascii "Class specific header descriptor found"
             70 65 63 69 66 69 63
             20 68 65 61 64 65 72
             20 64 65 73 63 72 69
             70 74 6F 72 20 66 6F
             75 6E 64
      000594 0A                    7943 	.db 0x0a
      000595 00                    7944 	.db 0x00
                                   7945 	.area CSEG    (CODE)
                                   7946 	.area CONST   (CODE)
      000596                       7947 ___str_73:
      000596 43 6C 61 73 73 20 73  7948 	.ascii "Class specific endpoint descriptor found"
             70 65 63 69 66 69 63
             20 65 6E 64 70 6F 69
             6E 74 20 64 65 73 63
             72 69 70 74 6F 72 20
             66 6F 75 6E 64
      0005BE 0A                    7949 	.db 0x0a
      0005BF 00                    7950 	.db 0x00
                                   7951 	.area CSEG    (CODE)
                                   7952 	.area CONST   (CODE)
      0005C0                       7953 ___str_74:
      0005C0 55 6E 65 78 70 65 63  7954 	.ascii "Unexpected descriptor type: %02X"
             74 65 64 20 64 65 73
             63 72 69 70 74 6F 72
             20 74 79 70 65 3A 20
             25 30 32 58
      0005E0 0A                    7955 	.db 0x0a
      0005E1 00                    7956 	.db 0x00
                                   7957 	.area CSEG    (CODE)
                                   7958 	.area CONST   (CODE)
      0005E2                       7959 ___str_75:
      0005E2 45 72 72 6F 72 20 3D  7960 	.ascii "Error = %02X"
             20 25 30 32 58
      0005EE 0A                    7961 	.db 0x0a
      0005EF 00                    7962 	.db 0x00
                                   7963 	.area CSEG    (CODE)
                                   7964 	.area CONST   (CODE)
      0005F0                       7965 ___str_76:
      0005F0 44 65 76 69 63 65 20  7966 	.ascii "Device at root hub %i connected"
             61 74 20 72 6F 6F 74
             20 68 75 62 20 25 69
             20 63 6F 6E 6E 65 63
             74 65 64
      00060F 0A                    7967 	.db 0x0a
      000610 00                    7968 	.db 0x00
                                   7969 	.area CSEG    (CODE)
                                   7970 	.area CONST   (CODE)
      000611                       7971 ___str_77:
      000611 44 65 76 69 63 65 20  7972 	.ascii "Device at root hub %i disconnected"
             61 74 20 72 6F 6F 74
             20 68 75 62 20 25 69
             20 64 69 73 63 6F 6E
             6E 65 63 74 65 64
      000633 0A                    7973 	.db 0x0a
      000634 00                    7974 	.db 0x00
                                   7975 	.area CSEG    (CODE)
                                   7976 	.area XINIT   (CODE)
                                   7977 	.area CABS    (ABS,CODE)
